
LED_controller.elf:     file format elf32-avr

Sections:
Idx Name          Size      VMA       LMA       File off  Algn
  0 .text         00002c14  00000000  00000000  00000094  2**1
                  CONTENTS, ALLOC, LOAD, READONLY, CODE
  1 .data         00000592  00800060  00002c14  00002ca8  2**0
                  CONTENTS, ALLOC, LOAD, DATA
  2 .bss          00000026  008005f2  008005f2  0000323a  2**0
                  ALLOC
  3 .comment      00000030  00000000  00000000  0000323a  2**0
                  CONTENTS, READONLY
  4 .note.gnu.avr.deviceinfo 0000003c  00000000  00000000  0000326c  2**2
                  CONTENTS, READONLY
  5 .debug_aranges 00000250  00000000  00000000  000032a8  2**0
                  CONTENTS, READONLY, DEBUGGING
  6 .debug_info   000054f2  00000000  00000000  000034f8  2**0
                  CONTENTS, READONLY, DEBUGGING
  7 .debug_abbrev 00000c46  00000000  00000000  000089ea  2**0
                  CONTENTS, READONLY, DEBUGGING
  8 .debug_line   00002369  00000000  00000000  00009630  2**0
                  CONTENTS, READONLY, DEBUGGING
  9 .debug_frame  0000082c  00000000  00000000  0000b99c  2**2
                  CONTENTS, READONLY, DEBUGGING
 10 .debug_str    00000f9c  00000000  00000000  0000c1c8  2**0
                  CONTENTS, READONLY, DEBUGGING
 11 .debug_loc    000035fa  00000000  00000000  0000d164  2**0
                  CONTENTS, READONLY, DEBUGGING
 12 .debug_ranges 00000220  00000000  00000000  0001075e  2**0
                  CONTENTS, READONLY, DEBUGGING

Disassembly of section .text:

00000000 <__vectors>:
       0:	0c 94 8e 00 	jmp	0x11c	; 0x11c <__ctors_end>
       4:	0c 94 5a 06 	jmp	0xcb4	; 0xcb4 <__vector_1>
       8:	0c 94 b6 00 	jmp	0x16c	; 0x16c <__bad_interrupt>
       c:	0c 94 b6 00 	jmp	0x16c	; 0x16c <__bad_interrupt>
      10:	0c 94 b6 00 	jmp	0x16c	; 0x16c <__bad_interrupt>
      14:	0c 94 b6 00 	jmp	0x16c	; 0x16c <__bad_interrupt>
      18:	0c 94 b6 00 	jmp	0x16c	; 0x16c <__bad_interrupt>
      1c:	0c 94 b5 06 	jmp	0xd6a	; 0xd6a <__vector_7>
      20:	0c 94 b6 00 	jmp	0x16c	; 0x16c <__bad_interrupt>
      24:	0c 94 b6 00 	jmp	0x16c	; 0x16c <__bad_interrupt>
      28:	0c 94 b6 00 	jmp	0x16c	; 0x16c <__bad_interrupt>
      2c:	0c 94 b6 00 	jmp	0x16c	; 0x16c <__bad_interrupt>
      30:	0c 94 b6 00 	jmp	0x16c	; 0x16c <__bad_interrupt>
      34:	0c 94 b6 00 	jmp	0x16c	; 0x16c <__bad_interrupt>
      38:	0c 94 b6 00 	jmp	0x16c	; 0x16c <__bad_interrupt>
      3c:	0c 94 b6 00 	jmp	0x16c	; 0x16c <__bad_interrupt>
      40:	0c 94 b6 00 	jmp	0x16c	; 0x16c <__bad_interrupt>
      44:	0c 94 b6 00 	jmp	0x16c	; 0x16c <__bad_interrupt>
      48:	0c 94 b6 00 	jmp	0x16c	; 0x16c <__bad_interrupt>
      4c:	0c 94 b6 00 	jmp	0x16c	; 0x16c <__bad_interrupt>
      50:	0c 94 b6 00 	jmp	0x16c	; 0x16c <__bad_interrupt>
      54:	75 02       	muls	r23, r21
      56:	82 02       	muls	r24, r18
      58:	8f 02       	muls	r24, r31
      5a:	9c 02       	muls	r25, r28
      5c:	d3 02       	muls	r29, r19
      5e:	fb 02       	muls	r31, r27
      60:	32 03       	mulsu	r19, r18
      62:	5a 03       	fmul	r21, r18
      64:	91 03       	fmuls	r17, r17
      66:	b9 03       	fmulsu	r19, r17
      68:	cb 03       	fmulsu	r20, r19
      6a:	f1 03       	fmuls	r23, r17
      6c:	ff 03       	fmulsu	r23, r23
      6e:	0d 04       	cpc	r0, r13
      70:	1b 04       	cpc	r1, r11
      72:	2b 04       	cpc	r2, r11
      74:	47 04       	cpc	r4, r7
      76:	76 04       	cpc	r7, r6
      78:	9a 04       	cpc	r9, r10
      7a:	c9 04       	cpc	r12, r9
      7c:	ed 04       	cpc	r14, r13
      7e:	1c 05       	cpc	r17, r12
      80:	cd 05       	cpc	r28, r13
      82:	31 06       	cpc	r3, r17
      84:	31 06       	cpc	r3, r17
      86:	31 06       	cpc	r3, r17
      88:	d8 05       	cpc	r29, r8
      8a:	e1 05       	cpc	r30, r1
      8c:	ea 05       	cpc	r30, r10
      8e:	f3 05       	cpc	r31, r3
      90:	fc 05       	cpc	r31, r12
      92:	05 06       	cpc	r0, r21
      94:	0e 06       	cpc	r0, r30
      96:	17 06       	cpc	r1, r23
      98:	07 63       	ori	r16, 0x37	; 55
      9a:	42 36       	cpi	r20, 0x62	; 98
      9c:	b7 9b       	sbis	0x16, 7	; 22
      9e:	d8 a7       	std	Y+40, r29	; 0x28
      a0:	1a 39       	cpi	r17, 0x9A	; 154
      a2:	68 56       	subi	r22, 0x68	; 104
      a4:	18 ae       	std	Y+56, r1	; 0x38
      a6:	ba ab       	std	Y+50, r27	; 0x32
      a8:	55 8c       	ldd	r5, Z+29	; 0x1d
      aa:	1d 3c       	cpi	r17, 0xCD	; 205
      ac:	b7 cc       	rjmp	.-1682   	; 0xfffffa1c <__eeprom_end+0xff7efa1c>
      ae:	57 63       	ori	r21, 0x37	; 55
      b0:	bd 6d       	ori	r27, 0xDD	; 221
      b2:	ed fd       	.word	0xfded	; ????
      b4:	75 3e       	cpi	r23, 0xE5	; 229
      b6:	f6 17       	cp	r31, r22
      b8:	72 31       	cpi	r23, 0x12	; 18
      ba:	bf 00       	.word	0x00bf	; ????
      bc:	00 00       	nop
      be:	80 3f       	cpi	r24, 0xF0	; 240
      c0:	08 00       	.word	0x0008	; ????
      c2:	00 00       	nop
      c4:	be 92       	st	-X, r11
      c6:	24 49       	sbci	r18, 0x94	; 148
      c8:	12 3e       	cpi	r17, 0xE2	; 226
      ca:	ab aa       	std	Y+51, r10	; 0x33
      cc:	aa 2a       	or	r10, r26
      ce:	be cd       	rjmp	.-1156   	; 0xfffffc4c <__eeprom_end+0xff7efc4c>
      d0:	cc cc       	rjmp	.-1640   	; 0xfffffa6a <__eeprom_end+0xff7efa6a>
      d2:	4c 3e       	cpi	r20, 0xEC	; 236
      d4:	00 00       	nop
      d6:	00 80       	ld	r0, Z
      d8:	be ab       	std	Y+54, r27	; 0x36
      da:	aa aa       	std	Y+50, r10	; 0x32
      dc:	aa 3e       	cpi	r26, 0xEA	; 234
      de:	00 00       	nop
      e0:	00 00       	nop
      e2:	bf 00       	.word	0x00bf	; ????
      e4:	00 00       	nop
      e6:	80 3f       	cpi	r24, 0xF0	; 240
      e8:	00 00       	nop
      ea:	00 00       	nop
      ec:	00 08       	sbc	r0, r0
      ee:	41 78       	andi	r20, 0x81	; 129
      f0:	d3 bb       	out	0x13, r29	; 19
      f2:	43 87       	std	Z+11, r20	; 0x0b
      f4:	d1 13       	cpse	r29, r17
      f6:	3d 19       	sub	r19, r13
      f8:	0e 3c       	cpi	r16, 0xCE	; 206
      fa:	c3 bd       	out	0x23, r28	; 35
      fc:	42 82       	std	Z+2, r4	; 0x02
      fe:	ad 2b       	or	r26, r29
     100:	3e 68       	ori	r19, 0x8E	; 142
     102:	ec 82       	std	Y+4, r14	; 0x04
     104:	76 be       	out	0x36, r7	; 54
     106:	d9 8f       	std	Y+25, r29	; 0x19
     108:	e1 a9       	ldd	r30, Z+49	; 0x31
     10a:	3e 4c       	sbci	r19, 0xCE	; 206
     10c:	80 ef       	ldi	r24, 0xF0	; 240
     10e:	ff be       	out	0x3f, r15	; 63
     110:	01 c4       	rjmp	.+2050   	; 0x914 <__stack+0xb5>
     112:	ff 7f       	andi	r31, 0xFF	; 255
     114:	3f 00       	.word	0x003f	; ????
     116:	00 00       	nop
	...

0000011a <__ctors_start>:
     11a:	79 0f       	add	r23, r25

0000011c <__ctors_end>:
     11c:	11 24       	eor	r1, r1
     11e:	1f be       	out	0x3f, r1	; 63
     120:	cf e5       	ldi	r28, 0x5F	; 95
     122:	d8 e0       	ldi	r29, 0x08	; 8
     124:	de bf       	out	0x3e, r29	; 62
     126:	cd bf       	out	0x3d, r28	; 61

00000128 <__do_copy_data>:
     128:	15 e0       	ldi	r17, 0x05	; 5
     12a:	a0 e6       	ldi	r26, 0x60	; 96
     12c:	b0 e0       	ldi	r27, 0x00	; 0
     12e:	e4 e1       	ldi	r30, 0x14	; 20
     130:	fc e2       	ldi	r31, 0x2C	; 44
     132:	02 c0       	rjmp	.+4      	; 0x138 <__do_copy_data+0x10>
     134:	05 90       	lpm	r0, Z+
     136:	0d 92       	st	X+, r0
     138:	a2 3f       	cpi	r26, 0xF2	; 242
     13a:	b1 07       	cpc	r27, r17
     13c:	d9 f7       	brne	.-10     	; 0x134 <__do_copy_data+0xc>

0000013e <__do_clear_bss>:
     13e:	26 e0       	ldi	r18, 0x06	; 6
     140:	a2 ef       	ldi	r26, 0xF2	; 242
     142:	b5 e0       	ldi	r27, 0x05	; 5
     144:	01 c0       	rjmp	.+2      	; 0x148 <.do_clear_bss_start>

00000146 <.do_clear_bss_loop>:
     146:	1d 92       	st	X+, r1

00000148 <.do_clear_bss_start>:
     148:	a8 31       	cpi	r26, 0x18	; 24
     14a:	b2 07       	cpc	r27, r18
     14c:	e1 f7       	brne	.-8      	; 0x146 <.do_clear_bss_loop>

0000014e <__do_global_ctors>:
     14e:	10 e0       	ldi	r17, 0x00	; 0
     150:	ce e8       	ldi	r28, 0x8E	; 142
     152:	d0 e0       	ldi	r29, 0x00	; 0
     154:	04 c0       	rjmp	.+8      	; 0x15e <__do_global_ctors+0x10>
     156:	21 97       	sbiw	r28, 0x01	; 1
     158:	fe 01       	movw	r30, r28
     15a:	0e 94 f6 11 	call	0x23ec	; 0x23ec <__tablejump2__>
     15e:	cd 38       	cpi	r28, 0x8D	; 141
     160:	d1 07       	cpc	r29, r17
     162:	c9 f7       	brne	.-14     	; 0x156 <__do_global_ctors+0x8>
     164:	0e 94 e2 07 	call	0xfc4	; 0xfc4 <main>
     168:	0c 94 08 16 	jmp	0x2c10	; 0x2c10 <_exit>

0000016c <__bad_interrupt>:
     16c:	0c 94 00 00 	jmp	0	; 0x0 <__vectors>

00000170 <_Z9I2CMTInitv>:
void I2CMRSendSLA(uint8_t sla)
{
	TWDR = sla;												// Load data into TWDR Register.
	TWCR = (1 << TWINT)|(1 << TWEN);						// Clear TWINT bit in TWCR to start transmission of data
	while (!(TWCR & (1 << TWINT)));							// Wait for TWINT Flag set. This indicates that the SLA has been transmitted
	if ((TWSR & 0xF8) != MR_SLA_R_TRANSMITED_ACK_RECIEVED)	// Check value of TWI Status Register. Mask	prescaler bits. If status different from MR_SLA_R_TRANSMITED_ACK_RECIEVED go to ERROR
     170:	82 e4       	ldi	r24, 0x42	; 66
     172:	80 b9       	out	0x00, r24	; 0
     174:	81 b1       	in	r24, 0x01	; 1
     176:	81 b9       	out	0x01, r24	; 1
     178:	08 95       	ret

0000017a <_Z10I2CMTStartv>:
     17a:	84 ea       	ldi	r24, 0xA4	; 164
     17c:	86 bf       	out	0x36, r24	; 54
     17e:	06 b6       	in	r0, 0x36	; 54
     180:	07 fe       	sbrs	r0, 7
     182:	fd cf       	rjmp	.-6      	; 0x17e <_Z10I2CMTStartv+0x4>
     184:	81 b1       	in	r24, 0x01	; 1
     186:	08 95       	ret

00000188 <_Z12I2CMTSendSLAh>:
     188:	83 b9       	out	0x03, r24	; 3
     18a:	84 e8       	ldi	r24, 0x84	; 132
     18c:	86 bf       	out	0x36, r24	; 54
     18e:	06 b6       	in	r0, 0x36	; 54
     190:	07 fe       	sbrs	r0, 7
     192:	fd cf       	rjmp	.-6      	; 0x18e <_Z12I2CMTSendSLAh+0x6>
     194:	81 b1       	in	r24, 0x01	; 1
     196:	08 95       	ret

00000198 <_Z13I2CMTSendDatah>:
     198:	83 b9       	out	0x03, r24	; 3
     19a:	84 e8       	ldi	r24, 0x84	; 132
     19c:	86 bf       	out	0x36, r24	; 54
     19e:	06 b6       	in	r0, 0x36	; 54
     1a0:	07 fe       	sbrs	r0, 7
     1a2:	fd cf       	rjmp	.-6      	; 0x19e <_Z13I2CMTSendDatah+0x6>
     1a4:	81 b1       	in	r24, 0x01	; 1
     1a6:	08 95       	ret

000001a8 <_Z9I2CMTStopv>:
     1a8:	84 e9       	ldi	r24, 0x94	; 148
     1aa:	86 bf       	out	0x36, r24	; 54
     1ac:	08 95       	ret

000001ae <_Z10I2CMRStartv>:
     1ae:	84 ea       	ldi	r24, 0xA4	; 164
     1b0:	86 bf       	out	0x36, r24	; 54
     1b2:	06 b6       	in	r0, 0x36	; 54
     1b4:	07 fe       	sbrs	r0, 7
     1b6:	fd cf       	rjmp	.-6      	; 0x1b2 <_Z10I2CMRStartv+0x4>
     1b8:	81 b1       	in	r24, 0x01	; 1
     1ba:	08 95       	ret

000001bc <_Z9I2CMRReadv>:
	}
}

uint8_t I2CMRRead(void)
{
	TWCR = (1 << TWINT)|(1 << TWEN)|(1 << TWEA);			// Clear TWINT bit in TWCR to start receiving of data, set bit in TWEA to return ASK bit
     1bc:	84 ec       	ldi	r24, 0xC4	; 196
     1be:	86 bf       	out	0x36, r24	; 54
	while (!(TWCR & (1 << TWINT)));							// Wait for TWINT Flag set. This indicates that the data has been recieved
     1c0:	06 b6       	in	r0, 0x36	; 54
     1c2:	07 fe       	sbrs	r0, 7
     1c4:	fd cf       	rjmp	.-6      	; 0x1c0 <_Z9I2CMRReadv+0x4>
	if ((TWSR & 0xF8) != MR_DATA_RECIEVED_ACK_RETURNED)		// Check value of TWI Status Register. Mask prescaler bits. If status different from MR_DATA_RECIEVED_ACK_RETURNED go to ERROR
     1c6:	81 b1       	in	r24, 0x01	; 1
	{
		I2CErrorHandler();
	}
	return TWDR;											// Возврат данных
     1c8:	83 b1       	in	r24, 0x03	; 3
}
     1ca:	08 95       	ret

000001cc <_Z13I2CMRReadLastv>:

uint8_t I2CMRReadLast(void)
{
	TWCR = (1 << TWINT)|(1 << TWEN);						// Clear TWINT bit in TWCR to start receiving of data, DONT set bit in TWEA to return NO ASK bit
     1cc:	84 e8       	ldi	r24, 0x84	; 132
     1ce:	86 bf       	out	0x36, r24	; 54
	while (!(TWCR & (1 << TWINT)));							// Wait for TWINT Flag set. This indicates that the data has been recieved
     1d0:	06 b6       	in	r0, 0x36	; 54
     1d2:	07 fe       	sbrs	r0, 7
     1d4:	fd cf       	rjmp	.-6      	; 0x1d0 <_Z13I2CMRReadLastv+0x4>
	if ((TWSR & 0xF8) != MR_DATA_RECIEVED_NOT_ACK_RETURNED)	// Check value of TWI Status Register. Mask prescaler bits. If status different from MR_DATA_RECIEVED_NOT_ACK_RETURNED go to ERROR
     1d6:	81 b1       	in	r24, 0x01	; 1
	{
		I2CErrorHandler();
	}
	return TWDR;											// Возврат данных
     1d8:	83 b1       	in	r24, 0x03	; 3
}
     1da:	08 95       	ret

000001dc <_Z9I2CMRStopv>:

void I2CMRStop(void)
{
	TWCR = (1 << TWINT)|(1 << TWEN)|(1 << TWSTO);			// Transmit STOP condition
     1dc:	84 e9       	ldi	r24, 0x94	; 148
     1de:	86 bf       	out	0x36, r24	; 54
     1e0:	08 95       	ret

000001e2 <_Z8BinToDech>:
//		Функции конвертации из десятичного числа в двоично-десятичное
//==============================================================================

uint8_t BinToDec(uint8_t binary)							// Перевод двоично-десятичного числа в десятичное
{
	uint8_t decimal = ((binary >> 4) * 10 + (0b00001111 & binary));
     1e2:	28 2f       	mov	r18, r24
     1e4:	30 e0       	ldi	r19, 0x00	; 0
     1e6:	35 95       	asr	r19
     1e8:	27 95       	ror	r18
     1ea:	35 95       	asr	r19
     1ec:	27 95       	ror	r18
     1ee:	35 95       	asr	r19
     1f0:	27 95       	ror	r18
     1f2:	35 95       	asr	r19
     1f4:	27 95       	ror	r18
     1f6:	22 0f       	add	r18, r18
     1f8:	92 2f       	mov	r25, r18
     1fa:	99 0f       	add	r25, r25
     1fc:	99 0f       	add	r25, r25
     1fe:	29 0f       	add	r18, r25
     200:	8f 70       	andi	r24, 0x0F	; 15
	return decimal;
}
     202:	82 0f       	add	r24, r18
     204:	08 95       	ret

00000206 <_Z8DecToBinh>:

uint8_t DecToBin(uint8_t decimal)							// Перевод десятичного числа в двоично-десятичное
{
	uint8_t binary = ((decimal / 10) << 4)|(decimal % 10);
     206:	9d ec       	ldi	r25, 0xCD	; 205
     208:	89 9f       	mul	r24, r25
     20a:	91 2d       	mov	r25, r1
     20c:	11 24       	eor	r1, r1
     20e:	96 95       	lsr	r25
     210:	96 95       	lsr	r25
     212:	96 95       	lsr	r25
     214:	20 e1       	ldi	r18, 0x10	; 16
     216:	92 9f       	mul	r25, r18
     218:	a0 01       	movw	r20, r0
     21a:	11 24       	eor	r1, r1
     21c:	99 0f       	add	r25, r25
     21e:	29 2f       	mov	r18, r25
     220:	22 0f       	add	r18, r18
     222:	22 0f       	add	r18, r18
     224:	92 0f       	add	r25, r18
     226:	89 1b       	sub	r24, r25
	return binary;
}
     228:	84 2b       	or	r24, r20
     22a:	08 95       	ret

0000022c <_Z16DS1307_WriteTimePh>:
//==============================================================================
// Адрес часов слейв на запись W	0b11010000
// Адрес часов слейв на чтение R	0b11010001
	
void DS1307_WriteTime(uint8_t time[])
{
     22c:	cf 93       	push	r28
     22e:	df 93       	push	r29
     230:	ec 01       	movw	r28, r24
	// ===== Включение I2C =====
	I2CMTInit();							// Инициализация мастера								// Ответ TWSR: 11111 = 0xf8 - No relevant state information	available; TWINT = “0”
     232:	0e 94 b8 00 	call	0x170	; 0x170 <_Z9I2CMTInitv>
	I2CMTStart();							// Задание стартового условия мастером					// Ответ TWSR: 00001 = 0x08 - A START condition has been transmitted
     236:	0e 94 bd 00 	call	0x17a	; 0x17a <_Z10I2CMTStartv>
	
	// ===== Начало передачи и передача начального адреса с котрого начнется запись =====
	I2CMTSendSLA(DS1307_WRITE_ADRESS);		// Передача адреса слейва								// Ответ TWSR: 00011 = 0x18 - SLA+W has been transmitted;		ACK has been received
     23a:	80 ed       	ldi	r24, 0xD0	; 208
     23c:	0e 94 c4 00 	call	0x188	; 0x188 <_Z12I2CMTSendSLAh>
	I2CMTSendData(0x00);					// Передача адреса ячейки с которого начнется запись	// Ответ TWSR: 00101 = 0x28 - Data byte has been transmitted;	ACK has been received
     240:	80 e0       	ldi	r24, 0x00	; 0
     242:	0e 94 cc 00 	call	0x198	; 0x198 <_Z13I2CMTSendDatah>
		
	// ===== Передача данных =====			// Ответы TWSR: 00101 = 0x28 - Data byte has been transmitted;	ACK has been received
	I2CMTSendData(DecToBin(time[0]));		// Адрес - 0x00	7-CH	6-10Sec		5-10Sec		4-10Sec		3-Sec	2-Sec	1-Sec	0-Sec	(CH-0 - вкл осцилятор, CH-1 - вЫкл осцилятор)
     246:	88 81       	ld	r24, Y
     248:	0e 94 03 01 	call	0x206	; 0x206 <_Z8DecToBinh>
     24c:	0e 94 cc 00 	call	0x198	; 0x198 <_Z13I2CMTSendDatah>
	I2CMTSendData(DecToBin(time[1]));		// Адрес - 0x01	7-0		6-10Min		5-10Min		4-10Min		3-Min	2-Min	1-Min	0-Min
     250:	89 81       	ldd	r24, Y+1	; 0x01
     252:	0e 94 03 01 	call	0x206	; 0x206 <_Z8DecToBinh>
     256:	0e 94 cc 00 	call	0x198	; 0x198 <_Z13I2CMTSendDatah>
	I2CMTSendData(DecToBin(time[2]));		// Адрес - 0x02	7-0		6-12/24		5-10H/AMPM	4-10Hour	3-Hour	2-Hour	1-Hour	0-Hour
     25a:	8a 81       	ldd	r24, Y+2	; 0x02
     25c:	0e 94 03 01 	call	0x206	; 0x206 <_Z8DecToBinh>
     260:	0e 94 cc 00 	call	0x198	; 0x198 <_Z13I2CMTSendDatah>
	I2CMTSendData(DecToBin(time[3]));		// Адрес - 0x03	7-0		6-0			5-0			4-0			3-0		2-Day	1-Day	0-Day	(День недели)
     264:	8b 81       	ldd	r24, Y+3	; 0x03
     266:	0e 94 03 01 	call	0x206	; 0x206 <_Z8DecToBinh>
     26a:	0e 94 cc 00 	call	0x198	; 0x198 <_Z13I2CMTSendDatah>
	I2CMTSendData(DecToBin(time[4]));		// Адрес - 0x04	7-0		6-0			5-10Date	4-10Date	3-Date	2-Date	1-Date	0-Date	(День месяца)
     26e:	8c 81       	ldd	r24, Y+4	; 0x04
     270:	0e 94 03 01 	call	0x206	; 0x206 <_Z8DecToBinh>
     274:	0e 94 cc 00 	call	0x198	; 0x198 <_Z13I2CMTSendDatah>
	I2CMTSendData(DecToBin(time[5]));		// Адрес - 0x05	7-0		6-0			5-0			4-10Month	3-Month	2-Month	1-Month	0-Month
     278:	8d 81       	ldd	r24, Y+5	; 0x05
     27a:	0e 94 03 01 	call	0x206	; 0x206 <_Z8DecToBinh>
     27e:	0e 94 cc 00 	call	0x198	; 0x198 <_Z13I2CMTSendDatah>
	I2CMTSendData(DecToBin(time[6]));		// Адрес - 0x06	7-10Y	6-10Y		5-10Y		4-10Y		3-Y		2-Y		1-Y		0-Y
     282:	8e 81       	ldd	r24, Y+6	; 0x06
     284:	0e 94 03 01 	call	0x206	; 0x206 <_Z8DecToBinh>
     288:	0e 94 cc 00 	call	0x198	; 0x198 <_Z13I2CMTSendDatah>
	I2CMTSendData(0b00010000);				// Адрес - 0x07	7-OUT	6-0			5-0			4-SQWE		3-0		2-0		1-RS1	0-RS0	(OUT - логика на выходе; SQWE - генератор на выходе; RS1..0 - прескелереры частоты генератора SQWE)
     28c:	80 e1       	ldi	r24, 0x10	; 16
     28e:	0e 94 cc 00 	call	0x198	; 0x198 <_Z13I2CMTSendDatah>
	
	// ===== Выключение I2C =====
	I2CMTStop();							// Стоп от мастера										// Ответ TWSR: 11111 = 0xf8 - No relevant state information	available; TWINT = “0”
     292:	0e 94 d4 00 	call	0x1a8	; 0x1a8 <_Z9I2CMTStopv>
}
     296:	df 91       	pop	r29
     298:	cf 91       	pop	r28
     29a:	08 95       	ret

0000029c <_Z15DS1307_ReadTimePh>:

void DS1307_ReadTime(uint8_t time[])
{
     29c:	cf 93       	push	r28
     29e:	df 93       	push	r29
     2a0:	ec 01       	movw	r28, r24
	// ===== Включение I2C =====
	I2CMTInit();							// Инициализация мастера								// Ответ TWSR: 11111 = 0xf8 - No relevant state information	available; TWINT = “0”
     2a2:	0e 94 b8 00 	call	0x170	; 0x170 <_Z9I2CMTInitv>
	I2CMTStart();							// Задание стартового условия мастером					// Ответ TWSR: 00001 = 0x08 - A START condition has been transmitted
     2a6:	0e 94 bd 00 	call	0x17a	; 0x17a <_Z10I2CMTStartv>
	
	// ===== Начало передачи и передача начального адреса с котрого начнется чтение =====
	I2CMTSendSLA(DS1307_WRITE_ADRESS);		// Передача адреса слэйва								// Ответ TWSR: 00011 = 0x18 - SLA+W has been transmitted;		ACK has been received
     2aa:	80 ed       	ldi	r24, 0xD0	; 208
     2ac:	0e 94 c4 00 	call	0x188	; 0x188 <_Z12I2CMTSendSLAh>
	I2CMTSendData(0x00);					// Передача адреса ячейки с которого начнется чтение	// Ответ TWSR: 00101 = 0x28 - Data byte has been transmitted;	ACK has been received
     2b0:	80 e0       	ldi	r24, 0x00	; 0
     2b2:	0e 94 cc 00 	call	0x198	; 0x198 <_Z13I2CMTSendDatah>
		
	// ===== Чтение данных =====	
	I2CMRStart();							// Повторный старт										// Ответ TWSR: 00010 = 0x10 - A repeated START condition has been transmitted
     2b6:	0e 94 d7 00 	call	0x1ae	; 0x1ae <_Z10I2CMRStartv>
	I2CMTSendSLA(DS1307_READ_ADRESS);		// Отправка адреса слэйва								// Ответ TWSR: 01000 = 0x40 - SLA+R has been transmitted;	ACK has been received
     2ba:	81 ed       	ldi	r24, 0xD1	; 209
     2bc:	0e 94 c4 00 	call	0x188	; 0x188 <_Z12I2CMTSendSLAh>
	time[0] = BinToDec(I2CMRRead());		// Чтение данных с ACK									// Ответ TWSR: 01010 = 0x50 - Data byte has been received;	ACK has been returned
     2c0:	0e 94 de 00 	call	0x1bc	; 0x1bc <_Z9I2CMRReadv>
     2c4:	0e 94 f1 00 	call	0x1e2	; 0x1e2 <_Z8BinToDech>
     2c8:	88 83       	st	Y, r24
	time[1] = BinToDec(I2CMRRead());		// Чтение данных с ACK									// Ответ TWSR: 01010 = 0x50 - Data byte has been received;	ACK has been returned
     2ca:	0e 94 de 00 	call	0x1bc	; 0x1bc <_Z9I2CMRReadv>
     2ce:	0e 94 f1 00 	call	0x1e2	; 0x1e2 <_Z8BinToDech>
     2d2:	89 83       	std	Y+1, r24	; 0x01
	time[2] = BinToDec(I2CMRRead());		// Чтение данных с ACK									// Ответ TWSR: 01010 = 0x50 - Data byte has been received;	ACK has been returned
     2d4:	0e 94 de 00 	call	0x1bc	; 0x1bc <_Z9I2CMRReadv>
     2d8:	0e 94 f1 00 	call	0x1e2	; 0x1e2 <_Z8BinToDech>
     2dc:	8a 83       	std	Y+2, r24	; 0x02
	time[3] = BinToDec(I2CMRRead());		// Чтение данных с ACK									// Ответ TWSR: 01010 = 0x50 - Data byte has been received;	ACK has been returned
     2de:	0e 94 de 00 	call	0x1bc	; 0x1bc <_Z9I2CMRReadv>
     2e2:	0e 94 f1 00 	call	0x1e2	; 0x1e2 <_Z8BinToDech>
     2e6:	8b 83       	std	Y+3, r24	; 0x03
	time[4] = BinToDec(I2CMRRead());		// Чтение данных с ACK									// Ответ TWSR: 01010 = 0x50 - Data byte has been received;	ACK has been returned
     2e8:	0e 94 de 00 	call	0x1bc	; 0x1bc <_Z9I2CMRReadv>
     2ec:	0e 94 f1 00 	call	0x1e2	; 0x1e2 <_Z8BinToDech>
     2f0:	8c 83       	std	Y+4, r24	; 0x04
	time[5] = BinToDec(I2CMRRead());		// Чтение данных с ACK									// Ответ TWSR: 01010 = 0x50 - Data byte has been received;	ACK has been returned
     2f2:	0e 94 de 00 	call	0x1bc	; 0x1bc <_Z9I2CMRReadv>
     2f6:	0e 94 f1 00 	call	0x1e2	; 0x1e2 <_Z8BinToDech>
     2fa:	8d 83       	std	Y+5, r24	; 0x05
	time[6] = BinToDec(I2CMRReadLast());	// Чтение данных С NO ACK								// Ответ TWSR: 01011 = 0x58 - Data byte has been received;	NOT ACK has been returned
     2fc:	0e 94 e6 00 	call	0x1cc	; 0x1cc <_Z13I2CMRReadLastv>
     300:	0e 94 f1 00 	call	0x1e2	; 0x1e2 <_Z8BinToDech>
     304:	8e 83       	std	Y+6, r24	; 0x06
	
	// ===== Выключение I2C =====			
	I2CMRStop();							// Стоп от мастера										// Ответ TWSR: 11111 = 0xf8 - No relevant state information	available; TWINT = “0”		
     306:	0e 94 ee 00 	call	0x1dc	; 0x1dc <_Z9I2CMRStopv>
}
     30a:	df 91       	pop	r29
     30c:	cf 91       	pop	r28
     30e:	08 95       	ret

00000310 <_Z41__static_initialization_and_destruction_0ii>:
		
		intToStr((int)fpart, res + i + 1, afterpoint);
	}
	
	return res;
     310:	cf 92       	push	r12
     312:	df 92       	push	r13
     314:	ef 92       	push	r14
     316:	ff 92       	push	r15
     318:	0f 93       	push	r16
     31a:	1f 93       	push	r17
     31c:	cf 93       	push	r28
     31e:	df 93       	push	r29
     320:	01 97       	sbiw	r24, 0x01	; 1
     322:	09 f0       	breq	.+2      	; 0x326 <_Z41__static_initialization_and_destruction_0ii+0x16>
     324:	c4 c0       	rjmp	.+392    	; 0x4ae <__EEPROM_REGION_LENGTH__+0xae>
     326:	6f 3f       	cpi	r22, 0xFF	; 255
     328:	7f 4f       	sbci	r23, 0xFF	; 255
     32a:	09 f0       	breq	.+2      	; 0x32e <_Z41__static_initialization_and_destruction_0ii+0x1e>
     32c:	c0 c0       	rjmp	.+384    	; 0x4ae <__EEPROM_REGION_LENGTH__+0xae>
	year			= 6
};	

// Массив времени
uint8_t time[7] = {0, 0, 0, 1, 1, 1, 24};	
uint8_t time_temp[3] = {time[second], time[minute], time[hour]};	
     32e:	a8 e6       	ldi	r26, 0x68	; 104
     330:	b0 e0       	ldi	r27, 0x00	; 0
     332:	dc 91       	ld	r29, X
     334:	e6 e0       	ldi	r30, 0x06	; 6
     336:	f6 e0       	ldi	r31, 0x06	; 6
     338:	d0 83       	st	Z, r29
     33a:	11 96       	adiw	r26, 0x01	; 1
     33c:	6c 91       	ld	r22, X
     33e:	11 97       	sbiw	r26, 0x01	; 1
     340:	61 83       	std	Z+1, r22	; 0x01
     342:	12 96       	adiw	r26, 0x02	; 2
     344:	cc 91       	ld	r28, X
     346:	c2 83       	std	Z+2, r28	; 0x02

// Время в десятичном виде (часы)
float time_Dec = (float)time[0] + (float)time[1] / 60.0 + (float)time[2] / 3600.0;
     348:	70 e0       	ldi	r23, 0x00	; 0
     34a:	80 e0       	ldi	r24, 0x00	; 0
     34c:	90 e0       	ldi	r25, 0x00	; 0
     34e:	0e 94 2a 13 	call	0x2654	; 0x2654 <__floatunsisf>
     352:	20 e0       	ldi	r18, 0x00	; 0
     354:	30 e0       	ldi	r19, 0x00	; 0
     356:	40 e7       	ldi	r20, 0x70	; 112
     358:	52 e4       	ldi	r21, 0x42	; 66
     35a:	0e 94 82 12 	call	0x2504	; 0x2504 <__divsf3>
     35e:	6b 01       	movw	r12, r22
     360:	7c 01       	movw	r14, r24
     362:	6d 2f       	mov	r22, r29
     364:	70 e0       	ldi	r23, 0x00	; 0
     366:	80 e0       	ldi	r24, 0x00	; 0
     368:	90 e0       	ldi	r25, 0x00	; 0
     36a:	0e 94 2a 13 	call	0x2654	; 0x2654 <__floatunsisf>
     36e:	a7 01       	movw	r20, r14
     370:	96 01       	movw	r18, r12
     372:	0e 94 11 12 	call	0x2422	; 0x2422 <__addsf3>
     376:	6b 01       	movw	r12, r22
     378:	7c 01       	movw	r14, r24
     37a:	6c 2f       	mov	r22, r28
     37c:	70 e0       	ldi	r23, 0x00	; 0
     37e:	80 e0       	ldi	r24, 0x00	; 0
     380:	90 e0       	ldi	r25, 0x00	; 0
     382:	0e 94 2a 13 	call	0x2654	; 0x2654 <__floatunsisf>
     386:	20 e0       	ldi	r18, 0x00	; 0
     388:	30 e0       	ldi	r19, 0x00	; 0
     38a:	41 e6       	ldi	r20, 0x61	; 97
     38c:	55 e4       	ldi	r21, 0x45	; 69
     38e:	0e 94 82 12 	call	0x2504	; 0x2504 <__divsf3>
     392:	9b 01       	movw	r18, r22
     394:	ac 01       	movw	r20, r24
     396:	c7 01       	movw	r24, r14
     398:	b6 01       	movw	r22, r12
     39a:	0e 94 11 12 	call	0x2422	; 0x2422 <__addsf3>
     39e:	60 93 02 06 	sts	0x0602, r22	; 0x800602 <time_Dec>
     3a2:	70 93 03 06 	sts	0x0603, r23	; 0x800603 <time_Dec+0x1>
     3a6:	80 93 04 06 	sts	0x0604, r24	; 0x800604 <time_Dec+0x2>
     3aa:	90 93 05 06 	sts	0x0605, r25	; 0x800605 <time_Dec+0x3>
};

// Массив расписания в десятичном виде
float time_schedule_Dec[4]=															
{
	(float)time_schedule[0][0] + (float)time_schedule[0][1] / 60.0,
     3ae:	c0 e6       	ldi	r28, 0x60	; 96
     3b0:	d0 e0       	ldi	r29, 0x00	; 0
     3b2:	68 81       	ld	r22, Y
	(float)time_schedule[1][0] + (float)time_schedule[1][1] / 60.0,
	(float)time_schedule[2][0] + (float)time_schedule[2][1] / 60.0,
	(float)time_schedule[3][0] + (float)time_schedule[3][1] / 60.0,
};	
     3b4:	70 e0       	ldi	r23, 0x00	; 0
     3b6:	80 e0       	ldi	r24, 0x00	; 0
     3b8:	90 e0       	ldi	r25, 0x00	; 0
     3ba:	0e 94 2a 13 	call	0x2654	; 0x2654 <__floatunsisf>
     3be:	6b 01       	movw	r12, r22
     3c0:	7c 01       	movw	r14, r24
};

// Массив расписания в десятичном виде
float time_schedule_Dec[4]=															
{
	(float)time_schedule[0][0] + (float)time_schedule[0][1] / 60.0,
     3c2:	69 81       	ldd	r22, Y+1	; 0x01
     3c4:	70 e0       	ldi	r23, 0x00	; 0
     3c6:	80 e0       	ldi	r24, 0x00	; 0
     3c8:	90 e0       	ldi	r25, 0x00	; 0
     3ca:	0e 94 2a 13 	call	0x2654	; 0x2654 <__floatunsisf>
     3ce:	20 e0       	ldi	r18, 0x00	; 0
     3d0:	30 e0       	ldi	r19, 0x00	; 0
     3d2:	40 e7       	ldi	r20, 0x70	; 112
     3d4:	52 e4       	ldi	r21, 0x42	; 66
     3d6:	0e 94 82 12 	call	0x2504	; 0x2504 <__divsf3>
     3da:	9b 01       	movw	r18, r22
     3dc:	ac 01       	movw	r20, r24
     3de:	c7 01       	movw	r24, r14
     3e0:	b6 01       	movw	r22, r12
     3e2:	0e 94 11 12 	call	0x2422	; 0x2422 <__addsf3>
	(float)time_schedule[1][0] + (float)time_schedule[1][1] / 60.0,
	(float)time_schedule[2][0] + (float)time_schedule[2][1] / 60.0,
	(float)time_schedule[3][0] + (float)time_schedule[3][1] / 60.0,
};	
     3e6:	02 ef       	ldi	r16, 0xF2	; 242
     3e8:	15 e0       	ldi	r17, 0x05	; 5
     3ea:	f8 01       	movw	r30, r16
     3ec:	60 83       	st	Z, r22
     3ee:	71 83       	std	Z+1, r23	; 0x01
     3f0:	82 83       	std	Z+2, r24	; 0x02
     3f2:	93 83       	std	Z+3, r25	; 0x03

// Массив расписания в десятичном виде
float time_schedule_Dec[4]=															
{
	(float)time_schedule[0][0] + (float)time_schedule[0][1] / 60.0,
	(float)time_schedule[1][0] + (float)time_schedule[1][1] / 60.0,
     3f4:	6a 81       	ldd	r22, Y+2	; 0x02
	(float)time_schedule[2][0] + (float)time_schedule[2][1] / 60.0,
	(float)time_schedule[3][0] + (float)time_schedule[3][1] / 60.0,
};	
     3f6:	70 e0       	ldi	r23, 0x00	; 0
     3f8:	80 e0       	ldi	r24, 0x00	; 0
     3fa:	90 e0       	ldi	r25, 0x00	; 0
     3fc:	0e 94 2a 13 	call	0x2654	; 0x2654 <__floatunsisf>
     400:	6b 01       	movw	r12, r22
     402:	7c 01       	movw	r14, r24

// Массив расписания в десятичном виде
float time_schedule_Dec[4]=															
{
	(float)time_schedule[0][0] + (float)time_schedule[0][1] / 60.0,
	(float)time_schedule[1][0] + (float)time_schedule[1][1] / 60.0,
     404:	6b 81       	ldd	r22, Y+3	; 0x03
     406:	70 e0       	ldi	r23, 0x00	; 0
     408:	80 e0       	ldi	r24, 0x00	; 0
     40a:	90 e0       	ldi	r25, 0x00	; 0
     40c:	0e 94 2a 13 	call	0x2654	; 0x2654 <__floatunsisf>
     410:	20 e0       	ldi	r18, 0x00	; 0
     412:	30 e0       	ldi	r19, 0x00	; 0
     414:	40 e7       	ldi	r20, 0x70	; 112
     416:	52 e4       	ldi	r21, 0x42	; 66
     418:	0e 94 82 12 	call	0x2504	; 0x2504 <__divsf3>
     41c:	9b 01       	movw	r18, r22
     41e:	ac 01       	movw	r20, r24
     420:	c7 01       	movw	r24, r14
     422:	b6 01       	movw	r22, r12
     424:	0e 94 11 12 	call	0x2422	; 0x2422 <__addsf3>
	(float)time_schedule[2][0] + (float)time_schedule[2][1] / 60.0,
	(float)time_schedule[3][0] + (float)time_schedule[3][1] / 60.0,
};	
     428:	f8 01       	movw	r30, r16
     42a:	64 83       	std	Z+4, r22	; 0x04
     42c:	75 83       	std	Z+5, r23	; 0x05
     42e:	86 83       	std	Z+6, r24	; 0x06
     430:	97 83       	std	Z+7, r25	; 0x07
// Массив расписания в десятичном виде
float time_schedule_Dec[4]=															
{
	(float)time_schedule[0][0] + (float)time_schedule[0][1] / 60.0,
	(float)time_schedule[1][0] + (float)time_schedule[1][1] / 60.0,
	(float)time_schedule[2][0] + (float)time_schedule[2][1] / 60.0,
     432:	6c 81       	ldd	r22, Y+4	; 0x04
	(float)time_schedule[3][0] + (float)time_schedule[3][1] / 60.0,
};	
     434:	70 e0       	ldi	r23, 0x00	; 0
     436:	80 e0       	ldi	r24, 0x00	; 0
     438:	90 e0       	ldi	r25, 0x00	; 0
     43a:	0e 94 2a 13 	call	0x2654	; 0x2654 <__floatunsisf>
     43e:	6b 01       	movw	r12, r22
     440:	7c 01       	movw	r14, r24
// Массив расписания в десятичном виде
float time_schedule_Dec[4]=															
{
	(float)time_schedule[0][0] + (float)time_schedule[0][1] / 60.0,
	(float)time_schedule[1][0] + (float)time_schedule[1][1] / 60.0,
	(float)time_schedule[2][0] + (float)time_schedule[2][1] / 60.0,
     442:	6d 81       	ldd	r22, Y+5	; 0x05
     444:	70 e0       	ldi	r23, 0x00	; 0
     446:	80 e0       	ldi	r24, 0x00	; 0
     448:	90 e0       	ldi	r25, 0x00	; 0
     44a:	0e 94 2a 13 	call	0x2654	; 0x2654 <__floatunsisf>
     44e:	20 e0       	ldi	r18, 0x00	; 0
     450:	30 e0       	ldi	r19, 0x00	; 0
     452:	40 e7       	ldi	r20, 0x70	; 112
     454:	52 e4       	ldi	r21, 0x42	; 66
     456:	0e 94 82 12 	call	0x2504	; 0x2504 <__divsf3>
     45a:	9b 01       	movw	r18, r22
     45c:	ac 01       	movw	r20, r24
     45e:	c7 01       	movw	r24, r14
     460:	b6 01       	movw	r22, r12
     462:	0e 94 11 12 	call	0x2422	; 0x2422 <__addsf3>
	(float)time_schedule[3][0] + (float)time_schedule[3][1] / 60.0,
};	
     466:	f8 01       	movw	r30, r16
     468:	60 87       	std	Z+8, r22	; 0x08
     46a:	71 87       	std	Z+9, r23	; 0x09
     46c:	82 87       	std	Z+10, r24	; 0x0a
     46e:	93 87       	std	Z+11, r25	; 0x0b
float time_schedule_Dec[4]=															
{
	(float)time_schedule[0][0] + (float)time_schedule[0][1] / 60.0,
	(float)time_schedule[1][0] + (float)time_schedule[1][1] / 60.0,
	(float)time_schedule[2][0] + (float)time_schedule[2][1] / 60.0,
	(float)time_schedule[3][0] + (float)time_schedule[3][1] / 60.0,
     470:	6e 81       	ldd	r22, Y+6	; 0x06
};	
     472:	70 e0       	ldi	r23, 0x00	; 0
     474:	80 e0       	ldi	r24, 0x00	; 0
     476:	90 e0       	ldi	r25, 0x00	; 0
     478:	0e 94 2a 13 	call	0x2654	; 0x2654 <__floatunsisf>
     47c:	6b 01       	movw	r12, r22
     47e:	7c 01       	movw	r14, r24
float time_schedule_Dec[4]=															
{
	(float)time_schedule[0][0] + (float)time_schedule[0][1] / 60.0,
	(float)time_schedule[1][0] + (float)time_schedule[1][1] / 60.0,
	(float)time_schedule[2][0] + (float)time_schedule[2][1] / 60.0,
	(float)time_schedule[3][0] + (float)time_schedule[3][1] / 60.0,
     480:	6f 81       	ldd	r22, Y+7	; 0x07
     482:	70 e0       	ldi	r23, 0x00	; 0
     484:	80 e0       	ldi	r24, 0x00	; 0
     486:	90 e0       	ldi	r25, 0x00	; 0
     488:	0e 94 2a 13 	call	0x2654	; 0x2654 <__floatunsisf>
     48c:	20 e0       	ldi	r18, 0x00	; 0
     48e:	30 e0       	ldi	r19, 0x00	; 0
     490:	40 e7       	ldi	r20, 0x70	; 112
     492:	52 e4       	ldi	r21, 0x42	; 66
     494:	0e 94 82 12 	call	0x2504	; 0x2504 <__divsf3>
     498:	9b 01       	movw	r18, r22
     49a:	ac 01       	movw	r20, r24
     49c:	c7 01       	movw	r24, r14
     49e:	b6 01       	movw	r22, r12
     4a0:	0e 94 11 12 	call	0x2422	; 0x2422 <__addsf3>
};	
     4a4:	f8 01       	movw	r30, r16
     4a6:	64 87       	std	Z+12, r22	; 0x0c
     4a8:	75 87       	std	Z+13, r23	; 0x0d
     4aa:	86 87       	std	Z+14, r24	; 0x0e
     4ac:	97 87       	std	Z+15, r25	; 0x0f
		
		intToStr((int)fpart, res + i + 1, afterpoint);
	}
	
	return res;
     4ae:	df 91       	pop	r29
     4b0:	cf 91       	pop	r28
     4b2:	1f 91       	pop	r17
     4b4:	0f 91       	pop	r16
     4b6:	ff 90       	pop	r15
     4b8:	ef 90       	pop	r14
     4ba:	df 90       	pop	r13
     4bc:	cf 90       	pop	r12
     4be:	08 95       	ret

000004c0 <_Z15Buttons_Handlerv>:
void Buttons_Handler(void)
{
	//==============================================================================
	//						Обработка нажатия кнопки инкремента
	//==============================================================================
	if (button == increase)
     4c0:	80 91 0a 06 	lds	r24, 0x060A	; 0x80060a <button>
     4c4:	81 30       	cpi	r24, 0x01	; 1
     4c6:	09 f0       	breq	.+2      	; 0x4ca <_Z15Buttons_Handlerv+0xa>
     4c8:	77 c1       	rjmp	.+750    	; 0x7b8 <_Z15Buttons_Handlerv+0x2f8>
	{
		// Закрытие заявки на обработку
		button = none;
     4ca:	10 92 0a 06 	sts	0x060A, r1	; 0x80060a <button>
		
		switch (mode)
     4ce:	e0 91 09 06 	lds	r30, 0x0609	; 0x800609 <mode>
     4d2:	8e 2f       	mov	r24, r30
     4d4:	90 e0       	ldi	r25, 0x00	; 0
     4d6:	fc 01       	movw	r30, r24
     4d8:	31 97       	sbiw	r30, 0x01	; 1
     4da:	eb 30       	cpi	r30, 0x0B	; 11
     4dc:	f1 05       	cpc	r31, r1
     4de:	08 f0       	brcs	.+2      	; 0x4e2 <_Z15Buttons_Handlerv+0x22>
     4e0:	68 c1       	rjmp	.+720    	; 0x7b2 <_Z15Buttons_Handlerv+0x2f2>
     4e2:	e6 5d       	subi	r30, 0xD6	; 214
     4e4:	ff 4f       	sbci	r31, 0xFF	; 255
     4e6:	0c 94 f6 11 	jmp	0x23ec	; 0x23ec <__tablejump2__>
		{
			// Инкремент секунд
			case setup_second:
				{
					time_temp[second]++;
     4ea:	e6 e0       	ldi	r30, 0x06	; 6
     4ec:	f6 e0       	ldi	r31, 0x06	; 6
     4ee:	80 81       	ld	r24, Z
     4f0:	8f 5f       	subi	r24, 0xFF	; 255
     4f2:	80 83       	st	Z, r24
					
					if (time_temp[second] >= 60)
     4f4:	8c 33       	cpi	r24, 0x3C	; 60
     4f6:	10 f0       	brcs	.+4      	; 0x4fc <_Z15Buttons_Handlerv+0x3c>
					{
						time_temp[second] = 0;
     4f8:	10 92 06 06 	sts	0x0606, r1	; 0x800606 <time_temp>
					}
					
					update_second = true;					
     4fc:	81 e0       	ldi	r24, 0x01	; 1
     4fe:	80 93 79 00 	sts	0x0079, r24	; 0x800079 <update_second>
				}
				break;
     502:	5a c1       	rjmp	.+692    	; 0x7b8 <_Z15Buttons_Handlerv+0x2f8>
			
			// Инкремент минут
			case setup_minute:
				{
					time_temp[minute]++;
     504:	e6 e0       	ldi	r30, 0x06	; 6
     506:	f6 e0       	ldi	r31, 0x06	; 6
     508:	81 81       	ldd	r24, Z+1	; 0x01
     50a:	8f 5f       	subi	r24, 0xFF	; 255
     50c:	81 83       	std	Z+1, r24	; 0x01
					
					if (time_temp[minute] >= 60)
     50e:	8c 33       	cpi	r24, 0x3C	; 60
     510:	10 f0       	brcs	.+4      	; 0x516 <_Z15Buttons_Handlerv+0x56>
					{
						time_temp[minute] = 0;
     512:	10 92 07 06 	sts	0x0607, r1	; 0x800607 <time_temp+0x1>
					}
					
					update_minute = true;
     516:	81 e0       	ldi	r24, 0x01	; 1
     518:	80 93 78 00 	sts	0x0078, r24	; 0x800078 <update_minute>
				}
				break;
     51c:	4d c1       	rjmp	.+666    	; 0x7b8 <_Z15Buttons_Handlerv+0x2f8>
			
			// Инкремент часов
			case setup_hour:
				{
					time_temp[hour]++;
     51e:	e6 e0       	ldi	r30, 0x06	; 6
     520:	f6 e0       	ldi	r31, 0x06	; 6
     522:	82 81       	ldd	r24, Z+2	; 0x02
     524:	8f 5f       	subi	r24, 0xFF	; 255
     526:	82 83       	std	Z+2, r24	; 0x02
					
					if (time_temp[hour] >= 24)
     528:	88 31       	cpi	r24, 0x18	; 24
     52a:	10 f0       	brcs	.+4      	; 0x530 <_Z15Buttons_Handlerv+0x70>
					{
						time_temp[hour] = 0;
     52c:	10 92 08 06 	sts	0x0608, r1	; 0x800608 <time_temp+0x2>
					}
					
					update_hour = true;
     530:	81 e0       	ldi	r24, 0x01	; 1
     532:	80 93 77 00 	sts	0x0077, r24	; 0x800077 <update_hour>
				}
				break;
     536:	40 c1       	rjmp	.+640    	; 0x7b8 <_Z15Buttons_Handlerv+0x2f8>
			//**********************************************************	
			// Инкремент часов рассвета - ГОТОВ - образец
			case setup_hour_sunrise:
			{
			
				if ((time_schedule[0][0] + 1) * 60 + time_schedule[0][1] < time_schedule[1][0] * 60 + time_schedule[1][1])	// Если можно увеличить секунду без перекрытия то сделать это
     538:	e0 e6       	ldi	r30, 0x60	; 96
     53a:	f0 e0       	ldi	r31, 0x00	; 0
     53c:	50 81       	ld	r21, Z
     53e:	85 2f       	mov	r24, r21
     540:	90 e0       	ldi	r25, 0x00	; 0
     542:	01 96       	adiw	r24, 0x01	; 1
     544:	7c e3       	ldi	r23, 0x3C	; 60
     546:	78 9f       	mul	r23, r24
     548:	90 01       	movw	r18, r0
     54a:	79 9f       	mul	r23, r25
     54c:	30 0d       	add	r19, r0
     54e:	11 24       	eor	r1, r1
     550:	81 81       	ldd	r24, Z+1	; 0x01
     552:	28 0f       	add	r18, r24
     554:	31 1d       	adc	r19, r1
     556:	62 81       	ldd	r22, Z+2	; 0x02
     558:	43 81       	ldd	r20, Z+3	; 0x03
     55a:	84 2f       	mov	r24, r20
     55c:	90 e0       	ldi	r25, 0x00	; 0
     55e:	76 9f       	mul	r23, r22
     560:	80 0d       	add	r24, r0
     562:	91 1d       	adc	r25, r1
     564:	11 24       	eor	r1, r1
     566:	28 17       	cp	r18, r24
     568:	39 07       	cpc	r19, r25
     56a:	24 f4       	brge	.+8      	; 0x574 <_Z15Buttons_Handlerv+0xb4>
				{
					time_schedule[0][0]++;
     56c:	5f 5f       	subi	r21, 0xFF	; 255
     56e:	50 93 60 00 	sts	0x0060, r21	; 0x800060 <__DATA_REGION_ORIGIN__>
     572:	0e c0       	rjmp	.+28     	; 0x590 <_Z15Buttons_Handlerv+0xd0>
				}
				else             // а если нельзя то
				{
					time_schedule[0][0] = time_schedule[1][0];			// присвоить часам значение старших часов
     574:	e0 e6       	ldi	r30, 0x60	; 96
     576:	f0 e0       	ldi	r31, 0x00	; 0
     578:	60 83       	st	Z, r22
					time_schedule[0][1] = time_schedule[1][1] - 1;		// присвоить минуте значение старшей минуты но на один меньше
     57a:	41 50       	subi	r20, 0x01	; 1
     57c:	41 83       	std	Z+1, r20	; 0x01
					
					if (time_schedule[0][1] > 59)						// а если так получится что минута меньше 0
     57e:	4c 33       	cpi	r20, 0x3C	; 60
     580:	20 f0       	brcs	.+8      	; 0x58a <_Z15Buttons_Handlerv+0xca>
					{
						time_schedule[0][0]--;							// то часы уменьшить
     582:	61 50       	subi	r22, 0x01	; 1
     584:	60 83       	st	Z, r22
						time_schedule[0][1] = 59;						// а минута 59
     586:	8b e3       	ldi	r24, 0x3B	; 59
     588:	81 83       	std	Z+1, r24	; 0x01
					}
					
					update_minute_sunrise = true;
     58a:	81 e0       	ldi	r24, 0x01	; 1
     58c:	80 93 75 00 	sts	0x0075, r24	; 0x800075 <update_minute_sunrise>
				}
				
				if (time_schedule[0][0] >= 24)
     590:	80 91 60 00 	lds	r24, 0x0060	; 0x800060 <__DATA_REGION_ORIGIN__>
     594:	88 31       	cpi	r24, 0x18	; 24
     596:	18 f0       	brcs	.+6      	; 0x59e <_Z15Buttons_Handlerv+0xde>
				{
					time_schedule[0][0] = 23;
     598:	87 e1       	ldi	r24, 0x17	; 23
     59a:	80 93 60 00 	sts	0x0060, r24	; 0x800060 <__DATA_REGION_ORIGIN__>
				}
				
				update_hour_sunrise = true;
     59e:	81 e0       	ldi	r24, 0x01	; 1
     5a0:	80 93 76 00 	sts	0x0076, r24	; 0x800076 <update_hour_sunrise>
				}
				break;
     5a4:	09 c1       	rjmp	.+530    	; 0x7b8 <_Z15Buttons_Handlerv+0x2f8>
			
			// Инкремент минут рассвета - ГОТОВ - образец
			case setup_minute_sunrise:
			{
				if (time_schedule[0][0] * 60 + time_schedule[0][1] + 2 <= time_schedule[1][0] * 60 + time_schedule[1][1])
     5a6:	e0 e6       	ldi	r30, 0x60	; 96
     5a8:	f0 e0       	ldi	r31, 0x00	; 0
     5aa:	80 81       	ld	r24, Z
     5ac:	5c e3       	ldi	r21, 0x3C	; 60
     5ae:	41 81       	ldd	r20, Z+1	; 0x01
     5b0:	24 2f       	mov	r18, r20
     5b2:	30 e0       	ldi	r19, 0x00	; 0
     5b4:	58 9f       	mul	r21, r24
     5b6:	20 0d       	add	r18, r0
     5b8:	31 1d       	adc	r19, r1
     5ba:	11 24       	eor	r1, r1
     5bc:	2e 5f       	subi	r18, 0xFE	; 254
     5be:	3f 4f       	sbci	r19, 0xFF	; 255
     5c0:	62 81       	ldd	r22, Z+2	; 0x02
     5c2:	83 81       	ldd	r24, Z+3	; 0x03
     5c4:	90 e0       	ldi	r25, 0x00	; 0
     5c6:	56 9f       	mul	r21, r22
     5c8:	80 0d       	add	r24, r0
     5ca:	91 1d       	adc	r25, r1
     5cc:	11 24       	eor	r1, r1
     5ce:	82 17       	cp	r24, r18
     5d0:	93 07       	cpc	r25, r19
     5d2:	1c f0       	brlt	.+6      	; 0x5da <_Z15Buttons_Handlerv+0x11a>
				{
					time_schedule[0][1]++;
     5d4:	4f 5f       	subi	r20, 0xFF	; 255
     5d6:	40 93 61 00 	sts	0x0061, r20	; 0x800061 <__DATA_REGION_ORIGIN__+0x1>
				}
				
				if (time_schedule[0][1] >= 60)
     5da:	80 91 61 00 	lds	r24, 0x0061	; 0x800061 <__DATA_REGION_ORIGIN__+0x1>
     5de:	8c 33       	cpi	r24, 0x3C	; 60
     5e0:	30 f0       	brcs	.+12     	; 0x5ee <_Z15Buttons_Handlerv+0x12e>
				{
					//time_schedule[0][0]++;
					time_schedule[0][1] = 59;
     5e2:	8b e3       	ldi	r24, 0x3B	; 59
     5e4:	80 93 61 00 	sts	0x0061, r24	; 0x800061 <__DATA_REGION_ORIGIN__+0x1>
					
					update_hour_sunrise = true;
     5e8:	81 e0       	ldi	r24, 0x01	; 1
     5ea:	80 93 76 00 	sts	0x0076, r24	; 0x800076 <update_hour_sunrise>
				}
				
				update_minute_sunrise = true;
     5ee:	81 e0       	ldi	r24, 0x01	; 1
     5f0:	80 93 75 00 	sts	0x0075, r24	; 0x800075 <update_minute_sunrise>
				}
				break;	
     5f4:	e1 c0       	rjmp	.+450    	; 0x7b8 <_Z15Buttons_Handlerv+0x2f8>
			
			// Инкремент часов дня - ГОТОВ
			case setup_hour_day:
			{	
				if ((time_schedule[1][0] + 1) * 60 + time_schedule[1][1] < time_schedule[2][0] * 60 + time_schedule[2][1])
     5f6:	e0 e6       	ldi	r30, 0x60	; 96
     5f8:	f0 e0       	ldi	r31, 0x00	; 0
     5fa:	52 81       	ldd	r21, Z+2	; 0x02
     5fc:	85 2f       	mov	r24, r21
     5fe:	90 e0       	ldi	r25, 0x00	; 0
     600:	01 96       	adiw	r24, 0x01	; 1
     602:	7c e3       	ldi	r23, 0x3C	; 60
     604:	78 9f       	mul	r23, r24
     606:	90 01       	movw	r18, r0
     608:	79 9f       	mul	r23, r25
     60a:	30 0d       	add	r19, r0
     60c:	11 24       	eor	r1, r1
     60e:	83 81       	ldd	r24, Z+3	; 0x03
     610:	28 0f       	add	r18, r24
     612:	31 1d       	adc	r19, r1
     614:	64 81       	ldd	r22, Z+4	; 0x04
     616:	45 81       	ldd	r20, Z+5	; 0x05
     618:	84 2f       	mov	r24, r20
     61a:	90 e0       	ldi	r25, 0x00	; 0
     61c:	76 9f       	mul	r23, r22
     61e:	80 0d       	add	r24, r0
     620:	91 1d       	adc	r25, r1
     622:	11 24       	eor	r1, r1
     624:	28 17       	cp	r18, r24
     626:	39 07       	cpc	r19, r25
     628:	24 f4       	brge	.+8      	; 0x632 <_Z15Buttons_Handlerv+0x172>
				{
					time_schedule[1][0]++;
     62a:	5f 5f       	subi	r21, 0xFF	; 255
     62c:	50 93 62 00 	sts	0x0062, r21	; 0x800062 <__DATA_REGION_ORIGIN__+0x2>
     630:	0e c0       	rjmp	.+28     	; 0x64e <_Z15Buttons_Handlerv+0x18e>
				}
				else
				{
					time_schedule[1][0] = time_schedule[2][0];
     632:	e0 e6       	ldi	r30, 0x60	; 96
     634:	f0 e0       	ldi	r31, 0x00	; 0
     636:	62 83       	std	Z+2, r22	; 0x02
					time_schedule[1][1] = time_schedule[2][1] - 1;
     638:	41 50       	subi	r20, 0x01	; 1
     63a:	43 83       	std	Z+3, r20	; 0x03
					
					if (time_schedule[1][1] > 59)
     63c:	4c 33       	cpi	r20, 0x3C	; 60
     63e:	20 f0       	brcs	.+8      	; 0x648 <_Z15Buttons_Handlerv+0x188>
					{
						time_schedule[1][0]--;
     640:	61 50       	subi	r22, 0x01	; 1
     642:	62 83       	std	Z+2, r22	; 0x02
						time_schedule[1][1] = 59;
     644:	8b e3       	ldi	r24, 0x3B	; 59
     646:	83 83       	std	Z+3, r24	; 0x03
					}
					
					update_minute_day = true;
     648:	81 e0       	ldi	r24, 0x01	; 1
     64a:	80 93 73 00 	sts	0x0073, r24	; 0x800073 <update_minute_day>
				}
				
				if (time_schedule[1][0] >= 24)
     64e:	80 91 62 00 	lds	r24, 0x0062	; 0x800062 <__DATA_REGION_ORIGIN__+0x2>
     652:	88 31       	cpi	r24, 0x18	; 24
     654:	18 f0       	brcs	.+6      	; 0x65c <_Z15Buttons_Handlerv+0x19c>
				{
					time_schedule[1][0] = 23;
     656:	87 e1       	ldi	r24, 0x17	; 23
     658:	80 93 62 00 	sts	0x0062, r24	; 0x800062 <__DATA_REGION_ORIGIN__+0x2>
				}
				
				update_hour_day = true;
     65c:	81 e0       	ldi	r24, 0x01	; 1
     65e:	80 93 74 00 	sts	0x0074, r24	; 0x800074 <update_hour_day>
				}
				break;
     662:	aa c0       	rjmp	.+340    	; 0x7b8 <_Z15Buttons_Handlerv+0x2f8>
			
			// Инкремент минут дня - ГОТОВ
			case setup_minute_day:
			{
				if (time_schedule[1][0] * 60 + time_schedule[1][1] + 2 <= time_schedule[2][0] * 60 + time_schedule[2][1])
     664:	e0 e6       	ldi	r30, 0x60	; 96
     666:	f0 e0       	ldi	r31, 0x00	; 0
     668:	82 81       	ldd	r24, Z+2	; 0x02
     66a:	5c e3       	ldi	r21, 0x3C	; 60
     66c:	43 81       	ldd	r20, Z+3	; 0x03
     66e:	24 2f       	mov	r18, r20
     670:	30 e0       	ldi	r19, 0x00	; 0
     672:	58 9f       	mul	r21, r24
     674:	20 0d       	add	r18, r0
     676:	31 1d       	adc	r19, r1
     678:	11 24       	eor	r1, r1
     67a:	2e 5f       	subi	r18, 0xFE	; 254
     67c:	3f 4f       	sbci	r19, 0xFF	; 255
     67e:	64 81       	ldd	r22, Z+4	; 0x04
     680:	85 81       	ldd	r24, Z+5	; 0x05
     682:	90 e0       	ldi	r25, 0x00	; 0
     684:	56 9f       	mul	r21, r22
     686:	80 0d       	add	r24, r0
     688:	91 1d       	adc	r25, r1
     68a:	11 24       	eor	r1, r1
     68c:	82 17       	cp	r24, r18
     68e:	93 07       	cpc	r25, r19
     690:	1c f0       	brlt	.+6      	; 0x698 <_Z15Buttons_Handlerv+0x1d8>
				{
					time_schedule[1][1]++;
     692:	4f 5f       	subi	r20, 0xFF	; 255
     694:	40 93 63 00 	sts	0x0063, r20	; 0x800063 <__DATA_REGION_ORIGIN__+0x3>
				}
				
				if (time_schedule[1][1] >= 60)
     698:	80 91 63 00 	lds	r24, 0x0063	; 0x800063 <__DATA_REGION_ORIGIN__+0x3>
     69c:	8c 33       	cpi	r24, 0x3C	; 60
     69e:	30 f0       	brcs	.+12     	; 0x6ac <_Z15Buttons_Handlerv+0x1ec>
				{
					//time_schedule[1][0]++;
					time_schedule[1][1] = 59;
     6a0:	8b e3       	ldi	r24, 0x3B	; 59
     6a2:	80 93 63 00 	sts	0x0063, r24	; 0x800063 <__DATA_REGION_ORIGIN__+0x3>
					
					update_hour_day = true;
     6a6:	81 e0       	ldi	r24, 0x01	; 1
     6a8:	80 93 74 00 	sts	0x0074, r24	; 0x800074 <update_hour_day>
				}
				
				update_minute_day = true;
     6ac:	81 e0       	ldi	r24, 0x01	; 1
     6ae:	80 93 73 00 	sts	0x0073, r24	; 0x800073 <update_minute_day>
				
				}
				break;
     6b2:	82 c0       	rjmp	.+260    	; 0x7b8 <_Z15Buttons_Handlerv+0x2f8>
			
			// Инкремент часов заката - ГОТОВ
			case setup_hour_sunset:
			{		
				if ((time_schedule[2][0] + 1) * 60 + time_schedule[2][1] < time_schedule[3][0] * 60 + time_schedule[3][1])
     6b4:	e0 e6       	ldi	r30, 0x60	; 96
     6b6:	f0 e0       	ldi	r31, 0x00	; 0
     6b8:	54 81       	ldd	r21, Z+4	; 0x04
     6ba:	85 2f       	mov	r24, r21
     6bc:	90 e0       	ldi	r25, 0x00	; 0
     6be:	01 96       	adiw	r24, 0x01	; 1
     6c0:	7c e3       	ldi	r23, 0x3C	; 60
     6c2:	78 9f       	mul	r23, r24
     6c4:	90 01       	movw	r18, r0
     6c6:	79 9f       	mul	r23, r25
     6c8:	30 0d       	add	r19, r0
     6ca:	11 24       	eor	r1, r1
     6cc:	85 81       	ldd	r24, Z+5	; 0x05
     6ce:	28 0f       	add	r18, r24
     6d0:	31 1d       	adc	r19, r1
     6d2:	66 81       	ldd	r22, Z+6	; 0x06
     6d4:	47 81       	ldd	r20, Z+7	; 0x07
     6d6:	84 2f       	mov	r24, r20
     6d8:	90 e0       	ldi	r25, 0x00	; 0
     6da:	76 9f       	mul	r23, r22
     6dc:	80 0d       	add	r24, r0
     6de:	91 1d       	adc	r25, r1
     6e0:	11 24       	eor	r1, r1
     6e2:	28 17       	cp	r18, r24
     6e4:	39 07       	cpc	r19, r25
     6e6:	24 f4       	brge	.+8      	; 0x6f0 <_Z15Buttons_Handlerv+0x230>
				{
					time_schedule[2][0]++;
     6e8:	5f 5f       	subi	r21, 0xFF	; 255
     6ea:	50 93 64 00 	sts	0x0064, r21	; 0x800064 <__DATA_REGION_ORIGIN__+0x4>
     6ee:	0e c0       	rjmp	.+28     	; 0x70c <_Z15Buttons_Handlerv+0x24c>
				}
				else
				{
					time_schedule[2][0] = time_schedule[3][0];
     6f0:	e0 e6       	ldi	r30, 0x60	; 96
     6f2:	f0 e0       	ldi	r31, 0x00	; 0
     6f4:	64 83       	std	Z+4, r22	; 0x04
					time_schedule[2][1] = time_schedule[3][1] - 1;
     6f6:	41 50       	subi	r20, 0x01	; 1
     6f8:	45 83       	std	Z+5, r20	; 0x05
					
					if (time_schedule[2][1] > 59)
     6fa:	4c 33       	cpi	r20, 0x3C	; 60
     6fc:	20 f0       	brcs	.+8      	; 0x706 <_Z15Buttons_Handlerv+0x246>
					{
						time_schedule[2][0]--;
     6fe:	61 50       	subi	r22, 0x01	; 1
     700:	64 83       	std	Z+4, r22	; 0x04
						time_schedule[2][1] = 59;
     702:	8b e3       	ldi	r24, 0x3B	; 59
     704:	85 83       	std	Z+5, r24	; 0x05
					}
					
					update_minute_sunset = true;
     706:	81 e0       	ldi	r24, 0x01	; 1
     708:	80 93 71 00 	sts	0x0071, r24	; 0x800071 <update_minute_sunset>
				}
				
				if (time_schedule[2][0] >= 24)
     70c:	80 91 64 00 	lds	r24, 0x0064	; 0x800064 <__DATA_REGION_ORIGIN__+0x4>
     710:	88 31       	cpi	r24, 0x18	; 24
     712:	18 f0       	brcs	.+6      	; 0x71a <_Z15Buttons_Handlerv+0x25a>
				{
					time_schedule[2][0] = 23;
     714:	87 e1       	ldi	r24, 0x17	; 23
     716:	80 93 64 00 	sts	0x0064, r24	; 0x800064 <__DATA_REGION_ORIGIN__+0x4>
				}
				
				update_hour_sunset = true;
     71a:	81 e0       	ldi	r24, 0x01	; 1
     71c:	80 93 72 00 	sts	0x0072, r24	; 0x800072 <update_hour_sunset>
				}
				break;
     720:	4b c0       	rjmp	.+150    	; 0x7b8 <_Z15Buttons_Handlerv+0x2f8>
			
			// Инкремент минут заката - ГОТОВ
			case setup_minute_sunset:
			{
				if (time_schedule[2][0] * 60 + time_schedule[2][1] + 2 <= time_schedule[3][0] * 60 + time_schedule[3][1])
     722:	e0 e6       	ldi	r30, 0x60	; 96
     724:	f0 e0       	ldi	r31, 0x00	; 0
     726:	84 81       	ldd	r24, Z+4	; 0x04
     728:	5c e3       	ldi	r21, 0x3C	; 60
     72a:	45 81       	ldd	r20, Z+5	; 0x05
     72c:	24 2f       	mov	r18, r20
     72e:	30 e0       	ldi	r19, 0x00	; 0
     730:	58 9f       	mul	r21, r24
     732:	20 0d       	add	r18, r0
     734:	31 1d       	adc	r19, r1
     736:	11 24       	eor	r1, r1
     738:	2e 5f       	subi	r18, 0xFE	; 254
     73a:	3f 4f       	sbci	r19, 0xFF	; 255
     73c:	66 81       	ldd	r22, Z+6	; 0x06
     73e:	87 81       	ldd	r24, Z+7	; 0x07
     740:	90 e0       	ldi	r25, 0x00	; 0
     742:	56 9f       	mul	r21, r22
     744:	80 0d       	add	r24, r0
     746:	91 1d       	adc	r25, r1
     748:	11 24       	eor	r1, r1
     74a:	82 17       	cp	r24, r18
     74c:	93 07       	cpc	r25, r19
     74e:	1c f0       	brlt	.+6      	; 0x756 <_Z15Buttons_Handlerv+0x296>
				{
					time_schedule[2][1]++;
     750:	4f 5f       	subi	r20, 0xFF	; 255
     752:	40 93 65 00 	sts	0x0065, r20	; 0x800065 <__DATA_REGION_ORIGIN__+0x5>
				}
				
				if (time_schedule[2][1] >= 60)
     756:	80 91 65 00 	lds	r24, 0x0065	; 0x800065 <__DATA_REGION_ORIGIN__+0x5>
     75a:	8c 33       	cpi	r24, 0x3C	; 60
     75c:	30 f0       	brcs	.+12     	; 0x76a <_Z15Buttons_Handlerv+0x2aa>
				{
					//time_schedule[2][0]++;
					time_schedule[2][1] = 59;
     75e:	8b e3       	ldi	r24, 0x3B	; 59
     760:	80 93 65 00 	sts	0x0065, r24	; 0x800065 <__DATA_REGION_ORIGIN__+0x5>
					
					update_hour_sunset = true;
     764:	81 e0       	ldi	r24, 0x01	; 1
     766:	80 93 72 00 	sts	0x0072, r24	; 0x800072 <update_hour_sunset>
				}
				
				update_minute_sunset = true;
     76a:	81 e0       	ldi	r24, 0x01	; 1
     76c:	80 93 71 00 	sts	0x0071, r24	; 0x800071 <update_minute_sunset>
				
				}
				break;
     770:	23 c0       	rjmp	.+70     	; 0x7b8 <_Z15Buttons_Handlerv+0x2f8>
			
			// Инкремент часов ночи - ГОТОВ
			case setup_hour_night:
			{
						
				time_schedule[3][0]++;
     772:	e0 e6       	ldi	r30, 0x60	; 96
     774:	f0 e0       	ldi	r31, 0x00	; 0
     776:	86 81       	ldd	r24, Z+6	; 0x06
     778:	8f 5f       	subi	r24, 0xFF	; 255
     77a:	86 83       	std	Z+6, r24	; 0x06
				
				if (time_schedule[3][0] >= 24)
     77c:	88 31       	cpi	r24, 0x18	; 24
     77e:	38 f0       	brcs	.+14     	; 0x78e <_Z15Buttons_Handlerv+0x2ce>
				{
					time_schedule[3][0] = 23;
     780:	87 e1       	ldi	r24, 0x17	; 23
     782:	86 83       	std	Z+6, r24	; 0x06
					time_schedule[3][1] = 59;
     784:	8b e3       	ldi	r24, 0x3B	; 59
     786:	87 83       	std	Z+7, r24	; 0x07
					update_minute_night = true;
     788:	81 e0       	ldi	r24, 0x01	; 1
     78a:	80 93 6f 00 	sts	0x006F, r24	; 0x80006f <update_minute_night>
				}
				
				update_hour_night = true;
     78e:	81 e0       	ldi	r24, 0x01	; 1
     790:	80 93 70 00 	sts	0x0070, r24	; 0x800070 <update_hour_night>
				
				}
				break;
     794:	11 c0       	rjmp	.+34     	; 0x7b8 <_Z15Buttons_Handlerv+0x2f8>
			
			// Инкремент минут ночи - ГОТОВ
			case setup_minute_night:
			{
				// Без ограничений
				time_schedule[3][1]++;				// Прибавить минуты..
     796:	e0 e6       	ldi	r30, 0x60	; 96
     798:	f0 e0       	ldi	r31, 0x00	; 0
     79a:	87 81       	ldd	r24, Z+7	; 0x07
     79c:	8f 5f       	subi	r24, 0xFF	; 255
     79e:	87 83       	std	Z+7, r24	; 0x07
					
				if (time_schedule[3][1] >= 60)		// а если минут оказалось больше 60..
     7a0:	8c 33       	cpi	r24, 0x3C	; 60
     7a2:	18 f0       	brcs	.+6      	; 0x7aa <_Z15Buttons_Handlerv+0x2ea>
				{
					time_schedule[3][1] = 59;		// то сделать 59 минут..
     7a4:	8b e3       	ldi	r24, 0x3B	; 59
     7a6:	80 93 67 00 	sts	0x0067, r24	; 0x800067 <__DATA_REGION_ORIGIN__+0x7>
						update_hour_night = true;	// и обновить их на экране
					}
					*/
				}
				
				update_minute_night = true;			// Обновить минуты
     7aa:	81 e0       	ldi	r24, 0x01	; 1
     7ac:	80 93 6f 00 	sts	0x006F, r24	; 0x80006f <update_minute_night>
				}
				break;
     7b0:	03 c0       	rjmp	.+6      	; 0x7b8 <_Z15Buttons_Handlerv+0x2f8>
				
			default:
			{
				mode = normal_work;
     7b2:	10 92 09 06 	sts	0x0609, r1	; 0x800609 <mode>
				return;
     7b6:	08 95       	ret
	}
		
	//==============================================================================
	//						Обработка нажатия кнопки декремента
	//==============================================================================
	if (button == decrease)
     7b8:	80 91 0a 06 	lds	r24, 0x060A	; 0x80060a <button>
     7bc:	82 30       	cpi	r24, 0x02	; 2
     7be:	09 f0       	breq	.+2      	; 0x7c2 <_Z15Buttons_Handlerv+0x302>
     7c0:	62 c1       	rjmp	.+708    	; 0xa86 <__stack+0x227>
	{
		// Закрытие заявки на обработку
		button = none;
     7c2:	10 92 0a 06 	sts	0x060A, r1	; 0x80060a <button>
		
		switch (mode)
     7c6:	e0 91 09 06 	lds	r30, 0x0609	; 0x800609 <mode>
     7ca:	8e 2f       	mov	r24, r30
     7cc:	90 e0       	ldi	r25, 0x00	; 0
     7ce:	fc 01       	movw	r30, r24
     7d0:	31 97       	sbiw	r30, 0x01	; 1
     7d2:	eb 30       	cpi	r30, 0x0B	; 11
     7d4:	f1 05       	cpc	r31, r1
     7d6:	08 f0       	brcs	.+2      	; 0x7da <_Z15Buttons_Handlerv+0x31a>
     7d8:	53 c1       	rjmp	.+678    	; 0xa80 <__stack+0x221>
     7da:	eb 5c       	subi	r30, 0xCB	; 203
     7dc:	ff 4f       	sbci	r31, 0xFF	; 255
     7de:	0c 94 f6 11 	jmp	0x23ec	; 0x23ec <__tablejump2__>
		{
			// Декремент секунд
			case setup_second:
				{
					time_temp[second]--;
     7e2:	e6 e0       	ldi	r30, 0x06	; 6
     7e4:	f6 e0       	ldi	r31, 0x06	; 6
     7e6:	80 81       	ld	r24, Z
     7e8:	81 50       	subi	r24, 0x01	; 1
     7ea:	80 83       	st	Z, r24
					
					if (time_temp[second] >= 60)
     7ec:	8c 33       	cpi	r24, 0x3C	; 60
     7ee:	18 f0       	brcs	.+6      	; 0x7f6 <_Z15Buttons_Handlerv+0x336>
					{
						time_temp[second] = 59;
     7f0:	8b e3       	ldi	r24, 0x3B	; 59
     7f2:	80 93 06 06 	sts	0x0606, r24	; 0x800606 <time_temp>
					}
					
					update_second = true;
     7f6:	81 e0       	ldi	r24, 0x01	; 1
     7f8:	80 93 79 00 	sts	0x0079, r24	; 0x800079 <update_second>
				}
				break;
     7fc:	44 c1       	rjmp	.+648    	; 0xa86 <__stack+0x227>
			
			// Декремент минут
			case setup_minute:
				{
					time_temp[minute]--;
     7fe:	e6 e0       	ldi	r30, 0x06	; 6
     800:	f6 e0       	ldi	r31, 0x06	; 6
     802:	81 81       	ldd	r24, Z+1	; 0x01
     804:	81 50       	subi	r24, 0x01	; 1
     806:	81 83       	std	Z+1, r24	; 0x01
				
					if (time_temp[minute] >= 60)
     808:	8c 33       	cpi	r24, 0x3C	; 60
     80a:	18 f0       	brcs	.+6      	; 0x812 <__DATA_REGION_LENGTH__+0x12>
					{
						time_temp[minute] = 59;
     80c:	8b e3       	ldi	r24, 0x3B	; 59
     80e:	80 93 07 06 	sts	0x0607, r24	; 0x800607 <time_temp+0x1>
					}
					
					update_minute = true;
     812:	81 e0       	ldi	r24, 0x01	; 1
     814:	80 93 78 00 	sts	0x0078, r24	; 0x800078 <update_minute>
				
				}
				break;
     818:	36 c1       	rjmp	.+620    	; 0xa86 <__stack+0x227>
			
			// Декремент часов
			case setup_hour:
				{
					time_temp[hour]--;
     81a:	e6 e0       	ldi	r30, 0x06	; 6
     81c:	f6 e0       	ldi	r31, 0x06	; 6
     81e:	82 81       	ldd	r24, Z+2	; 0x02
     820:	81 50       	subi	r24, 0x01	; 1
     822:	82 83       	std	Z+2, r24	; 0x02
					
					if (time_temp[hour] >= 24)
     824:	88 31       	cpi	r24, 0x18	; 24
     826:	18 f0       	brcs	.+6      	; 0x82e <__DATA_REGION_LENGTH__+0x2e>
					{
						time_temp[hour] = 23;
     828:	87 e1       	ldi	r24, 0x17	; 23
     82a:	80 93 08 06 	sts	0x0608, r24	; 0x800608 <time_temp+0x2>
					}
					
					update_hour = true;
     82e:	81 e0       	ldi	r24, 0x01	; 1
     830:	80 93 77 00 	sts	0x0077, r24	; 0x800077 <update_hour>
				}
				break;
     834:	28 c1       	rjmp	.+592    	; 0xa86 <__stack+0x227>
			//**********************************************************	
			// Декремент часов рассвета - ГОТОВО
			case setup_hour_sunrise:
			{
				// Уменьшение без ограничений
				time_schedule[0][0]--;				// Уменьшить часы
     836:	e0 e6       	ldi	r30, 0x60	; 96
     838:	f0 e0       	ldi	r31, 0x00	; 0
     83a:	80 81       	ld	r24, Z
     83c:	81 50       	subi	r24, 0x01	; 1
     83e:	80 83       	st	Z, r24
				
				if (time_schedule[0][0] >= 24)		// Если часы меньше 0 (нет, тут нет ошибки! все правильно)
     840:	88 31       	cpi	r24, 0x18	; 24
     842:	28 f0       	brcs	.+10     	; 0x84e <__DATA_REGION_LENGTH__+0x4e>
				{
					time_schedule[0][0] = 0;		// то вернуть ноль
     844:	10 82       	st	Z, r1
					time_schedule[0][1] = 0;		// и минуты сделать нулём
     846:	11 82       	std	Z+1, r1	; 0x01
					
					update_minute_sunrise = true;	// обновить минуты
     848:	81 e0       	ldi	r24, 0x01	; 1
     84a:	80 93 75 00 	sts	0x0075, r24	; 0x800075 <update_minute_sunrise>
				}
				
				update_hour_sunrise = true;			// обновить часы
     84e:	81 e0       	ldi	r24, 0x01	; 1
     850:	80 93 76 00 	sts	0x0076, r24	; 0x800076 <update_hour_sunrise>
				}
				break;
     854:	18 c1       	rjmp	.+560    	; 0xa86 <__stack+0x227>
			
			// Декремент минут рассвета - ГОТОВ
			case setup_minute_sunrise:
			{
				
				if (time_schedule[0][1] != 0)
     856:	80 91 61 00 	lds	r24, 0x0061	; 0x800061 <__DATA_REGION_ORIGIN__+0x1>
     85a:	88 23       	and	r24, r24
     85c:	19 f0       	breq	.+6      	; 0x864 <__stack+0x5>
				{
					time_schedule[0][1]--;				// Уменьшить минуты
     85e:	81 50       	subi	r24, 0x01	; 1
     860:	80 93 61 00 	sts	0x0061, r24	; 0x800061 <__DATA_REGION_ORIGIN__+0x1>
				}
				
				if (time_schedule[0][1] >= 60)		// Если минуты меньше нуля
     864:	80 91 61 00 	lds	r24, 0x0061	; 0x800061 <__DATA_REGION_ORIGIN__+0x1>
     868:	8c 33       	cpi	r24, 0x3C	; 60
     86a:	68 f0       	brcs	.+26     	; 0x886 <__stack+0x27>
				{
					time_schedule[0][1] = 59;		// то сделать минуты 59
     86c:	e0 e6       	ldi	r30, 0x60	; 96
     86e:	f0 e0       	ldi	r31, 0x00	; 0
     870:	8b e3       	ldi	r24, 0x3B	; 59
     872:	81 83       	std	Z+1, r24	; 0x01
					
					if (time_schedule[0][0] > 0)
     874:	80 81       	ld	r24, Z
     876:	88 23       	and	r24, r24
     878:	31 f0       	breq	.+12     	; 0x886 <__stack+0x27>
					{
						time_schedule[0][1] = 0;
     87a:	11 82       	std	Z+1, r1	; 0x01
						time_schedule[0][0]--;			// и уменьшить час
     87c:	81 50       	subi	r24, 0x01	; 1
     87e:	80 83       	st	Z, r24
						update_hour_sunrise = true;
     880:	81 e0       	ldi	r24, 0x01	; 1
     882:	80 93 76 00 	sts	0x0076, r24	; 0x800076 <update_hour_sunrise>
					}
				}
				
				update_minute_sunrise = true;
     886:	81 e0       	ldi	r24, 0x01	; 1
     888:	80 93 75 00 	sts	0x0075, r24	; 0x800075 <update_minute_sunrise>
				}
				break;	
     88c:	fc c0       	rjmp	.+504    	; 0xa86 <__stack+0x227>
			
			// Декремент часов дня - ГОТОВ - образец
			case setup_hour_day:
			{
				
				if ((time_schedule[1][0] - 1) * 60 + time_schedule[1][1] > time_schedule[0][0] * 60 + time_schedule[0][1])
     88e:	e0 e6       	ldi	r30, 0x60	; 96
     890:	f0 e0       	ldi	r31, 0x00	; 0
     892:	62 81       	ldd	r22, Z+2	; 0x02
     894:	86 2f       	mov	r24, r22
     896:	90 e0       	ldi	r25, 0x00	; 0
     898:	01 97       	sbiw	r24, 0x01	; 1
     89a:	7c e3       	ldi	r23, 0x3C	; 60
     89c:	78 9f       	mul	r23, r24
     89e:	a0 01       	movw	r20, r0
     8a0:	79 9f       	mul	r23, r25
     8a2:	50 0d       	add	r21, r0
     8a4:	11 24       	eor	r1, r1
     8a6:	83 81       	ldd	r24, Z+3	; 0x03
     8a8:	48 0f       	add	r20, r24
     8aa:	51 1d       	adc	r21, r1
     8ac:	90 81       	ld	r25, Z
     8ae:	81 81       	ldd	r24, Z+1	; 0x01
     8b0:	28 2f       	mov	r18, r24
     8b2:	30 e0       	ldi	r19, 0x00	; 0
     8b4:	79 9f       	mul	r23, r25
     8b6:	20 0d       	add	r18, r0
     8b8:	31 1d       	adc	r19, r1
     8ba:	11 24       	eor	r1, r1
     8bc:	24 17       	cp	r18, r20
     8be:	35 07       	cpc	r19, r21
     8c0:	24 f4       	brge	.+8      	; 0x8ca <__stack+0x6b>
				{
					time_schedule[1][0]--;
     8c2:	61 50       	subi	r22, 0x01	; 1
     8c4:	60 93 62 00 	sts	0x0062, r22	; 0x800062 <__DATA_REGION_ORIGIN__+0x2>
     8c8:	0d c0       	rjmp	.+26     	; 0x8e4 <__stack+0x85>
				}
				else
				{
					time_schedule[1][0] = time_schedule[0][0];
     8ca:	e0 e6       	ldi	r30, 0x60	; 96
     8cc:	f0 e0       	ldi	r31, 0x00	; 0
     8ce:	92 83       	std	Z+2, r25	; 0x02
					time_schedule[1][1] = time_schedule[0][1] + 1;
     8d0:	8f 5f       	subi	r24, 0xFF	; 255
     8d2:	83 83       	std	Z+3, r24	; 0x03
					
					if (time_schedule[1][1] >= 60)
     8d4:	8c 33       	cpi	r24, 0x3C	; 60
     8d6:	18 f0       	brcs	.+6      	; 0x8de <__stack+0x7f>
					{
						time_schedule[1][0]++;
     8d8:	9f 5f       	subi	r25, 0xFF	; 255
     8da:	92 83       	std	Z+2, r25	; 0x02
						time_schedule[1][1] = 0;	
     8dc:	13 82       	std	Z+3, r1	; 0x03
					}
					
					update_minute_day = true;
     8de:	81 e0       	ldi	r24, 0x01	; 1
     8e0:	80 93 73 00 	sts	0x0073, r24	; 0x800073 <update_minute_day>
				}
				
				update_hour_day = true;
     8e4:	81 e0       	ldi	r24, 0x01	; 1
     8e6:	80 93 74 00 	sts	0x0074, r24	; 0x800074 <update_hour_day>
				}
				break;
     8ea:	cd c0       	rjmp	.+410    	; 0xa86 <__stack+0x227>
			
			// Декремент минут дня
			case setup_minute_day:
			{
				if ((time_schedule[1][0]) * 60 + time_schedule[1][1] - 1 > time_schedule[0][0] * 60 + time_schedule[0][1])
     8ec:	e0 e6       	ldi	r30, 0x60	; 96
     8ee:	f0 e0       	ldi	r31, 0x00	; 0
     8f0:	82 81       	ldd	r24, Z+2	; 0x02
     8f2:	5c e3       	ldi	r21, 0x3C	; 60
     8f4:	43 81       	ldd	r20, Z+3	; 0x03
     8f6:	24 2f       	mov	r18, r20
     8f8:	30 e0       	ldi	r19, 0x00	; 0
     8fa:	58 9f       	mul	r21, r24
     8fc:	20 0d       	add	r18, r0
     8fe:	31 1d       	adc	r19, r1
     900:	11 24       	eor	r1, r1
     902:	21 50       	subi	r18, 0x01	; 1
     904:	31 09       	sbc	r19, r1
     906:	60 81       	ld	r22, Z
     908:	81 81       	ldd	r24, Z+1	; 0x01
     90a:	90 e0       	ldi	r25, 0x00	; 0
     90c:	56 9f       	mul	r21, r22
     90e:	80 0d       	add	r24, r0
     910:	91 1d       	adc	r25, r1
     912:	11 24       	eor	r1, r1
     914:	82 17       	cp	r24, r18
     916:	93 07       	cpc	r25, r19
     918:	1c f4       	brge	.+6      	; 0x920 <__stack+0xc1>
				{
					time_schedule[1][1]--;
     91a:	41 50       	subi	r20, 0x01	; 1
     91c:	40 93 63 00 	sts	0x0063, r20	; 0x800063 <__DATA_REGION_ORIGIN__+0x3>
				}
				
				if (time_schedule[1][1] >= 60)
     920:	80 91 63 00 	lds	r24, 0x0063	; 0x800063 <__DATA_REGION_ORIGIN__+0x3>
     924:	8c 33       	cpi	r24, 0x3C	; 60
     926:	10 f0       	brcs	.+4      	; 0x92c <__stack+0xcd>
				{
					time_schedule[1][1] = 0;
     928:	10 92 63 00 	sts	0x0063, r1	; 0x800063 <__DATA_REGION_ORIGIN__+0x3>
				}
				
				update_minute_day = true;
     92c:	81 e0       	ldi	r24, 0x01	; 1
     92e:	80 93 73 00 	sts	0x0073, r24	; 0x800073 <update_minute_day>
				}
				break;
     932:	a9 c0       	rjmp	.+338    	; 0xa86 <__stack+0x227>
			
			// Декремент часов заката - ГОТОВ
			case setup_hour_sunset:
			{
				if ((time_schedule[2][0] - 1) * 60 + time_schedule[2][1] > time_schedule[1][0] * 60 + time_schedule[1][1])
     934:	e0 e6       	ldi	r30, 0x60	; 96
     936:	f0 e0       	ldi	r31, 0x00	; 0
     938:	64 81       	ldd	r22, Z+4	; 0x04
     93a:	86 2f       	mov	r24, r22
     93c:	90 e0       	ldi	r25, 0x00	; 0
     93e:	01 97       	sbiw	r24, 0x01	; 1
     940:	7c e3       	ldi	r23, 0x3C	; 60
     942:	78 9f       	mul	r23, r24
     944:	a0 01       	movw	r20, r0
     946:	79 9f       	mul	r23, r25
     948:	50 0d       	add	r21, r0
     94a:	11 24       	eor	r1, r1
     94c:	85 81       	ldd	r24, Z+5	; 0x05
     94e:	48 0f       	add	r20, r24
     950:	51 1d       	adc	r21, r1
     952:	92 81       	ldd	r25, Z+2	; 0x02
     954:	83 81       	ldd	r24, Z+3	; 0x03
     956:	28 2f       	mov	r18, r24
     958:	30 e0       	ldi	r19, 0x00	; 0
     95a:	79 9f       	mul	r23, r25
     95c:	20 0d       	add	r18, r0
     95e:	31 1d       	adc	r19, r1
     960:	11 24       	eor	r1, r1
     962:	24 17       	cp	r18, r20
     964:	35 07       	cpc	r19, r21
     966:	24 f4       	brge	.+8      	; 0x970 <__stack+0x111>
				{
					time_schedule[2][0]--;
     968:	61 50       	subi	r22, 0x01	; 1
     96a:	60 93 64 00 	sts	0x0064, r22	; 0x800064 <__DATA_REGION_ORIGIN__+0x4>
     96e:	0d c0       	rjmp	.+26     	; 0x98a <__stack+0x12b>
				}
				else
				{
					time_schedule[2][0] = time_schedule[1][0];
     970:	e0 e6       	ldi	r30, 0x60	; 96
     972:	f0 e0       	ldi	r31, 0x00	; 0
     974:	94 83       	std	Z+4, r25	; 0x04
					time_schedule[2][1] = time_schedule[1][1] + 1;
     976:	8f 5f       	subi	r24, 0xFF	; 255
     978:	85 83       	std	Z+5, r24	; 0x05
					
					if (time_schedule[2][1] >= 60)
     97a:	8c 33       	cpi	r24, 0x3C	; 60
     97c:	18 f0       	brcs	.+6      	; 0x984 <__stack+0x125>
					{
						time_schedule[2][0]++;
     97e:	9f 5f       	subi	r25, 0xFF	; 255
     980:	94 83       	std	Z+4, r25	; 0x04
						time_schedule[2][1] = 0;
     982:	15 82       	std	Z+5, r1	; 0x05
					}
					
					update_minute_sunset = true;
     984:	81 e0       	ldi	r24, 0x01	; 1
     986:	80 93 71 00 	sts	0x0071, r24	; 0x800071 <update_minute_sunset>
				}
				
				update_hour_sunset = true;
     98a:	81 e0       	ldi	r24, 0x01	; 1
     98c:	80 93 72 00 	sts	0x0072, r24	; 0x800072 <update_hour_sunset>
			}
			break;
     990:	7a c0       	rjmp	.+244    	; 0xa86 <__stack+0x227>
			
			// Декремент минут заката
			case setup_minute_sunset:
			{
				if ((time_schedule[2][0]) * 60 + time_schedule[2][1] - 1 > time_schedule[1][0] * 60 + time_schedule[1][1])
     992:	e0 e6       	ldi	r30, 0x60	; 96
     994:	f0 e0       	ldi	r31, 0x00	; 0
     996:	84 81       	ldd	r24, Z+4	; 0x04
     998:	5c e3       	ldi	r21, 0x3C	; 60
     99a:	45 81       	ldd	r20, Z+5	; 0x05
     99c:	24 2f       	mov	r18, r20
     99e:	30 e0       	ldi	r19, 0x00	; 0
     9a0:	58 9f       	mul	r21, r24
     9a2:	20 0d       	add	r18, r0
     9a4:	31 1d       	adc	r19, r1
     9a6:	11 24       	eor	r1, r1
     9a8:	21 50       	subi	r18, 0x01	; 1
     9aa:	31 09       	sbc	r19, r1
     9ac:	62 81       	ldd	r22, Z+2	; 0x02
     9ae:	83 81       	ldd	r24, Z+3	; 0x03
     9b0:	90 e0       	ldi	r25, 0x00	; 0
     9b2:	56 9f       	mul	r21, r22
     9b4:	80 0d       	add	r24, r0
     9b6:	91 1d       	adc	r25, r1
     9b8:	11 24       	eor	r1, r1
     9ba:	82 17       	cp	r24, r18
     9bc:	93 07       	cpc	r25, r19
     9be:	1c f4       	brge	.+6      	; 0x9c6 <__stack+0x167>
				{
					time_schedule[2][1]--;
     9c0:	41 50       	subi	r20, 0x01	; 1
     9c2:	40 93 65 00 	sts	0x0065, r20	; 0x800065 <__DATA_REGION_ORIGIN__+0x5>
				}
				
				if (time_schedule[2][1] >= 60)
     9c6:	80 91 65 00 	lds	r24, 0x0065	; 0x800065 <__DATA_REGION_ORIGIN__+0x5>
     9ca:	8c 33       	cpi	r24, 0x3C	; 60
     9cc:	10 f0       	brcs	.+4      	; 0x9d2 <__stack+0x173>
				{
					time_schedule[2][1] = 0;
     9ce:	10 92 65 00 	sts	0x0065, r1	; 0x800065 <__DATA_REGION_ORIGIN__+0x5>
				}
				
				update_minute_sunset = true;
     9d2:	81 e0       	ldi	r24, 0x01	; 1
     9d4:	80 93 71 00 	sts	0x0071, r24	; 0x800071 <update_minute_sunset>
				}
				break;
     9d8:	56 c0       	rjmp	.+172    	; 0xa86 <__stack+0x227>
			
			// Декремент часов ночи - ГОТОВ
			case setup_hour_night:
			{
				if ((time_schedule[3][0] - 1) * 60 + time_schedule[3][1] > time_schedule[2][0] * 60 + time_schedule[2][1])
     9da:	e0 e6       	ldi	r30, 0x60	; 96
     9dc:	f0 e0       	ldi	r31, 0x00	; 0
     9de:	66 81       	ldd	r22, Z+6	; 0x06
     9e0:	86 2f       	mov	r24, r22
     9e2:	90 e0       	ldi	r25, 0x00	; 0
     9e4:	01 97       	sbiw	r24, 0x01	; 1
     9e6:	7c e3       	ldi	r23, 0x3C	; 60
     9e8:	78 9f       	mul	r23, r24
     9ea:	a0 01       	movw	r20, r0
     9ec:	79 9f       	mul	r23, r25
     9ee:	50 0d       	add	r21, r0
     9f0:	11 24       	eor	r1, r1
     9f2:	87 81       	ldd	r24, Z+7	; 0x07
     9f4:	48 0f       	add	r20, r24
     9f6:	51 1d       	adc	r21, r1
     9f8:	94 81       	ldd	r25, Z+4	; 0x04
     9fa:	85 81       	ldd	r24, Z+5	; 0x05
     9fc:	28 2f       	mov	r18, r24
     9fe:	30 e0       	ldi	r19, 0x00	; 0
     a00:	79 9f       	mul	r23, r25
     a02:	20 0d       	add	r18, r0
     a04:	31 1d       	adc	r19, r1
     a06:	11 24       	eor	r1, r1
     a08:	24 17       	cp	r18, r20
     a0a:	35 07       	cpc	r19, r21
     a0c:	24 f4       	brge	.+8      	; 0xa16 <__stack+0x1b7>
				{
					time_schedule[3][0]--;
     a0e:	61 50       	subi	r22, 0x01	; 1
     a10:	60 93 66 00 	sts	0x0066, r22	; 0x800066 <__DATA_REGION_ORIGIN__+0x6>
     a14:	0d c0       	rjmp	.+26     	; 0xa30 <__stack+0x1d1>
				}
				else
				{
					time_schedule[3][0] = time_schedule[2][0];
     a16:	e0 e6       	ldi	r30, 0x60	; 96
     a18:	f0 e0       	ldi	r31, 0x00	; 0
     a1a:	96 83       	std	Z+6, r25	; 0x06
					time_schedule[3][1] = time_schedule[2][1] + 1;
     a1c:	8f 5f       	subi	r24, 0xFF	; 255
     a1e:	87 83       	std	Z+7, r24	; 0x07
					
					if (time_schedule[3][1] >= 60)
     a20:	8c 33       	cpi	r24, 0x3C	; 60
     a22:	18 f0       	brcs	.+6      	; 0xa2a <__stack+0x1cb>
					{
						time_schedule[3][0]++;
     a24:	9f 5f       	subi	r25, 0xFF	; 255
     a26:	96 83       	std	Z+6, r25	; 0x06
						time_schedule[3][1] = 0;
     a28:	17 82       	std	Z+7, r1	; 0x07
					}
					
					update_minute_night = true;
     a2a:	81 e0       	ldi	r24, 0x01	; 1
     a2c:	80 93 6f 00 	sts	0x006F, r24	; 0x80006f <update_minute_night>
				}
				
				update_hour_night = true;
     a30:	81 e0       	ldi	r24, 0x01	; 1
     a32:	80 93 70 00 	sts	0x0070, r24	; 0x800070 <update_hour_night>
			}
			break;
     a36:	27 c0       	rjmp	.+78     	; 0xa86 <__stack+0x227>
			
			// Декремент минут ночи
			case setup_minute_night:
			{
				if ((time_schedule[3][0]) * 60 + time_schedule[3][1] - 1 > time_schedule[2][0] * 60 + time_schedule[2][1])
     a38:	e0 e6       	ldi	r30, 0x60	; 96
     a3a:	f0 e0       	ldi	r31, 0x00	; 0
     a3c:	86 81       	ldd	r24, Z+6	; 0x06
     a3e:	5c e3       	ldi	r21, 0x3C	; 60
     a40:	47 81       	ldd	r20, Z+7	; 0x07
     a42:	24 2f       	mov	r18, r20
     a44:	30 e0       	ldi	r19, 0x00	; 0
     a46:	58 9f       	mul	r21, r24
     a48:	20 0d       	add	r18, r0
     a4a:	31 1d       	adc	r19, r1
     a4c:	11 24       	eor	r1, r1
     a4e:	21 50       	subi	r18, 0x01	; 1
     a50:	31 09       	sbc	r19, r1
     a52:	64 81       	ldd	r22, Z+4	; 0x04
     a54:	85 81       	ldd	r24, Z+5	; 0x05
     a56:	90 e0       	ldi	r25, 0x00	; 0
     a58:	56 9f       	mul	r21, r22
     a5a:	80 0d       	add	r24, r0
     a5c:	91 1d       	adc	r25, r1
     a5e:	11 24       	eor	r1, r1
     a60:	82 17       	cp	r24, r18
     a62:	93 07       	cpc	r25, r19
     a64:	1c f4       	brge	.+6      	; 0xa6c <__stack+0x20d>
				{
					time_schedule[3][1]--;
     a66:	41 50       	subi	r20, 0x01	; 1
     a68:	40 93 67 00 	sts	0x0067, r20	; 0x800067 <__DATA_REGION_ORIGIN__+0x7>
				}
				
				if (time_schedule[3][1] >= 60)
     a6c:	80 91 67 00 	lds	r24, 0x0067	; 0x800067 <__DATA_REGION_ORIGIN__+0x7>
     a70:	8c 33       	cpi	r24, 0x3C	; 60
     a72:	10 f0       	brcs	.+4      	; 0xa78 <__stack+0x219>
				{
					time_schedule[3][1] = 0;
     a74:	10 92 67 00 	sts	0x0067, r1	; 0x800067 <__DATA_REGION_ORIGIN__+0x7>
				}
				
				update_minute_night = true;
     a78:	81 e0       	ldi	r24, 0x01	; 1
     a7a:	80 93 6f 00 	sts	0x006F, r24	; 0x80006f <update_minute_night>
				}
				break;	
     a7e:	03 c0       	rjmp	.+6      	; 0xa86 <__stack+0x227>
				
				
			default:
				{
					mode = normal_work;
     a80:	10 92 09 06 	sts	0x0609, r1	; 0x800609 <mode>
					return;
     a84:	08 95       	ret
	
	
	//==============================================================================
	//						Обработка нажатия кнопки часов
	//==============================================================================
	if (button == clock)
     a86:	80 91 0a 06 	lds	r24, 0x060A	; 0x80060a <button>
     a8a:	83 30       	cpi	r24, 0x03	; 3
     a8c:	09 f0       	breq	.+2      	; 0xa90 <__stack+0x231>
     a8e:	6c c0       	rjmp	.+216    	; 0xb68 <__stack+0x309>
	{
		// Проверка
		if (mode == setup_hour_sunrise	|| mode == setup_minute_sunrise	||
			mode == setup_hour_day		|| mode == setup_minute_day		||
			mode == setup_hour_sunset	|| mode == setup_minute_sunset	||
			mode == setup_hour_night	|| mode == setup_minute_night	) return;
     a90:	80 91 09 06 	lds	r24, 0x0609	; 0x800609 <mode>
     a94:	9c ef       	ldi	r25, 0xFC	; 252
     a96:	98 0f       	add	r25, r24
	//						Обработка нажатия кнопки часов
	//==============================================================================
	if (button == clock)
	{
		// Проверка
		if (mode == setup_hour_sunrise	|| mode == setup_minute_sunrise	||
     a98:	98 30       	cpi	r25, 0x08	; 8
     a9a:	08 f4       	brcc	.+2      	; 0xa9e <__stack+0x23f>
     a9c:	e4 c0       	rjmp	.+456    	; 0xc66 <__stack+0x407>
			mode == setup_hour_day		|| mode == setup_minute_day		||
			mode == setup_hour_sunset	|| mode == setup_minute_sunset	||
			mode == setup_hour_night	|| mode == setup_minute_night	) return;
		
		// Закрытие заявки на обработку
		button = none;
     a9e:	10 92 0a 06 	sts	0x060A, r1	; 0x80060a <button>
		
		switch (mode)
     aa2:	81 30       	cpi	r24, 0x01	; 1
     aa4:	f9 f0       	breq	.+62     	; 0xae4 <__stack+0x285>
     aa6:	28 f0       	brcs	.+10     	; 0xab2 <__stack+0x253>
     aa8:	82 30       	cpi	r24, 0x02	; 2
     aaa:	29 f1       	breq	.+74     	; 0xaf6 <__stack+0x297>
     aac:	83 30       	cpi	r24, 0x03	; 3
     aae:	61 f1       	breq	.+88     	; 0xb08 <__stack+0x2a9>
     ab0:	58 c0       	rjmp	.+176    	; 0xb62 <__stack+0x303>
		{
			// Переключение на настройку секунд
			case normal_work:
				{
					mode = setup_second;
     ab2:	81 e0       	ldi	r24, 0x01	; 1
     ab4:	80 93 09 06 	sts	0x0609, r24	; 0x800609 <mode>
										
					update_second = true;
     ab8:	80 93 79 00 	sts	0x0079, r24	; 0x800079 <update_second>
					update_clock = true;
     abc:	80 93 0c 06 	sts	0x060C, r24	; 0x80060c <update_clock>
					update_word = true;
     ac0:	80 93 7a 00 	sts	0x007A, r24	; 0x80007a <update_word>
			
					for (int i = 0; i < 3; i++)
     ac4:	80 e0       	ldi	r24, 0x00	; 0
     ac6:	90 e0       	ldi	r25, 0x00	; 0
     ac8:	83 30       	cpi	r24, 0x03	; 3
     aca:	91 05       	cpc	r25, r1
     acc:	0c f0       	brlt	.+2      	; 0xad0 <__stack+0x271>
     ace:	4c c0       	rjmp	.+152    	; 0xb68 <__stack+0x309>
					{
						time_temp[i] = time[i];
     ad0:	fc 01       	movw	r30, r24
     ad2:	e8 59       	subi	r30, 0x98	; 152
     ad4:	ff 4f       	sbci	r31, 0xFF	; 255
     ad6:	20 81       	ld	r18, Z
     ad8:	fc 01       	movw	r30, r24
     ada:	ea 5f       	subi	r30, 0xFA	; 250
     adc:	f9 4f       	sbci	r31, 0xF9	; 249
     ade:	20 83       	st	Z, r18
										
					update_second = true;
					update_clock = true;
					update_word = true;
			
					for (int i = 0; i < 3; i++)
     ae0:	01 96       	adiw	r24, 0x01	; 1
     ae2:	f2 cf       	rjmp	.-28     	; 0xac8 <__stack+0x269>
				break;
			
			// Переключение на настройку минут
			case setup_second:
				{
					mode = setup_minute;
     ae4:	82 e0       	ldi	r24, 0x02	; 2
     ae6:	80 93 09 06 	sts	0x0609, r24	; 0x800609 <mode>
					
					update_minute = true;
     aea:	81 e0       	ldi	r24, 0x01	; 1
     aec:	80 93 78 00 	sts	0x0078, r24	; 0x800078 <update_minute>
					update_clock = true;
     af0:	80 93 0c 06 	sts	0x060C, r24	; 0x80060c <update_clock>
				}
				break;
     af4:	39 c0       	rjmp	.+114    	; 0xb68 <__stack+0x309>
			
			// Переключение на настройку часов
			case setup_minute:
				{
					mode = setup_hour;
     af6:	83 e0       	ldi	r24, 0x03	; 3
     af8:	80 93 09 06 	sts	0x0609, r24	; 0x800609 <mode>
					update_hour = true;
     afc:	81 e0       	ldi	r24, 0x01	; 1
     afe:	80 93 77 00 	sts	0x0077, r24	; 0x800077 <update_hour>
					update_clock = true;
     b02:	80 93 0c 06 	sts	0x060C, r24	; 0x80060c <update_clock>
				}
				break;
     b06:	30 c0       	rjmp	.+96     	; 0xb68 <__stack+0x309>
			
			// Переключение на обычный режим
			case setup_hour:
				{
					mode = normal_work;
     b08:	10 92 09 06 	sts	0x0609, r1	; 0x800609 <mode>
					
					update_schedule			= true;
     b0c:	81 e0       	ldi	r24, 0x01	; 1
     b0e:	80 93 0b 06 	sts	0x060B, r24	; 0x80060b <update_schedule>
					update_hour_sunrise		= true;
     b12:	80 93 76 00 	sts	0x0076, r24	; 0x800076 <update_hour_sunrise>
					update_hour_day			= true;
     b16:	80 93 74 00 	sts	0x0074, r24	; 0x800074 <update_hour_day>
					update_hour_sunset		= true;
     b1a:	80 93 72 00 	sts	0x0072, r24	; 0x800072 <update_hour_sunset>
					update_hour_night		= true;
     b1e:	80 93 70 00 	sts	0x0070, r24	; 0x800070 <update_hour_night>
					update_minute_sunrise	= true;
     b22:	80 93 75 00 	sts	0x0075, r24	; 0x800075 <update_minute_sunrise>
					update_minute_day		= true;
     b26:	80 93 73 00 	sts	0x0073, r24	; 0x800073 <update_minute_day>
					update_minute_sunset	= true;
     b2a:	80 93 71 00 	sts	0x0071, r24	; 0x800071 <update_minute_sunset>
					update_minute_night		= true;
     b2e:	80 93 6f 00 	sts	0x006F, r24	; 0x80006f <update_minute_night>
					update_word				= true;
     b32:	80 93 7a 00 	sts	0x007A, r24	; 0x80007a <update_word>
					update_all				= true;
     b36:	80 93 7b 00 	sts	0x007B, r24	; 0x80007b <update_all>
					
					for (int i = 0; i < 3; i++)
     b3a:	80 e0       	ldi	r24, 0x00	; 0
     b3c:	90 e0       	ldi	r25, 0x00	; 0
     b3e:	83 30       	cpi	r24, 0x03	; 3
     b40:	91 05       	cpc	r25, r1
     b42:	54 f4       	brge	.+20     	; 0xb58 <__stack+0x2f9>
					{
						time[i] = time_temp[i];
     b44:	fc 01       	movw	r30, r24
     b46:	ea 5f       	subi	r30, 0xFA	; 250
     b48:	f9 4f       	sbci	r31, 0xF9	; 249
     b4a:	20 81       	ld	r18, Z
     b4c:	fc 01       	movw	r30, r24
     b4e:	e8 59       	subi	r30, 0x98	; 152
     b50:	ff 4f       	sbci	r31, 0xFF	; 255
     b52:	20 83       	st	Z, r18
					update_minute_sunset	= true;
					update_minute_night		= true;
					update_word				= true;
					update_all				= true;
					
					for (int i = 0; i < 3; i++)
     b54:	01 96       	adiw	r24, 0x01	; 1
     b56:	f3 cf       	rjmp	.-26     	; 0xb3e <__stack+0x2df>
					{
						time[i] = time_temp[i];
					}
					
					DS1307_WriteTime(time);
     b58:	88 e6       	ldi	r24, 0x68	; 104
     b5a:	90 e0       	ldi	r25, 0x00	; 0
     b5c:	0e 94 16 01 	call	0x22c	; 0x22c <_Z16DS1307_WriteTimePh>
				}
				break;
     b60:	03 c0       	rjmp	.+6      	; 0xb68 <__stack+0x309>
				
				
				
			default:
				{
					mode = normal_work;
     b62:	10 92 09 06 	sts	0x0609, r1	; 0x800609 <mode>
					return;
     b66:	08 95       	ret
	}	
	
	//==============================================================================
	//						Обработка нажатия кнопки расписания
	//==============================================================================
	if (button == schedule)
     b68:	80 91 0a 06 	lds	r24, 0x060A	; 0x80060a <button>
     b6c:	84 30       	cpi	r24, 0x04	; 4
     b6e:	09 f0       	breq	.+2      	; 0xb72 <__stack+0x313>
     b70:	7a c0       	rjmp	.+244    	; 0xc66 <__stack+0x407>
	{	
		// Проверка
		if (mode == setup_second || mode == setup_minute || mode == setup_hour) return;
     b72:	e0 91 09 06 	lds	r30, 0x0609	; 0x800609 <mode>
     b76:	8f ef       	ldi	r24, 0xFF	; 255
     b78:	8e 0f       	add	r24, r30
     b7a:	83 30       	cpi	r24, 0x03	; 3
     b7c:	08 f4       	brcc	.+2      	; 0xb80 <__stack+0x321>
     b7e:	73 c0       	rjmp	.+230    	; 0xc66 <__stack+0x407>

		// Закрытие заявки на обработку
		button = none;
     b80:	10 92 0a 06 	sts	0x060A, r1	; 0x80060a <button>
		
		switch (mode)
     b84:	8e 2f       	mov	r24, r30
     b86:	90 e0       	ldi	r25, 0x00	; 0
     b88:	8c 30       	cpi	r24, 0x0C	; 12
     b8a:	91 05       	cpc	r25, r1
     b8c:	08 f0       	brcs	.+2      	; 0xb90 <__stack+0x331>
     b8e:	69 c0       	rjmp	.+210    	; 0xc62 <__stack+0x403>
     b90:	fc 01       	movw	r30, r24
     b92:	e0 5c       	subi	r30, 0xC0	; 192
     b94:	ff 4f       	sbci	r31, 0xFF	; 255
     b96:	0c 94 f6 11 	jmp	0x23ec	; 0x23ec <__tablejump2__>
		{
			// Переключение на настройку часов-рассвета
			case normal_work:
				{
					mode = setup_hour_sunrise;
     b9a:	84 e0       	ldi	r24, 0x04	; 4
     b9c:	80 93 09 06 	sts	0x0609, r24	; 0x800609 <mode>
					
					update_schedule = true;
     ba0:	81 e0       	ldi	r24, 0x01	; 1
     ba2:	80 93 0b 06 	sts	0x060B, r24	; 0x80060b <update_schedule>
					update_hour_sunrise = true;
     ba6:	80 93 76 00 	sts	0x0076, r24	; 0x800076 <update_hour_sunrise>
					update_word = true;
     baa:	80 93 7a 00 	sts	0x007A, r24	; 0x80007a <update_word>
				}
				break;
     bae:	08 95       	ret
				
			// Переключение на настройку минут-рассвета
			case setup_hour_sunrise:
				{
					mode = setup_minute_sunrise;
     bb0:	85 e0       	ldi	r24, 0x05	; 5
     bb2:	80 93 09 06 	sts	0x0609, r24	; 0x800609 <mode>
					
					update_schedule = true;
     bb6:	81 e0       	ldi	r24, 0x01	; 1
     bb8:	80 93 0b 06 	sts	0x060B, r24	; 0x80060b <update_schedule>
					update_minute_sunrise = true;
     bbc:	80 93 75 00 	sts	0x0075, r24	; 0x800075 <update_minute_sunrise>
				}
				break;	
     bc0:	08 95       	ret
				
			// Переключение на настройку часов-дня
			case setup_minute_sunrise:
				{
					mode = setup_hour_day;
     bc2:	86 e0       	ldi	r24, 0x06	; 6
     bc4:	80 93 09 06 	sts	0x0609, r24	; 0x800609 <mode>
					
					update_schedule = true;
     bc8:	81 e0       	ldi	r24, 0x01	; 1
     bca:	80 93 0b 06 	sts	0x060B, r24	; 0x80060b <update_schedule>
					update_hour_day = true;
     bce:	80 93 74 00 	sts	0x0074, r24	; 0x800074 <update_hour_day>
				}
				break;	
     bd2:	08 95       	ret
				
			// Переключение на настройку минут-дня
			case setup_hour_day:
				{
					mode = setup_minute_day;
     bd4:	87 e0       	ldi	r24, 0x07	; 7
     bd6:	80 93 09 06 	sts	0x0609, r24	; 0x800609 <mode>
					
					update_schedule = true;
     bda:	81 e0       	ldi	r24, 0x01	; 1
     bdc:	80 93 0b 06 	sts	0x060B, r24	; 0x80060b <update_schedule>
					update_minute_day = true;
     be0:	80 93 73 00 	sts	0x0073, r24	; 0x800073 <update_minute_day>
				}
				break;	
     be4:	08 95       	ret
				
			// Переключение на настройку часов-заката
			case setup_minute_day:
				{
					mode = setup_hour_sunset;
     be6:	88 e0       	ldi	r24, 0x08	; 8
     be8:	80 93 09 06 	sts	0x0609, r24	; 0x800609 <mode>
					
					update_schedule = true;
     bec:	81 e0       	ldi	r24, 0x01	; 1
     bee:	80 93 0b 06 	sts	0x060B, r24	; 0x80060b <update_schedule>
					update_hour_sunset = true;
     bf2:	80 93 72 00 	sts	0x0072, r24	; 0x800072 <update_hour_sunset>
				}
				break;
     bf6:	08 95       	ret
			
			// Переключение на настройку минут-заката
			case setup_hour_sunset:
				{
					mode = setup_minute_sunset;
     bf8:	89 e0       	ldi	r24, 0x09	; 9
     bfa:	80 93 09 06 	sts	0x0609, r24	; 0x800609 <mode>
					
					update_schedule = true;
     bfe:	81 e0       	ldi	r24, 0x01	; 1
     c00:	80 93 0b 06 	sts	0x060B, r24	; 0x80060b <update_schedule>
					update_minute_sunset = true;
     c04:	80 93 71 00 	sts	0x0071, r24	; 0x800071 <update_minute_sunset>
				}
				break;	
     c08:	08 95       	ret
				
			// Переключение на настройку часов-ночи
				case setup_minute_sunset:
				{
					mode = setup_hour_night;
     c0a:	8a e0       	ldi	r24, 0x0A	; 10
     c0c:	80 93 09 06 	sts	0x0609, r24	; 0x800609 <mode>
					
					update_schedule = true;
     c10:	81 e0       	ldi	r24, 0x01	; 1
     c12:	80 93 0b 06 	sts	0x060B, r24	; 0x80060b <update_schedule>
					update_hour_night = true;
     c16:	80 93 70 00 	sts	0x0070, r24	; 0x800070 <update_hour_night>
				}
				break;
     c1a:	08 95       	ret
			
			// Переключение на настройку минут-заката
			case setup_hour_night:
				{
					mode = setup_minute_night;
     c1c:	8b e0       	ldi	r24, 0x0B	; 11
     c1e:	80 93 09 06 	sts	0x0609, r24	; 0x800609 <mode>
					
					update_schedule = true;
     c22:	81 e0       	ldi	r24, 0x01	; 1
     c24:	80 93 0b 06 	sts	0x060B, r24	; 0x80060b <update_schedule>
					update_minute_night = true;
     c28:	80 93 6f 00 	sts	0x006F, r24	; 0x80006f <update_minute_night>
				}
				break;
     c2c:	08 95       	ret
				
			// Переключение на обычный режим										// TODO - добавить функцию записи в EEPROM!
			case setup_minute_night:
				{
					mode = normal_work;
     c2e:	10 92 09 06 	sts	0x0609, r1	; 0x800609 <mode>
					
					update_schedule			= true;
     c32:	81 e0       	ldi	r24, 0x01	; 1
     c34:	80 93 0b 06 	sts	0x060B, r24	; 0x80060b <update_schedule>
					update_hour_sunrise		= true;
     c38:	80 93 76 00 	sts	0x0076, r24	; 0x800076 <update_hour_sunrise>
					update_hour_day			= true;
     c3c:	80 93 74 00 	sts	0x0074, r24	; 0x800074 <update_hour_day>
					update_hour_sunset		= true;
     c40:	80 93 72 00 	sts	0x0072, r24	; 0x800072 <update_hour_sunset>
					update_hour_night		= true;
     c44:	80 93 70 00 	sts	0x0070, r24	; 0x800070 <update_hour_night>
					update_minute_sunrise	= true;
     c48:	80 93 75 00 	sts	0x0075, r24	; 0x800075 <update_minute_sunrise>
					update_minute_day		= true;
     c4c:	80 93 73 00 	sts	0x0073, r24	; 0x800073 <update_minute_day>
					update_minute_sunset	= true;
     c50:	80 93 71 00 	sts	0x0071, r24	; 0x800071 <update_minute_sunset>
					update_minute_night		= true;
     c54:	80 93 6f 00 	sts	0x006F, r24	; 0x80006f <update_minute_night>
					update_word				= true;	
     c58:	80 93 7a 00 	sts	0x007A, r24	; 0x80007a <update_word>
					update_all				= true;
     c5c:	80 93 7b 00 	sts	0x007B, r24	; 0x80007b <update_all>
					//функция_записи_в_EEPROM!(time_schedule);
					
				}
				break;
     c60:	08 95       	ret
				
			default:
				{
					mode = normal_work;
     c62:	10 92 09 06 	sts	0x0609, r1	; 0x800609 <mode>
     c66:	08 95       	ret

00000c68 <_Z10Setup_TIM0v>:
}

void Setup_TIM0(void)
{
	//////////// Таймер 0 (8 бит) PWM ////////////
	OCR0  |= 0;			// Скважность - Значение сравнения f = fcpu/(N*256) = 7372800/256 = 28800 || = 14745600/256 = 57600 | 248 -> 97.1% | 249 -> 97.5% | 250 -> 97.9% | 251 -> 98.3% | 252 -> 98.7%  | *по расчету надо 97,5 - 98,6%
     c68:	8c b7       	in	r24, 0x3c	; 60
     c6a:	8c bf       	out	0x3c, r24	; 60
	TCCR0 |= (0 << FOC0)|(1  << WGM01)|(1 << WGM00)|(1 << COM01)|(0 << COM00)|(0 << CS02)|(0 << CS01)|(1 << CS00);	// WGM - fast PWM, COM - clear on compare, CS - прескелер, FOC - ?
     c6c:	83 b7       	in	r24, 0x33	; 51
     c6e:	89 66       	ori	r24, 0x69	; 105
     c70:	83 bf       	out	0x33, r24	; 51
	
	DDRB |= 0b00001000;		// Вывод ШИМ - PB3(OC0)
     c72:	87 b3       	in	r24, 0x17	; 23
     c74:	88 60       	ori	r24, 0x08	; 8
     c76:	87 bb       	out	0x17, r24	; 23
	
	sei();
     c78:	78 94       	sei
     c7a:	08 95       	ret

00000c7c <_Z10Setup_TIM1v>:


void Setup_TIM1(void)
{
	//////////// Таймер 1 (16 бит) Часы ////////////
	OCR1A   = 14398;	// Запись значения прерывания CTC производится до инициализации таймера
     c7c:	8e e3       	ldi	r24, 0x3E	; 62
     c7e:	98 e3       	ldi	r25, 0x38	; 56
     c80:	9b bd       	out	0x2b, r25	; 43
     c82:	8a bd       	out	0x2a, r24	; 42
	TCCR1A |= (0 << COM1A1)|(0 << COM1A0)|(0 << COM1B1)|(0 << COM1B0)|(0 << FOC1A)|(0 << FOC1B)|(0 << WGM11)|(0 << WGM10);	// COM - порты, FOC - ?, WGM - режим CTC, CS - прескелер
     c84:	8f b5       	in	r24, 0x2f	; 47
     c86:	8f bd       	out	0x2f, r24	; 47
	TCCR1B |= (0 <<  ICNC1)|(0 <<  ICES1)|(0 <<  WGM13)|(1 <<  WGM12)|(1 <<  CS12)|(0 <<  CS11)|(1 <<  CS10);				// IC - настройки пина ICP1 (PD6)
     c88:	8e b5       	in	r24, 0x2e	; 46
     c8a:	8d 60       	ori	r24, 0x0D	; 13
     c8c:	8e bd       	out	0x2e, r24	; 46
	TIMSK  |= (0 << TICIE1)|(1 << OCIE1A)|(0 << OCIE1B)|(0 << TOIE1);														// OCIE1A - Прерывание по совпадению разрешено
     c8e:	89 b7       	in	r24, 0x39	; 57
     c90:	80 61       	ori	r24, 0x10	; 16
     c92:	89 bf       	out	0x39, r24	; 57
	
	sei();
     c94:	78 94       	sei
     c96:	08 95       	ret

00000c98 <_Z9Setup_INTv>:
}

void Setup_INT(void)
{
	GICR |= (0 << INT1)|(1 << INT0)|(0 << INT2);						// General Interrupt Control Register - Установка битов INT1, INT0 или INT2 разрешает прерывания при возникновении события на соответствующем выводе микроконтроллера AVR, а сброс — запрещает.
     c98:	8b b7       	in	r24, 0x3b	; 59
     c9a:	80 64       	ori	r24, 0x40	; 64
     c9c:	8b bf       	out	0x3b, r24	; 59
	MCUCR |= (1 << ISC11)|(0 << ISC10)|(1 << ISC01)|(0 << ISC00);		// 10	- Перывание по спадающему фронту INT0, INT1
     c9e:	85 b7       	in	r24, 0x35	; 53
     ca0:	8a 60       	ori	r24, 0x0A	; 10
     ca2:	85 bf       	out	0x35, r24	; 53
	MCUCSR |= (0 << ISC2);												// 0	- Перывание по спадающему фронту INT2
     ca4:	84 b7       	in	r24, 0x34	; 52
     ca6:	84 bf       	out	0x34, r24	; 52
	
	sei();
     ca8:	78 94       	sei
     caa:	08 95       	ret

00000cac <_Z10Setup_GPIOv>:
}

void Setup_GPIO(void)
{
	PORTA = 0xff;						// Все единицы
     cac:	8f ef       	ldi	r24, 0xFF	; 255
     cae:	8b bb       	out	0x1b, r24	; 27
	DDRA = 0x00;						// Все вход
     cb0:	1a ba       	out	0x1a, r1	; 26
     cb2:	08 95       	ret

00000cb4 <__vector_1>:
}



ISR(INT0_vect)
{
     cb4:	1f 92       	push	r1
     cb6:	0f 92       	push	r0
     cb8:	0f b6       	in	r0, 0x3f	; 63
     cba:	0f 92       	push	r0
     cbc:	11 24       	eor	r1, r1
     cbe:	2f 93       	push	r18
     cc0:	8f 93       	push	r24
     cc2:	9f 93       	push	r25
     cc4:	ef 93       	push	r30
     cc6:	ff 93       	push	r31
	cli();
     cc8:	f8 94       	cli
	#else
		//round up by default
		__ticks_dc = (uint32_t)(ceil(fabs(__tmp)));
	#endif

	__builtin_avr_delay_cycles(__ticks_dc);
     cca:	2f ef       	ldi	r18, 0xFF	; 255
     ccc:	8f e3       	ldi	r24, 0x3F	; 63
     cce:	92 e0       	ldi	r25, 0x02	; 2
     cd0:	21 50       	subi	r18, 0x01	; 1
     cd2:	80 40       	sbci	r24, 0x00	; 0
     cd4:	90 40       	sbci	r25, 0x00	; 0
     cd6:	e1 f7       	brne	.-8      	; 0xcd0 <__vector_1+0x1c>
     cd8:	00 c0       	rjmp	.+0      	; 0xcda <__vector_1+0x26>
     cda:	00 00       	nop
	_delay_ms(50);
	
	char bounce_counter = 0;
     cdc:	80 e0       	ldi	r24, 0x00	; 0

	while (!(PINA == 254 || PINA == 253 || PINA == 251 || PINA == 247))		// Опрос порта A до тех пор пока не будет определена кнопка (типа против дребезга и некорректных значений в порте)
     cde:	99 b3       	in	r25, 0x19	; 25
     ce0:	9e 3f       	cpi	r25, 0xFE	; 254
     ce2:	59 f0       	breq	.+22     	; 0xcfa <__vector_1+0x46>
     ce4:	99 b3       	in	r25, 0x19	; 25
     ce6:	9d 3f       	cpi	r25, 0xFD	; 253
     ce8:	51 f0       	breq	.+20     	; 0xcfe <__vector_1+0x4a>
     cea:	99 b3       	in	r25, 0x19	; 25
     cec:	9b 3f       	cpi	r25, 0xFB	; 251
     cee:	49 f0       	breq	.+18     	; 0xd02 <__vector_1+0x4e>
     cf0:	99 b3       	in	r25, 0x19	; 25
     cf2:	97 3f       	cpi	r25, 0xF7	; 247
     cf4:	41 f4       	brne	.+16     	; 0xd06 <__vector_1+0x52>
     cf6:	90 e0       	ldi	r25, 0x00	; 0
     cf8:	07 c0       	rjmp	.+14     	; 0xd08 <__vector_1+0x54>
     cfa:	90 e0       	ldi	r25, 0x00	; 0
     cfc:	05 c0       	rjmp	.+10     	; 0xd08 <__vector_1+0x54>
     cfe:	90 e0       	ldi	r25, 0x00	; 0
     d00:	03 c0       	rjmp	.+6      	; 0xd08 <__vector_1+0x54>
     d02:	90 e0       	ldi	r25, 0x00	; 0
     d04:	01 c0       	rjmp	.+2      	; 0xd08 <__vector_1+0x54>
     d06:	91 e0       	ldi	r25, 0x01	; 1
     d08:	99 23       	and	r25, r25
     d0a:	51 f0       	breq	.+20     	; 0xd20 <__vector_1+0x6c>
	{
		bounce_counter++;
     d0c:	8f 5f       	subi	r24, 0xFF	; 255
     d0e:	ef ef       	ldi	r30, 0xFF	; 255
     d10:	f7 e4       	ldi	r31, 0x47	; 71
     d12:	31 97       	sbiw	r30, 0x01	; 1
     d14:	f1 f7       	brne	.-4      	; 0xd12 <__vector_1+0x5e>
     d16:	00 c0       	rjmp	.+0      	; 0xd18 <__vector_1+0x64>
     d18:	00 00       	nop
		_delay_ms(5);
		
		if (bounce_counter > 10)											// Если после 20 опросов нет значения кнопки то выход из прерывания
     d1a:	8b 30       	cpi	r24, 0x0B	; 11
     d1c:	00 f3       	brcs	.-64     	; 0xcde <__vector_1+0x2a>
     d1e:	1b c0       	rjmp	.+54     	; 0xd56 <__vector_1+0xa2>
		{
			return;
		}
	}

	switch (PINA)															// Запоминание нажатой кнопки
     d20:	89 b3       	in	r24, 0x19	; 25
     d22:	8b 3f       	cpi	r24, 0xFB	; 251
     d24:	81 f0       	breq	.+32     	; 0xd46 <__vector_1+0x92>
     d26:	18 f4       	brcc	.+6      	; 0xd2e <__vector_1+0x7a>
     d28:	87 3f       	cpi	r24, 0xF7	; 247
     d2a:	89 f0       	breq	.+34     	; 0xd4e <__vector_1+0x9a>
     d2c:	14 c0       	rjmp	.+40     	; 0xd56 <__vector_1+0xa2>
     d2e:	8d 3f       	cpi	r24, 0xFD	; 253
     d30:	31 f0       	breq	.+12     	; 0xd3e <__vector_1+0x8a>
     d32:	8e 3f       	cpi	r24, 0xFE	; 254
     d34:	81 f4       	brne	.+32     	; 0xd56 <__vector_1+0xa2>
	{
		case 254:
		button = increase;
     d36:	81 e0       	ldi	r24, 0x01	; 1
     d38:	80 93 0a 06 	sts	0x060A, r24	; 0x80060a <button>
			break;
     d3c:	0b c0       	rjmp	.+22     	; 0xd54 <__vector_1+0xa0>
		case 253:
		button = decrease;
     d3e:	82 e0       	ldi	r24, 0x02	; 2
     d40:	80 93 0a 06 	sts	0x060A, r24	; 0x80060a <button>
			break;
     d44:	07 c0       	rjmp	.+14     	; 0xd54 <__vector_1+0xa0>
		case 251:
		button = clock;
     d46:	83 e0       	ldi	r24, 0x03	; 3
     d48:	80 93 0a 06 	sts	0x060A, r24	; 0x80060a <button>
			break;
     d4c:	03 c0       	rjmp	.+6      	; 0xd54 <__vector_1+0xa0>
		case 247:
		button = schedule;
     d4e:	84 e0       	ldi	r24, 0x04	; 4
     d50:	80 93 0a 06 	sts	0x060A, r24	; 0x80060a <button>
		default:
		return;
			break;
	}
	
	sei();
     d54:	78 94       	sei
}
     d56:	ff 91       	pop	r31
     d58:	ef 91       	pop	r30
     d5a:	9f 91       	pop	r25
     d5c:	8f 91       	pop	r24
     d5e:	2f 91       	pop	r18
     d60:	0f 90       	pop	r0
     d62:	0f be       	out	0x3f, r0	; 63
     d64:	0f 90       	pop	r0
     d66:	1f 90       	pop	r1
     d68:	18 95       	reti

00000d6a <__vector_7>:


ISR(TIMER1_COMPA_vect)
{
     d6a:	1f 92       	push	r1
     d6c:	0f 92       	push	r0
     d6e:	0f b6       	in	r0, 0x3f	; 63
     d70:	0f 92       	push	r0
     d72:	11 24       	eor	r1, r1
     d74:	2f 93       	push	r18
     d76:	3f 93       	push	r19
     d78:	4f 93       	push	r20
     d7a:	5f 93       	push	r21
     d7c:	6f 93       	push	r22
     d7e:	7f 93       	push	r23
     d80:	8f 93       	push	r24
     d82:	9f 93       	push	r25
     d84:	af 93       	push	r26
     d86:	bf 93       	push	r27
     d88:	ef 93       	push	r30
     d8a:	ff 93       	push	r31
	cli();
     d8c:	f8 94       	cli
	
	time[second]++;
     d8e:	e8 e6       	ldi	r30, 0x68	; 104
     d90:	f0 e0       	ldi	r31, 0x00	; 0
     d92:	80 81       	ld	r24, Z
     d94:	8f 5f       	subi	r24, 0xFF	; 255
     d96:	80 83       	st	Z, r24
	if (!(mode == setup_second || mode == setup_minute || mode == setup_hour)) update_second = true;
     d98:	90 91 09 06 	lds	r25, 0x0609	; 0x800609 <mode>
     d9c:	91 50       	subi	r25, 0x01	; 1
     d9e:	93 30       	cpi	r25, 0x03	; 3
     da0:	18 f0       	brcs	.+6      	; 0xda8 <__vector_7+0x3e>
     da2:	21 e0       	ldi	r18, 0x01	; 1
     da4:	20 93 79 00 	sts	0x0079, r18	; 0x800079 <update_second>

	if (time[second] >= 60)
     da8:	8c 33       	cpi	r24, 0x3C	; 60
     daa:	e0 f0       	brcs	.+56     	; 0xde4 <__vector_7+0x7a>
	{
		time[second] = 0;
     dac:	e8 e6       	ldi	r30, 0x68	; 104
     dae:	f0 e0       	ldi	r31, 0x00	; 0
     db0:	10 82       	st	Z, r1
		time[minute]++;
     db2:	81 81       	ldd	r24, Z+1	; 0x01
     db4:	8f 5f       	subi	r24, 0xFF	; 255
     db6:	81 83       	std	Z+1, r24	; 0x01
		if (!(mode == setup_second || mode == setup_minute || mode == setup_hour)) update_minute = true;
     db8:	93 30       	cpi	r25, 0x03	; 3
     dba:	18 f0       	brcs	.+6      	; 0xdc2 <__vector_7+0x58>
     dbc:	21 e0       	ldi	r18, 0x01	; 1
     dbe:	20 93 78 00 	sts	0x0078, r18	; 0x800078 <update_minute>
		
		if (time[minute] >= 60)
     dc2:	8c 33       	cpi	r24, 0x3C	; 60
     dc4:	78 f0       	brcs	.+30     	; 0xde4 <__vector_7+0x7a>
		{
			time[minute] = 0;
     dc6:	e8 e6       	ldi	r30, 0x68	; 104
     dc8:	f0 e0       	ldi	r31, 0x00	; 0
     dca:	11 82       	std	Z+1, r1	; 0x01
			time[hour]++;
     dcc:	82 81       	ldd	r24, Z+2	; 0x02
     dce:	8f 5f       	subi	r24, 0xFF	; 255
     dd0:	82 83       	std	Z+2, r24	; 0x02
			if (!(mode == setup_second || mode == setup_minute || mode == setup_hour)) update_hour = true;
     dd2:	93 30       	cpi	r25, 0x03	; 3
     dd4:	18 f0       	brcs	.+6      	; 0xddc <__vector_7+0x72>
     dd6:	91 e0       	ldi	r25, 0x01	; 1
     dd8:	90 93 77 00 	sts	0x0077, r25	; 0x800077 <update_hour>

			if (time[hour] >= 24)
     ddc:	88 31       	cpi	r24, 0x18	; 24
     dde:	10 f0       	brcs	.+4      	; 0xde4 <__vector_7+0x7a>
			{
				time[second] = 0;
				time[minute] = 0;
				time[hour] = 0;
     de0:	10 92 6a 00 	sts	0x006A, r1	; 0x80006a <time+0x2>
			}
		}
	}
	
	// Синхронизация
	if (time[second] == 0 && time[minute] == 0 && update_sync_DS1307)
     de4:	80 91 68 00 	lds	r24, 0x0068	; 0x800068 <time>
     de8:	81 11       	cpse	r24, r1
     dea:	0e c0       	rjmp	.+28     	; 0xe08 <__vector_7+0x9e>
     dec:	80 91 69 00 	lds	r24, 0x0069	; 0x800069 <time+0x1>
     df0:	81 11       	cpse	r24, r1
     df2:	0a c0       	rjmp	.+20     	; 0xe08 <__vector_7+0x9e>
     df4:	80 91 7c 00 	lds	r24, 0x007C	; 0x80007c <update_sync_DS1307>
     df8:	88 23       	and	r24, r24
     dfa:	31 f0       	breq	.+12     	; 0xe08 <__vector_7+0x9e>
	{
		update_sync_DS1307 = false;
     dfc:	10 92 7c 00 	sts	0x007C, r1	; 0x80007c <update_sync_DS1307>
		DS1307_ReadTime(time);
     e00:	88 e6       	ldi	r24, 0x68	; 104
     e02:	90 e0       	ldi	r25, 0x00	; 0
     e04:	0e 94 4e 01 	call	0x29c	; 0x29c <_Z15DS1307_ReadTimePh>
	}
	
	if (time[second] == 0 && time[minute] == 1)
     e08:	80 91 68 00 	lds	r24, 0x0068	; 0x800068 <time>
     e0c:	81 11       	cpse	r24, r1
     e0e:	06 c0       	rjmp	.+12     	; 0xe1c <__vector_7+0xb2>
     e10:	80 91 69 00 	lds	r24, 0x0069	; 0x800069 <time+0x1>
     e14:	81 30       	cpi	r24, 0x01	; 1
     e16:	11 f4       	brne	.+4      	; 0xe1c <__vector_7+0xb2>
	{
		update_sync_DS1307 = true;
     e18:	80 93 7c 00 	sts	0x007C, r24	; 0x80007c <update_sync_DS1307>
	}
	
	// Обновление слова
	update_word = true;
     e1c:	81 e0       	ldi	r24, 0x01	; 1
     e1e:	80 93 7a 00 	sts	0x007A, r24	; 0x80007a <update_word>
	
	sei();
     e22:	78 94       	sei
}
     e24:	ff 91       	pop	r31
     e26:	ef 91       	pop	r30
     e28:	bf 91       	pop	r27
     e2a:	af 91       	pop	r26
     e2c:	9f 91       	pop	r25
     e2e:	8f 91       	pop	r24
     e30:	7f 91       	pop	r23
     e32:	6f 91       	pop	r22
     e34:	5f 91       	pop	r21
     e36:	4f 91       	pop	r20
     e38:	3f 91       	pop	r19
     e3a:	2f 91       	pop	r18
     e3c:	0f 90       	pop	r0
     e3e:	0f be       	out	0x3f, r0	; 63
     e40:	0f 90       	pop	r0
     e42:	1f 90       	pop	r1
     e44:	18 95       	reti

00000e46 <_Z4ftoafPci>:
	return i;
}

// Converts a floating-point/double number to a string.
char* ftoa(float n, char* res, int afterpoint)
{
     e46:	8f 92       	push	r8
     e48:	9f 92       	push	r9
     e4a:	af 92       	push	r10
     e4c:	bf 92       	push	r11
     e4e:	cf 92       	push	r12
     e50:	df 92       	push	r13
     e52:	ef 92       	push	r14
     e54:	ff 92       	push	r15
     e56:	0f 93       	push	r16
     e58:	1f 93       	push	r17
     e5a:	cf 93       	push	r28
     e5c:	df 93       	push	r29
     e5e:	4b 01       	movw	r8, r22
     e60:	5c 01       	movw	r10, r24
     e62:	7a 01       	movw	r14, r20
     e64:	69 01       	movw	r12, r18
	// Extract integer part
	int ipart = (int)n;
     e66:	0e 94 f4 12 	call	0x25e8	; 0x25e8 <__fixsfsi>
     e6a:	8b 01       	movw	r16, r22
	
	// Extract floating part
	float fpart = n - (float)ipart;
     e6c:	07 2e       	mov	r0, r23
     e6e:	00 0c       	add	r0, r0
     e70:	88 0b       	sbc	r24, r24
     e72:	99 0b       	sbc	r25, r25
     e74:	0e 94 2c 13 	call	0x2658	; 0x2658 <__floatsisf>
     e78:	9b 01       	movw	r18, r22
     e7a:	ac 01       	movw	r20, r24
     e7c:	c5 01       	movw	r24, r10
     e7e:	b4 01       	movw	r22, r8
     e80:	0e 94 10 12 	call	0x2420	; 0x2420 <__subsf3>
     e84:	4b 01       	movw	r8, r22
     e86:	5c 01       	movw	r10, r24
// d is the number of digits required in the output.
// If d is more than the number of digits in x,
// then 0s are added at the beginning.
inline int intToStr(int x, char str[], int d)
{
	int i = 0;
     e88:	c0 e0       	ldi	r28, 0x00	; 0
     e8a:	d0 e0       	ldi	r29, 0x00	; 0
	while (x) {
     e8c:	01 15       	cp	r16, r1
     e8e:	11 05       	cpc	r17, r1
     e90:	71 f0       	breq	.+28     	; 0xeae <_Z4ftoafPci+0x68>
		str[i++] = (x % 10) + '0';
     e92:	f7 01       	movw	r30, r14
     e94:	ec 0f       	add	r30, r28
     e96:	fd 1f       	adc	r31, r29
     e98:	c8 01       	movw	r24, r16
     e9a:	6a e0       	ldi	r22, 0x0A	; 10
     e9c:	70 e0       	ldi	r23, 0x00	; 0
     e9e:	0e 94 e2 11 	call	0x23c4	; 0x23c4 <__divmodhi4>
     ea2:	80 5d       	subi	r24, 0xD0	; 208
     ea4:	80 83       	st	Z, r24
		x = x / 10;
     ea6:	06 2f       	mov	r16, r22
     ea8:	17 2f       	mov	r17, r23
// then 0s are added at the beginning.
inline int intToStr(int x, char str[], int d)
{
	int i = 0;
	while (x) {
		str[i++] = (x % 10) + '0';
     eaa:	21 96       	adiw	r28, 0x01	; 1
     eac:	ef cf       	rjmp	.-34     	; 0xe8c <_Z4ftoafPci+0x46>
		x = x / 10;
	}
	
	// If number of digits required is more, then
	// add 0s at the beginning
	while (i < d)
     eae:	dd 23       	and	r29, r29
     eb0:	3c f4       	brge	.+14     	; 0xec0 <_Z4ftoafPci+0x7a>
	str[i++] = '0';
     eb2:	f7 01       	movw	r30, r14
     eb4:	ec 0f       	add	r30, r28
     eb6:	fd 1f       	adc	r31, r29
     eb8:	80 e3       	ldi	r24, 0x30	; 48
     eba:	80 83       	st	Z, r24
     ebc:	21 96       	adiw	r28, 0x01	; 1
     ebe:	f7 cf       	rjmp	.-18     	; 0xeae <_Z4ftoafPci+0x68>


// Reverses a string 'str' of length 'len'
inline void reverse(char* str, int len)
{
	int i = 0, j = len - 1, temp;
     ec0:	9e 01       	movw	r18, r28
     ec2:	21 50       	subi	r18, 0x01	; 1
     ec4:	31 09       	sbc	r19, r1
     ec6:	80 e0       	ldi	r24, 0x00	; 0
     ec8:	90 e0       	ldi	r25, 0x00	; 0
	while (i < j) {
     eca:	82 17       	cp	r24, r18
     ecc:	93 07       	cpc	r25, r19
     ece:	74 f4       	brge	.+28     	; 0xeec <_Z4ftoafPci+0xa6>
		temp = str[i];
     ed0:	d7 01       	movw	r26, r14
     ed2:	a8 0f       	add	r26, r24
     ed4:	b9 1f       	adc	r27, r25
     ed6:	4c 91       	ld	r20, X
		str[i] = str[j];
     ed8:	f7 01       	movw	r30, r14
     eda:	e2 0f       	add	r30, r18
     edc:	f3 1f       	adc	r31, r19
     ede:	50 81       	ld	r21, Z
     ee0:	5c 93       	st	X, r21
		str[j] = temp;
     ee2:	40 83       	st	Z, r20
		i++;
     ee4:	01 96       	adiw	r24, 0x01	; 1
		j--;
     ee6:	21 50       	subi	r18, 0x01	; 1
     ee8:	31 09       	sbc	r19, r1
     eea:	ef cf       	rjmp	.-34     	; 0xeca <_Z4ftoafPci+0x84>
	// add 0s at the beginning
	while (i < d)
	str[i++] = '0';
	
	reverse(str, i);
	str[i] = '\0';
     eec:	f7 01       	movw	r30, r14
     eee:	ec 0f       	add	r30, r28
     ef0:	fd 1f       	adc	r31, r29
     ef2:	10 82       	st	Z, r1
	
	// convert integer part to string
	int i = intToStr(ipart, res, 0);
	
	// check for display option after point
	if (afterpoint != 0) {
     ef4:	c1 14       	cp	r12, r1
     ef6:	d1 04       	cpc	r13, r1
     ef8:	09 f4       	brne	.+2      	; 0xefc <_Z4ftoafPci+0xb6>
     efa:	56 c0       	rjmp	.+172    	; 0xfa8 <_Z4ftoafPci+0x162>
		res[i] = '.'; // add dot
     efc:	f7 01       	movw	r30, r14
     efe:	ec 0f       	add	r30, r28
     f00:	fd 1f       	adc	r31, r29
     f02:	8e e2       	ldi	r24, 0x2E	; 46
     f04:	80 83       	st	Z, r24
		
		// Get the value of fraction part upto given no.
		// of points after dot. The third parameter
		// is needed to handle cases like 233.007
		fpart = fpart * pow(10, afterpoint);
     f06:	b6 01       	movw	r22, r12
     f08:	0d 2c       	mov	r0, r13
     f0a:	00 0c       	add	r0, r0
     f0c:	88 0b       	sbc	r24, r24
     f0e:	99 0b       	sbc	r25, r25
     f10:	0e 94 2c 13 	call	0x2658	; 0x2658 <__floatsisf>
     f14:	9b 01       	movw	r18, r22
     f16:	ac 01       	movw	r20, r24
     f18:	60 e0       	ldi	r22, 0x00	; 0
     f1a:	70 e0       	ldi	r23, 0x00	; 0
     f1c:	80 e2       	ldi	r24, 0x20	; 32
     f1e:	91 e4       	ldi	r25, 0x41	; 65
     f20:	0e 94 4e 14 	call	0x289c	; 0x289c <pow>
     f24:	9b 01       	movw	r18, r22
     f26:	ac 01       	movw	r20, r24
     f28:	c5 01       	movw	r24, r10
     f2a:	b4 01       	movw	r22, r8
     f2c:	0e 94 e1 13 	call	0x27c2	; 0x27c2 <__mulsf3>
		
		intToStr((int)fpart, res + i + 1, afterpoint);
     f30:	21 96       	adiw	r28, 0x01	; 1
     f32:	ce 0d       	add	r28, r14
     f34:	df 1d       	adc	r29, r15
     f36:	0e 94 f4 12 	call	0x25e8	; 0x25e8 <__fixsfsi>
     f3a:	cb 01       	movw	r24, r22
// d is the number of digits required in the output.
// If d is more than the number of digits in x,
// then 0s are added at the beginning.
inline int intToStr(int x, char str[], int d)
{
	int i = 0;
     f3c:	20 e0       	ldi	r18, 0x00	; 0
     f3e:	30 e0       	ldi	r19, 0x00	; 0
	while (x) {
     f40:	00 97       	sbiw	r24, 0x00	; 0
     f42:	71 f0       	breq	.+28     	; 0xf60 <_Z4ftoafPci+0x11a>
		str[i++] = (x % 10) + '0';
     f44:	fe 01       	movw	r30, r28
     f46:	e2 0f       	add	r30, r18
     f48:	f3 1f       	adc	r31, r19
     f4a:	6a e0       	ldi	r22, 0x0A	; 10
     f4c:	70 e0       	ldi	r23, 0x00	; 0
     f4e:	0e 94 e2 11 	call	0x23c4	; 0x23c4 <__divmodhi4>
     f52:	80 5d       	subi	r24, 0xD0	; 208
     f54:	80 83       	st	Z, r24
		x = x / 10;
     f56:	86 2f       	mov	r24, r22
     f58:	97 2f       	mov	r25, r23
// then 0s are added at the beginning.
inline int intToStr(int x, char str[], int d)
{
	int i = 0;
	while (x) {
		str[i++] = (x % 10) + '0';
     f5a:	2f 5f       	subi	r18, 0xFF	; 255
     f5c:	3f 4f       	sbci	r19, 0xFF	; 255
     f5e:	f0 cf       	rjmp	.-32     	; 0xf40 <_Z4ftoafPci+0xfa>
		x = x / 10;
	}
	
	// If number of digits required is more, then
	// add 0s at the beginning
	while (i < d)
     f60:	2c 15       	cp	r18, r12
     f62:	3d 05       	cpc	r19, r13
     f64:	44 f4       	brge	.+16     	; 0xf76 <_Z4ftoafPci+0x130>
	str[i++] = '0';
     f66:	fe 01       	movw	r30, r28
     f68:	e2 0f       	add	r30, r18
     f6a:	f3 1f       	adc	r31, r19
     f6c:	80 e3       	ldi	r24, 0x30	; 48
     f6e:	80 83       	st	Z, r24
     f70:	2f 5f       	subi	r18, 0xFF	; 255
     f72:	3f 4f       	sbci	r19, 0xFF	; 255
     f74:	f5 cf       	rjmp	.-22     	; 0xf60 <_Z4ftoafPci+0x11a>


// Reverses a string 'str' of length 'len'
inline void reverse(char* str, int len)
{
	int i = 0, j = len - 1, temp;
     f76:	a9 01       	movw	r20, r18
     f78:	41 50       	subi	r20, 0x01	; 1
     f7a:	51 09       	sbc	r21, r1
     f7c:	80 e0       	ldi	r24, 0x00	; 0
     f7e:	90 e0       	ldi	r25, 0x00	; 0
	while (i < j) {
     f80:	84 17       	cp	r24, r20
     f82:	95 07       	cpc	r25, r21
     f84:	74 f4       	brge	.+28     	; 0xfa2 <_Z4ftoafPci+0x15c>
		temp = str[i];
     f86:	de 01       	movw	r26, r28
     f88:	a8 0f       	add	r26, r24
     f8a:	b9 1f       	adc	r27, r25
     f8c:	6c 91       	ld	r22, X
		str[i] = str[j];
     f8e:	fe 01       	movw	r30, r28
     f90:	e4 0f       	add	r30, r20
     f92:	f5 1f       	adc	r31, r21
     f94:	70 81       	ld	r23, Z
     f96:	7c 93       	st	X, r23
		str[j] = temp;
     f98:	60 83       	st	Z, r22
		i++;
     f9a:	01 96       	adiw	r24, 0x01	; 1
		j--;
     f9c:	41 50       	subi	r20, 0x01	; 1
     f9e:	51 09       	sbc	r21, r1
     fa0:	ef cf       	rjmp	.-34     	; 0xf80 <_Z4ftoafPci+0x13a>
	// add 0s at the beginning
	while (i < d)
	str[i++] = '0';
	
	reverse(str, i);
	str[i] = '\0';
     fa2:	c2 0f       	add	r28, r18
     fa4:	d3 1f       	adc	r29, r19
     fa6:	18 82       	st	Y, r1
		
		intToStr((int)fpart, res + i + 1, afterpoint);
	}
	
	return res;
     fa8:	c7 01       	movw	r24, r14
     faa:	df 91       	pop	r29
     fac:	cf 91       	pop	r28
     fae:	1f 91       	pop	r17
     fb0:	0f 91       	pop	r16
     fb2:	ff 90       	pop	r15
     fb4:	ef 90       	pop	r14
     fb6:	df 90       	pop	r13
     fb8:	cf 90       	pop	r12
     fba:	bf 90       	pop	r11
     fbc:	af 90       	pop	r10
     fbe:	9f 90       	pop	r9
     fc0:	8f 90       	pop	r8
     fc2:	08 95       	ret

00000fc4 <main>:
     fc4:	2f ef       	ldi	r18, 0xFF	; 255
     fc6:	3f ef       	ldi	r19, 0xFF	; 255
     fc8:	88 e0       	ldi	r24, 0x08	; 8
     fca:	21 50       	subi	r18, 0x01	; 1
     fcc:	30 40       	sbci	r19, 0x00	; 0
     fce:	80 40       	sbci	r24, 0x00	; 0
     fd0:	e1 f7       	brne	.-8      	; 0xfca <main+0x6>
     fd2:	00 c0       	rjmp	.+0      	; 0xfd4 <main+0x10>
     fd4:	00 00       	nop

int main(void)
{
	_delay_ms(200);
		
	Setup_INT();
     fd6:	0e 94 4c 06 	call	0xc98	; 0xc98 <_Z9Setup_INTv>
	Setup_GPIO();
     fda:	0e 94 56 06 	call	0xcac	; 0xcac <_Z10Setup_GPIOv>
	Setup_TIM0();
     fde:	0e 94 34 06 	call	0xc68	; 0xc68 <_Z10Setup_TIM0v>
	Setup_TIM1();
     fe2:	0e 94 3e 06 	call	0xc7c	; 0xc7c <_Z10Setup_TIM1v>
	
	DS1307_ReadTime(time);	
     fe6:	88 e6       	ldi	r24, 0x68	; 104
     fe8:	90 e0       	ldi	r25, 0x00	; 0
     fea:	0e 94 4e 01 	call	0x29c	; 0x29c <_Z15DS1307_ReadTimePh>
	
	ST7789_InitSPI();
     fee:	0e 94 80 0f 	call	0x1f00	; 0x1f00 <_Z14ST7789_InitSPIv>
	ST7789_InitST7789();
     ff2:	0e 94 96 0f 	call	0x1f2c	; 0x1f2c <_Z17ST7789_InitST7789v>
	ST7789_FillScreen(BLACK);
     ff6:	60 91 ae 00 	lds	r22, 0x00AE	; 0x8000ae <_ZL5BLACK>
     ffa:	70 91 af 00 	lds	r23, 0x00AF	; 0x8000af <_ZL5BLACK+0x1>
     ffe:	80 91 b0 00 	lds	r24, 0x00B0	; 0x8000b0 <_ZL5BLACK+0x2>
    1002:	0e 94 e4 10 	call	0x21c8	; 0x21c8 <_Z17ST7789_FillScreen6colour>
	ST7789_SetXYpos(0, 0);
    1006:	60 e0       	ldi	r22, 0x00	; 0
    1008:	80 e0       	ldi	r24, 0x00	; 0
    100a:	0e 94 59 10 	call	0x20b2	; 0x20b2 <_Z15ST7789_SetXYposcc>

	colour Text_Colour = WHITE;
    100e:	1f e1       	ldi	r17, 0x1F	; 31
    1010:	dd e3       	ldi	r29, 0x3D	; 61
    1012:	cf e1       	ldi	r28, 0x1F	; 31
	colour Text_Colour_RED = RED;
    1014:	0f 2e       	mov	r0, r31
    1016:	ff e1       	ldi	r31, 0x1F	; 31
    1018:	ff 2e       	mov	r15, r31
    101a:	f0 2d       	mov	r31, r0
    101c:	00 e0       	ldi	r16, 0x00	; 0
    101e:	e1 2c       	mov	r14, r1
		Text_Colour.green = rand() % 60;
		Text_Colour.blue = rand() % 30;
		*/
		
		
		Buttons_Handler();
    1020:	0e 94 60 02 	call	0x4c0	; 0x4c0 <_Z15Buttons_Handlerv>

		//==============================================================================
		//								Слово настройка
		//==============================================================================
			
		if(mode != normal_work && update_word)
    1024:	80 91 09 06 	lds	r24, 0x0609	; 0x800609 <mode>
    1028:	88 23       	and	r24, r24
    102a:	39 f0       	breq	.+14     	; 0x103a <main+0x76>
    102c:	90 91 7a 00 	lds	r25, 0x007A	; 0x80007a <update_word>
    1030:	99 23       	and	r25, r25
    1032:	19 f0       	breq	.+6      	; 0x103a <main+0x76>
		{
			update_word = false;
    1034:	10 92 7a 00 	sts	0x007A, r1	; 0x80007a <update_word>
    1038:	a5 c1       	rjmp	.+842    	; 0x1384 <main+0x3c0>
			/*
			 * Тут должен был быть код который выводит слово настройка поверх слов со временем суток но мне лень это делать
			 */
			
		}
		else if(mode == normal_work && update_word)
    103a:	81 11       	cpse	r24, r1
    103c:	a3 c1       	rjmp	.+838    	; 0x1384 <main+0x3c0>
    103e:	80 91 7a 00 	lds	r24, 0x007A	; 0x80007a <update_word>
    1042:	88 23       	and	r24, r24
    1044:	09 f4       	brne	.+2      	; 0x1048 <main+0x84>
    1046:	9e c1       	rjmp	.+828    	; 0x1384 <main+0x3c0>
		{
			update_word = false;
    1048:	10 92 7a 00 	sts	0x007A, r1	; 0x80007a <update_word>
				
			// Определение времени суток, показываемого слова и скважности
			
			// Сначала расчет времени
			time_Dec = (float)time[hour] + (float)time[minute] / 60.0 + (float)time[second] / 3600.0;
    104c:	0f 2e       	mov	r0, r31
    104e:	f8 e6       	ldi	r31, 0x68	; 104
    1050:	cf 2e       	mov	r12, r31
    1052:	f0 e0       	ldi	r31, 0x00	; 0
    1054:	df 2e       	mov	r13, r31
    1056:	f0 2d       	mov	r31, r0
    1058:	f6 01       	movw	r30, r12
    105a:	72 80       	ldd	r7, Z+2	; 0x02
    105c:	61 81       	ldd	r22, Z+1	; 0x01
    105e:	70 e0       	ldi	r23, 0x00	; 0
    1060:	80 e0       	ldi	r24, 0x00	; 0
    1062:	90 e0       	ldi	r25, 0x00	; 0
    1064:	0e 94 2a 13 	call	0x2654	; 0x2654 <__floatunsisf>
    1068:	20 e0       	ldi	r18, 0x00	; 0
    106a:	30 e0       	ldi	r19, 0x00	; 0
    106c:	40 e7       	ldi	r20, 0x70	; 112
    106e:	52 e4       	ldi	r21, 0x42	; 66
    1070:	0e 94 82 12 	call	0x2504	; 0x2504 <__divsf3>
    1074:	4b 01       	movw	r8, r22
    1076:	5c 01       	movw	r10, r24
    1078:	67 2d       	mov	r22, r7
    107a:	70 e0       	ldi	r23, 0x00	; 0
    107c:	80 e0       	ldi	r24, 0x00	; 0
    107e:	90 e0       	ldi	r25, 0x00	; 0
    1080:	0e 94 2a 13 	call	0x2654	; 0x2654 <__floatunsisf>
    1084:	a5 01       	movw	r20, r10
    1086:	94 01       	movw	r18, r8
    1088:	0e 94 11 12 	call	0x2422	; 0x2422 <__addsf3>
    108c:	4b 01       	movw	r8, r22
    108e:	5c 01       	movw	r10, r24
    1090:	f6 01       	movw	r30, r12
    1092:	60 81       	ld	r22, Z
    1094:	70 e0       	ldi	r23, 0x00	; 0
    1096:	80 e0       	ldi	r24, 0x00	; 0
    1098:	90 e0       	ldi	r25, 0x00	; 0
    109a:	0e 94 2a 13 	call	0x2654	; 0x2654 <__floatunsisf>
    109e:	20 e0       	ldi	r18, 0x00	; 0
    10a0:	30 e0       	ldi	r19, 0x00	; 0
    10a2:	41 e6       	ldi	r20, 0x61	; 97
    10a4:	55 e4       	ldi	r21, 0x45	; 69
    10a6:	0e 94 82 12 	call	0x2504	; 0x2504 <__divsf3>
    10aa:	9b 01       	movw	r18, r22
    10ac:	ac 01       	movw	r20, r24
    10ae:	c5 01       	movw	r24, r10
    10b0:	b4 01       	movw	r22, r8
    10b2:	0e 94 11 12 	call	0x2422	; 0x2422 <__addsf3>
    10b6:	60 93 02 06 	sts	0x0602, r22	; 0x800602 <time_Dec>
    10ba:	70 93 03 06 	sts	0x0603, r23	; 0x800603 <time_Dec+0x1>
    10be:	80 93 04 06 	sts	0x0604, r24	; 0x800604 <time_Dec+0x2>
    10c2:	90 93 05 06 	sts	0x0605, r25	; 0x800605 <time_Dec+0x3>
			
			for (int i = 0; i < 4; i++)
    10c6:	c1 2c       	mov	r12, r1
    10c8:	d1 2c       	mov	r13, r1
    10ca:	f4 e0       	ldi	r31, 0x04	; 4
    10cc:	cf 16       	cp	r12, r31
    10ce:	d1 04       	cpc	r13, r1
    10d0:	94 f5       	brge	.+100    	; 0x1136 <main+0x172>
			{
				time_schedule_Dec[i] = (float)time_schedule[i][0] + (float)time_schedule[i][1] / 60.0;
    10d2:	c6 01       	movw	r24, r12
    10d4:	88 0f       	add	r24, r24
    10d6:	99 1f       	adc	r25, r25
    10d8:	9c 01       	movw	r18, r24
    10da:	20 5a       	subi	r18, 0xA0	; 160
    10dc:	3f 4f       	sbci	r19, 0xFF	; 255
    10de:	59 01       	movw	r10, r18
    10e0:	f9 01       	movw	r30, r18
    10e2:	60 81       	ld	r22, Z
    10e4:	70 e0       	ldi	r23, 0x00	; 0
    10e6:	80 e0       	ldi	r24, 0x00	; 0
    10e8:	90 e0       	ldi	r25, 0x00	; 0
    10ea:	0e 94 2a 13 	call	0x2654	; 0x2654 <__floatunsisf>
    10ee:	2b 01       	movw	r4, r22
    10f0:	3c 01       	movw	r6, r24
    10f2:	f5 01       	movw	r30, r10
    10f4:	61 81       	ldd	r22, Z+1	; 0x01
    10f6:	70 e0       	ldi	r23, 0x00	; 0
    10f8:	80 e0       	ldi	r24, 0x00	; 0
    10fa:	90 e0       	ldi	r25, 0x00	; 0
    10fc:	0e 94 2a 13 	call	0x2654	; 0x2654 <__floatunsisf>
    1100:	20 e0       	ldi	r18, 0x00	; 0
    1102:	30 e0       	ldi	r19, 0x00	; 0
    1104:	40 e7       	ldi	r20, 0x70	; 112
    1106:	52 e4       	ldi	r21, 0x42	; 66
    1108:	0e 94 82 12 	call	0x2504	; 0x2504 <__divsf3>
    110c:	9b 01       	movw	r18, r22
    110e:	ac 01       	movw	r20, r24
    1110:	c3 01       	movw	r24, r6
    1112:	b2 01       	movw	r22, r4
    1114:	0e 94 11 12 	call	0x2422	; 0x2422 <__addsf3>
    1118:	f6 01       	movw	r30, r12
    111a:	ee 0f       	add	r30, r30
    111c:	ff 1f       	adc	r31, r31
    111e:	ee 0f       	add	r30, r30
    1120:	ff 1f       	adc	r31, r31
    1122:	ee 50       	subi	r30, 0x0E	; 14
    1124:	fa 4f       	sbci	r31, 0xFA	; 250
    1126:	60 83       	st	Z, r22
    1128:	71 83       	std	Z+1, r23	; 0x01
    112a:	82 83       	std	Z+2, r24	; 0x02
    112c:	93 83       	std	Z+3, r25	; 0x03
			// Определение времени суток, показываемого слова и скважности
			
			// Сначала расчет времени
			time_Dec = (float)time[hour] + (float)time[minute] / 60.0 + (float)time[second] / 3600.0;
			
			for (int i = 0; i < 4; i++)
    112e:	ff ef       	ldi	r31, 0xFF	; 255
    1130:	cf 1a       	sub	r12, r31
    1132:	df 0a       	sbc	r13, r31
    1134:	ca cf       	rjmp	.-108    	; 0x10ca <main+0x106>
			{
				time_schedule_Dec[i] = (float)time_schedule[i][0] + (float)time_schedule[i][1] / 60.0;
			}
			
			
			ST7789_SetXYpos(0, 40);
    1136:	68 e2       	ldi	r22, 0x28	; 40
    1138:	80 e0       	ldi	r24, 0x00	; 0
    113a:	0e 94 59 10 	call	0x20b2	; 0x20b2 <_Z15ST7789_SetXYposcc>
			
			// Потом определение показываемого слова и скважности
			// Время меньше чем время рассвета => ночь			
			if (time_Dec < time_schedule_Dec[0])
    113e:	60 91 f2 05 	lds	r22, 0x05F2	; 0x8005f2 <__data_end>
    1142:	70 91 f3 05 	lds	r23, 0x05F3	; 0x8005f3 <__data_end+0x1>
    1146:	80 91 f4 05 	lds	r24, 0x05F4	; 0x8005f4 <__data_end+0x2>
    114a:	90 91 f5 05 	lds	r25, 0x05F5	; 0x8005f5 <__data_end+0x3>
    114e:	80 90 02 06 	lds	r8, 0x0602	; 0x800602 <time_Dec>
    1152:	90 90 03 06 	lds	r9, 0x0603	; 0x800603 <time_Dec+0x1>
    1156:	a0 90 04 06 	lds	r10, 0x0604	; 0x800604 <time_Dec+0x2>
    115a:	b0 90 05 06 	lds	r11, 0x0605	; 0x800605 <time_Dec+0x3>
    115e:	a5 01       	movw	r20, r10
    1160:	94 01       	movw	r18, r8
    1162:	0e 94 dc 13 	call	0x27b8	; 0x27b8 <__gesf2>
    1166:	18 16       	cp	r1, r24
    1168:	54 f4       	brge	.+20     	; 0x117e <main+0x1ba>
			{
				ST7789_PrintString((char*)"Ночь   ", Text_Colour, 5);
    116a:	25 e0       	ldi	r18, 0x05	; 5
    116c:	41 2f       	mov	r20, r17
    116e:	5d 2f       	mov	r21, r29
    1170:	6c 2f       	mov	r22, r28
    1172:	86 ea       	ldi	r24, 0xA6	; 166
    1174:	90 e0       	ldi	r25, 0x00	; 0
    1176:	0e 94 cf 11 	call	0x239e	; 0x239e <_Z18ST7789_PrintStringPc6colourc>
				OCR0 = 0;
    117a:	1c be       	out	0x3c, r1	; 60
    117c:	bb c0       	rjmp	.+374    	; 0x12f4 <main+0x330>
			}
			// Время меньше чем время начала дня => рассвет
			else if (time_Dec < time_schedule_Dec[1])
    117e:	20 91 f6 05 	lds	r18, 0x05F6	; 0x8005f6 <__data_end+0x4>
    1182:	30 91 f7 05 	lds	r19, 0x05F7	; 0x8005f7 <__data_end+0x5>
    1186:	40 91 f8 05 	lds	r20, 0x05F8	; 0x8005f8 <__data_end+0x6>
    118a:	50 91 f9 05 	lds	r21, 0x05F9	; 0x8005f9 <__data_end+0x7>
    118e:	c5 01       	movw	r24, r10
    1190:	b4 01       	movw	r22, r8
    1192:	0e 94 7d 12 	call	0x24fa	; 0x24fa <__cmpsf2>
    1196:	88 23       	and	r24, r24
    1198:	d4 f5       	brge	.+116    	; 0x120e <main+0x24a>
			{
				ST7789_PrintString((char*)"Рассвет", Text_Colour, 5);
    119a:	25 e0       	ldi	r18, 0x05	; 5
    119c:	41 2f       	mov	r20, r17
    119e:	5d 2f       	mov	r21, r29
    11a0:	6c 2f       	mov	r22, r28
    11a2:	8b e8       	ldi	r24, 0x8B	; 139
    11a4:	90 e0       	ldi	r25, 0x00	; 0
    11a6:	0e 94 cf 11 	call	0x239e	; 0x239e <_Z18ST7789_PrintStringPc6colourc>
				OCR0 = (char)(((time_Dec - time_schedule_Dec[0])/(time_schedule_Dec[1] - time_schedule_Dec[0])) * 255.0);
    11aa:	0f 2e       	mov	r0, r31
    11ac:	f2 ef       	ldi	r31, 0xF2	; 242
    11ae:	cf 2e       	mov	r12, r31
    11b0:	f5 e0       	ldi	r31, 0x05	; 5
    11b2:	df 2e       	mov	r13, r31
    11b4:	f0 2d       	mov	r31, r0
    11b6:	f6 01       	movw	r30, r12
    11b8:	80 80       	ld	r8, Z
    11ba:	91 80       	ldd	r9, Z+1	; 0x01
    11bc:	a2 80       	ldd	r10, Z+2	; 0x02
    11be:	b3 80       	ldd	r11, Z+3	; 0x03
    11c0:	a5 01       	movw	r20, r10
    11c2:	94 01       	movw	r18, r8
    11c4:	60 91 02 06 	lds	r22, 0x0602	; 0x800602 <time_Dec>
    11c8:	70 91 03 06 	lds	r23, 0x0603	; 0x800603 <time_Dec+0x1>
    11cc:	80 91 04 06 	lds	r24, 0x0604	; 0x800604 <time_Dec+0x2>
    11d0:	90 91 05 06 	lds	r25, 0x0605	; 0x800605 <time_Dec+0x3>
    11d4:	0e 94 10 12 	call	0x2420	; 0x2420 <__subsf3>
    11d8:	2b 01       	movw	r4, r22
    11da:	3c 01       	movw	r6, r24
    11dc:	f6 01       	movw	r30, r12
    11de:	64 81       	ldd	r22, Z+4	; 0x04
    11e0:	75 81       	ldd	r23, Z+5	; 0x05
    11e2:	86 81       	ldd	r24, Z+6	; 0x06
    11e4:	97 81       	ldd	r25, Z+7	; 0x07
    11e6:	a5 01       	movw	r20, r10
    11e8:	94 01       	movw	r18, r8
    11ea:	0e 94 10 12 	call	0x2420	; 0x2420 <__subsf3>
    11ee:	9b 01       	movw	r18, r22
    11f0:	ac 01       	movw	r20, r24
    11f2:	c3 01       	movw	r24, r6
    11f4:	b2 01       	movw	r22, r4
    11f6:	0e 94 82 12 	call	0x2504	; 0x2504 <__divsf3>
    11fa:	20 e0       	ldi	r18, 0x00	; 0
    11fc:	30 e0       	ldi	r19, 0x00	; 0
    11fe:	4f e7       	ldi	r20, 0x7F	; 127
    1200:	53 e4       	ldi	r21, 0x43	; 67
    1202:	0e 94 e1 13 	call	0x27c2	; 0x27c2 <__mulsf3>
    1206:	0e 94 fb 12 	call	0x25f6	; 0x25f6 <__fixunssfsi>
    120a:	6c bf       	out	0x3c, r22	; 60
    120c:	73 c0       	rjmp	.+230    	; 0x12f4 <main+0x330>
			}
			// Время меньше чем время конца дня => день
			else if (time_Dec < time_schedule_Dec[2])
    120e:	20 91 fa 05 	lds	r18, 0x05FA	; 0x8005fa <__data_end+0x8>
    1212:	30 91 fb 05 	lds	r19, 0x05FB	; 0x8005fb <__data_end+0x9>
    1216:	40 91 fc 05 	lds	r20, 0x05FC	; 0x8005fc <__data_end+0xa>
    121a:	50 91 fd 05 	lds	r21, 0x05FD	; 0x8005fd <__data_end+0xb>
    121e:	c5 01       	movw	r24, r10
    1220:	b4 01       	movw	r22, r8
    1222:	0e 94 7d 12 	call	0x24fa	; 0x24fa <__cmpsf2>
    1226:	88 23       	and	r24, r24
    1228:	5c f4       	brge	.+22     	; 0x1240 <main+0x27c>
			{
				ST7789_PrintString((char*)"День   ", Text_Colour, 5);
    122a:	25 e0       	ldi	r18, 0x05	; 5
    122c:	41 2f       	mov	r20, r17
    122e:	5d 2f       	mov	r21, r29
    1230:	6c 2f       	mov	r22, r28
    1232:	84 e9       	ldi	r24, 0x94	; 148
    1234:	90 e0       	ldi	r25, 0x00	; 0
    1236:	0e 94 cf 11 	call	0x239e	; 0x239e <_Z18ST7789_PrintStringPc6colourc>
				OCR0 = 255;
    123a:	8f ef       	ldi	r24, 0xFF	; 255
    123c:	8c bf       	out	0x3c, r24	; 60
    123e:	5a c0       	rjmp	.+180    	; 0x12f4 <main+0x330>
			}
			// Время меньше чем время конца заката => закат
			else if (time_Dec < time_schedule_Dec[3])
    1240:	20 91 fe 05 	lds	r18, 0x05FE	; 0x8005fe <__data_end+0xc>
    1244:	30 91 ff 05 	lds	r19, 0x05FF	; 0x8005ff <__data_end+0xd>
    1248:	40 91 00 06 	lds	r20, 0x0600	; 0x800600 <__data_end+0xe>
    124c:	50 91 01 06 	lds	r21, 0x0601	; 0x800601 <__data_end+0xf>
    1250:	c5 01       	movw	r24, r10
    1252:	b4 01       	movw	r22, r8
    1254:	0e 94 7d 12 	call	0x24fa	; 0x24fa <__cmpsf2>
    1258:	88 23       	and	r24, r24
    125a:	0c f0       	brlt	.+2      	; 0x125e <main+0x29a>
    125c:	42 c0       	rjmp	.+132    	; 0x12e2 <main+0x31e>
			{
				ST7789_PrintString((char*)"Закат  ", Text_Colour, 5);
    125e:	25 e0       	ldi	r18, 0x05	; 5
    1260:	41 2f       	mov	r20, r17
    1262:	5d 2f       	mov	r21, r29
    1264:	6c 2f       	mov	r22, r28
    1266:	8d e9       	ldi	r24, 0x9D	; 157
    1268:	90 e0       	ldi	r25, 0x00	; 0
    126a:	0e 94 cf 11 	call	0x239e	; 0x239e <_Z18ST7789_PrintStringPc6colourc>
				OCR0 = (char)((1.0 - ((time_Dec - time_schedule_Dec[2])/(time_schedule_Dec[3] - time_schedule_Dec[2]))) * 255.0);
    126e:	0f 2e       	mov	r0, r31
    1270:	f2 ef       	ldi	r31, 0xF2	; 242
    1272:	cf 2e       	mov	r12, r31
    1274:	f5 e0       	ldi	r31, 0x05	; 5
    1276:	df 2e       	mov	r13, r31
    1278:	f0 2d       	mov	r31, r0
    127a:	f6 01       	movw	r30, r12
    127c:	80 84       	ldd	r8, Z+8	; 0x08
    127e:	91 84       	ldd	r9, Z+9	; 0x09
    1280:	a2 84       	ldd	r10, Z+10	; 0x0a
    1282:	b3 84       	ldd	r11, Z+11	; 0x0b
    1284:	a5 01       	movw	r20, r10
    1286:	94 01       	movw	r18, r8
    1288:	60 91 02 06 	lds	r22, 0x0602	; 0x800602 <time_Dec>
    128c:	70 91 03 06 	lds	r23, 0x0603	; 0x800603 <time_Dec+0x1>
    1290:	80 91 04 06 	lds	r24, 0x0604	; 0x800604 <time_Dec+0x2>
    1294:	90 91 05 06 	lds	r25, 0x0605	; 0x800605 <time_Dec+0x3>
    1298:	0e 94 10 12 	call	0x2420	; 0x2420 <__subsf3>
    129c:	2b 01       	movw	r4, r22
    129e:	3c 01       	movw	r6, r24
    12a0:	f6 01       	movw	r30, r12
    12a2:	64 85       	ldd	r22, Z+12	; 0x0c
    12a4:	75 85       	ldd	r23, Z+13	; 0x0d
    12a6:	86 85       	ldd	r24, Z+14	; 0x0e
    12a8:	97 85       	ldd	r25, Z+15	; 0x0f
    12aa:	a5 01       	movw	r20, r10
    12ac:	94 01       	movw	r18, r8
    12ae:	0e 94 10 12 	call	0x2420	; 0x2420 <__subsf3>
    12b2:	9b 01       	movw	r18, r22
    12b4:	ac 01       	movw	r20, r24
    12b6:	c3 01       	movw	r24, r6
    12b8:	b2 01       	movw	r22, r4
    12ba:	0e 94 82 12 	call	0x2504	; 0x2504 <__divsf3>
    12be:	9b 01       	movw	r18, r22
    12c0:	ac 01       	movw	r20, r24
    12c2:	60 e0       	ldi	r22, 0x00	; 0
    12c4:	70 e0       	ldi	r23, 0x00	; 0
    12c6:	80 e8       	ldi	r24, 0x80	; 128
    12c8:	9f e3       	ldi	r25, 0x3F	; 63
    12ca:	0e 94 10 12 	call	0x2420	; 0x2420 <__subsf3>
    12ce:	20 e0       	ldi	r18, 0x00	; 0
    12d0:	30 e0       	ldi	r19, 0x00	; 0
    12d2:	4f e7       	ldi	r20, 0x7F	; 127
    12d4:	53 e4       	ldi	r21, 0x43	; 67
    12d6:	0e 94 e1 13 	call	0x27c2	; 0x27c2 <__mulsf3>
    12da:	0e 94 fb 12 	call	0x25f6	; 0x25f6 <__fixunssfsi>
    12de:	6c bf       	out	0x3c, r22	; 60
    12e0:	09 c0       	rjmp	.+18     	; 0x12f4 <main+0x330>
			}
			// В остальных случаях ночь
			else
			{
				ST7789_PrintString((char*)"Ночь   ", Text_Colour, 5);
    12e2:	25 e0       	ldi	r18, 0x05	; 5
    12e4:	41 2f       	mov	r20, r17
    12e6:	5d 2f       	mov	r21, r29
    12e8:	6c 2f       	mov	r22, r28
    12ea:	86 ea       	ldi	r24, 0xA6	; 166
    12ec:	90 e0       	ldi	r25, 0x00	; 0
    12ee:	0e 94 cf 11 	call	0x239e	; 0x239e <_Z18ST7789_PrintStringPc6colourc>
				OCR0 = 0;
    12f2:	1c be       	out	0x3c, r1	; 60
			}	
			
			// Печать скважности
			ST7789_SetXYpos(0, 90);
    12f4:	6a e5       	ldi	r22, 0x5A	; 90
    12f6:	80 e0       	ldi	r24, 0x00	; 0
    12f8:	0e 94 59 10 	call	0x20b2	; 0x20b2 <_Z15ST7789_SetXYposcc>
			ST7789_PrintString((char*)"осв.", Text_Colour, 3);
    12fc:	23 e0       	ldi	r18, 0x03	; 3
    12fe:	41 2f       	mov	r20, r17
    1300:	5d 2f       	mov	r21, r29
    1302:	6c 2f       	mov	r22, r28
    1304:	8d e7       	ldi	r24, 0x7D	; 125
    1306:	90 e0       	ldi	r25, 0x00	; 0
    1308:	0e 94 cf 11 	call	0x239e	; 0x239e <_Z18ST7789_PrintStringPc6colourc>
			
			if ((float)OCR0/2.55 < 10)
    130c:	6c b7       	in	r22, 0x3c	; 60
    130e:	70 e0       	ldi	r23, 0x00	; 0
    1310:	80 e0       	ldi	r24, 0x00	; 0
    1312:	90 e0       	ldi	r25, 0x00	; 0
    1314:	0e 94 2a 13 	call	0x2654	; 0x2654 <__floatunsisf>
    1318:	23 e3       	ldi	r18, 0x33	; 51
    131a:	33 e3       	ldi	r19, 0x33	; 51
    131c:	43 e2       	ldi	r20, 0x23	; 35
    131e:	50 e4       	ldi	r21, 0x40	; 64
    1320:	0e 94 82 12 	call	0x2504	; 0x2504 <__divsf3>
    1324:	20 e0       	ldi	r18, 0x00	; 0
    1326:	30 e0       	ldi	r19, 0x00	; 0
    1328:	40 e2       	ldi	r20, 0x20	; 32
    132a:	51 e4       	ldi	r21, 0x41	; 65
    132c:	0e 94 7d 12 	call	0x24fa	; 0x24fa <__cmpsf2>
    1330:	88 23       	and	r24, r24
    1332:	44 f4       	brge	.+16     	; 0x1344 <main+0x380>
			{
				ST7789_PrintString((char*)"0", Text_Colour, 3);
    1334:	23 e0       	ldi	r18, 0x03	; 3
    1336:	41 2f       	mov	r20, r17
    1338:	5d 2f       	mov	r21, r29
    133a:	6c 2f       	mov	r22, r28
    133c:	82 e8       	ldi	r24, 0x82	; 130
    133e:	90 e0       	ldi	r25, 0x00	; 0
    1340:	0e 94 cf 11 	call	0x239e	; 0x239e <_Z18ST7789_PrintStringPc6colourc>
			}
			ST7789_PrintString(ftoa(((float)OCR0/2.55), itoa_temp, 2), Text_Colour, 3);
    1344:	6c b7       	in	r22, 0x3c	; 60
    1346:	70 e0       	ldi	r23, 0x00	; 0
    1348:	80 e0       	ldi	r24, 0x00	; 0
    134a:	90 e0       	ldi	r25, 0x00	; 0
    134c:	0e 94 2a 13 	call	0x2654	; 0x2654 <__floatunsisf>
    1350:	23 e3       	ldi	r18, 0x33	; 51
    1352:	33 e3       	ldi	r19, 0x33	; 51
    1354:	43 e2       	ldi	r20, 0x23	; 35
    1356:	50 e4       	ldi	r21, 0x40	; 64
    1358:	0e 94 82 12 	call	0x2504	; 0x2504 <__divsf3>
    135c:	22 e0       	ldi	r18, 0x02	; 2
    135e:	30 e0       	ldi	r19, 0x00	; 0
    1360:	4d e0       	ldi	r20, 0x0D	; 13
    1362:	56 e0       	ldi	r21, 0x06	; 6
    1364:	0e 94 23 07 	call	0xe46	; 0xe46 <_Z4ftoafPci>
    1368:	23 e0       	ldi	r18, 0x03	; 3
    136a:	41 2f       	mov	r20, r17
    136c:	5d 2f       	mov	r21, r29
    136e:	6c 2f       	mov	r22, r28
    1370:	0e 94 cf 11 	call	0x239e	; 0x239e <_Z18ST7789_PrintStringPc6colourc>
			
			ST7789_PrintString((char*)"%  ", Text_Colour, 3);	
    1374:	23 e0       	ldi	r18, 0x03	; 3
    1376:	41 2f       	mov	r20, r17
    1378:	5d 2f       	mov	r21, r29
    137a:	6c 2f       	mov	r22, r28
    137c:	84 e8       	ldi	r24, 0x84	; 132
    137e:	90 e0       	ldi	r25, 0x00	; 0
    1380:	0e 94 cf 11 	call	0x239e	; 0x239e <_Z18ST7789_PrintStringPc6colourc>
		//==============================================================================

		
		
		
		if(mode != normal_work && update_all)
    1384:	80 91 09 06 	lds	r24, 0x0609	; 0x800609 <mode>
    1388:	88 23       	and	r24, r24
    138a:	39 f0       	breq	.+14     	; 0x139a <main+0x3d6>
    138c:	90 91 7b 00 	lds	r25, 0x007B	; 0x80007b <update_all>
    1390:	99 23       	and	r25, r25
    1392:	19 f0       	breq	.+6      	; 0x139a <main+0x3d6>
		{
			
			update_all = false;					
    1394:	10 92 7b 00 	sts	0x007B, r1	; 0x80007b <update_all>
    1398:	ea c0       	rjmp	.+468    	; 0x156e <main+0x5aa>
		}
		else if(mode == normal_work && update_all)
    139a:	81 11       	cpse	r24, r1
    139c:	e8 c0       	rjmp	.+464    	; 0x156e <main+0x5aa>
    139e:	80 91 7b 00 	lds	r24, 0x007B	; 0x80007b <update_all>
    13a2:	88 23       	and	r24, r24
    13a4:	09 f4       	brne	.+2      	; 0x13a8 <main+0x3e4>
    13a6:	e3 c0       	rjmp	.+454    	; 0x156e <main+0x5aa>
		{
			
			update_all = false;	
    13a8:	10 92 7b 00 	sts	0x007B, r1	; 0x80007b <update_all>
			
			ST7789_SetXYpos(60, 0);
    13ac:	60 e0       	ldi	r22, 0x00	; 0
    13ae:	8c e3       	ldi	r24, 0x3C	; 60
    13b0:	0e 94 59 10 	call	0x20b2	; 0x20b2 <_Z15ST7789_SetXYposcc>
			ST7789_PrintString((char*)":", Text_Colour, 5);
    13b4:	25 e0       	ldi	r18, 0x05	; 5
    13b6:	41 2f       	mov	r20, r17
    13b8:	5d 2f       	mov	r21, r29
    13ba:	6c 2f       	mov	r22, r28
    13bc:	88 e8       	ldi	r24, 0x88	; 136
    13be:	90 e0       	ldi	r25, 0x00	; 0
    13c0:	0e 94 cf 11 	call	0x239e	; 0x239e <_Z18ST7789_PrintStringPc6colourc>
			ST7789_SetXYpos(150, 0);
    13c4:	60 e0       	ldi	r22, 0x00	; 0
    13c6:	86 e9       	ldi	r24, 0x96	; 150
    13c8:	0e 94 59 10 	call	0x20b2	; 0x20b2 <_Z15ST7789_SetXYposcc>
			ST7789_PrintString((char*)":", Text_Colour, 5);
    13cc:	25 e0       	ldi	r18, 0x05	; 5
    13ce:	41 2f       	mov	r20, r17
    13d0:	5d 2f       	mov	r21, r29
    13d2:	6c 2f       	mov	r22, r28
    13d4:	88 e8       	ldi	r24, 0x88	; 136
    13d6:	90 e0       	ldi	r25, 0x00	; 0
    13d8:	0e 94 cf 11 	call	0x239e	; 0x239e <_Z18ST7789_PrintStringPc6colourc>
			
			
			for(int i = 0; i < 3; i++)
    13dc:	a1 2c       	mov	r10, r1
    13de:	b1 2c       	mov	r11, r1
    13e0:	f3 e0       	ldi	r31, 0x03	; 3
    13e2:	af 16       	cp	r10, r31
    13e4:	b1 04       	cpc	r11, r1
    13e6:	74 f5       	brge	.+92     	; 0x1444 <main+0x480>
			{
				ST7789_SetXYpos(90 * i, 0);
    13e8:	60 e0       	ldi	r22, 0x00	; 0
    13ea:	8a e5       	ldi	r24, 0x5A	; 90
    13ec:	8a 9d       	mul	r24, r10
    13ee:	80 2d       	mov	r24, r0
    13f0:	11 24       	eor	r1, r1
    13f2:	0e 94 59 10 	call	0x20b2	; 0x20b2 <_Z15ST7789_SetXYposcc>
				if (time[2 - i] < 10)
    13f6:	82 e0       	ldi	r24, 0x02	; 2
    13f8:	90 e0       	ldi	r25, 0x00	; 0
    13fa:	6c 01       	movw	r12, r24
    13fc:	ca 18       	sub	r12, r10
    13fe:	db 08       	sbc	r13, r11
    1400:	f6 01       	movw	r30, r12
    1402:	e8 59       	subi	r30, 0x98	; 152
    1404:	ff 4f       	sbci	r31, 0xFF	; 255
    1406:	80 81       	ld	r24, Z
    1408:	8a 30       	cpi	r24, 0x0A	; 10
    140a:	40 f4       	brcc	.+16     	; 0x141c <main+0x458>
				{
					ST7789_PrintString((char*)"0", Text_Colour, 5);
    140c:	25 e0       	ldi	r18, 0x05	; 5
    140e:	41 2f       	mov	r20, r17
    1410:	5d 2f       	mov	r21, r29
    1412:	6c 2f       	mov	r22, r28
    1414:	82 e8       	ldi	r24, 0x82	; 130
    1416:	90 e0       	ldi	r25, 0x00	; 0
    1418:	0e 94 cf 11 	call	0x239e	; 0x239e <_Z18ST7789_PrintStringPc6colourc>
				}
				ST7789_PrintString((char*)itoa(time[2 - i], itoa_temp, 10), Text_Colour, 5);
    141c:	f6 01       	movw	r30, r12
    141e:	e8 59       	subi	r30, 0x98	; 152
    1420:	ff 4f       	sbci	r31, 0xFF	; 255
    1422:	80 81       	ld	r24, Z
    } else if (__radix < 2 || __radix > 36) {
	*__s = 0;
	return __s;
    } else {
	extern char *__itoa_ncheck (int, char *, unsigned char);
	return __itoa_ncheck (__val, __s, __radix);
    1424:	4a e0       	ldi	r20, 0x0A	; 10
    1426:	6d e0       	ldi	r22, 0x0D	; 13
    1428:	76 e0       	ldi	r23, 0x06	; 6
    142a:	90 e0       	ldi	r25, 0x00	; 0
    142c:	0e 94 d3 15 	call	0x2ba6	; 0x2ba6 <__itoa_ncheck>
    1430:	25 e0       	ldi	r18, 0x05	; 5
    1432:	41 2f       	mov	r20, r17
    1434:	5d 2f       	mov	r21, r29
    1436:	6c 2f       	mov	r22, r28
    1438:	0e 94 cf 11 	call	0x239e	; 0x239e <_Z18ST7789_PrintStringPc6colourc>
			ST7789_PrintString((char*)":", Text_Colour, 5);
			ST7789_SetXYpos(150, 0);
			ST7789_PrintString((char*)":", Text_Colour, 5);
			
			
			for(int i = 0; i < 3; i++)
    143c:	2f ef       	ldi	r18, 0xFF	; 255
    143e:	a2 1a       	sub	r10, r18
    1440:	b2 0a       	sbc	r11, r18
    1442:	ce cf       	rjmp	.-100    	; 0x13e0 <main+0x41c>
    1444:	c1 2c       	mov	r12, r1
    1446:	d1 2c       	mov	r13, r1
					ST7789_PrintString((char*)"0", Text_Colour, 5);
				}
				ST7789_PrintString((char*)itoa(time[2 - i], itoa_temp, 10), Text_Colour, 5);
			}
		
			for(int i = 0; i < 4; i++)
    1448:	34 e0       	ldi	r19, 0x04	; 4
    144a:	c3 16       	cp	r12, r19
    144c:	d1 04       	cpc	r13, r1
    144e:	a4 f4       	brge	.+40     	; 0x1478 <main+0x4b4>
			{
				ST7789_SetXYpos(36, 136 + 26 * i);
    1450:	6a e1       	ldi	r22, 0x1A	; 26
    1452:	c6 9e       	mul	r12, r22
    1454:	60 2d       	mov	r22, r0
    1456:	11 24       	eor	r1, r1
    1458:	68 57       	subi	r22, 0x78	; 120
    145a:	84 e2       	ldi	r24, 0x24	; 36
    145c:	0e 94 59 10 	call	0x20b2	; 0x20b2 <_Z15ST7789_SetXYposcc>
				ST7789_PrintString((char*)":", Text_Colour, 3);
    1460:	23 e0       	ldi	r18, 0x03	; 3
    1462:	41 2f       	mov	r20, r17
    1464:	5d 2f       	mov	r21, r29
    1466:	6c 2f       	mov	r22, r28
    1468:	88 e8       	ldi	r24, 0x88	; 136
    146a:	90 e0       	ldi	r25, 0x00	; 0
    146c:	0e 94 cf 11 	call	0x239e	; 0x239e <_Z18ST7789_PrintStringPc6colourc>
					ST7789_PrintString((char*)"0", Text_Colour, 5);
				}
				ST7789_PrintString((char*)itoa(time[2 - i], itoa_temp, 10), Text_Colour, 5);
			}
		
			for(int i = 0; i < 4; i++)
    1470:	8f ef       	ldi	r24, 0xFF	; 255
    1472:	c8 1a       	sub	r12, r24
    1474:	d8 0a       	sbc	r13, r24
    1476:	e8 cf       	rjmp	.-48     	; 0x1448 <main+0x484>
    1478:	a1 2c       	mov	r10, r1
    147a:	b1 2c       	mov	r11, r1
			{
				ST7789_SetXYpos(36, 136 + 26 * i);
				ST7789_PrintString((char*)":", Text_Colour, 3);
			}		
			
			for(int i = 0; i < 4; i++)
    147c:	94 e0       	ldi	r25, 0x04	; 4
    147e:	a9 16       	cp	r10, r25
    1480:	b1 04       	cpc	r11, r1
    1482:	0c f0       	brlt	.+2      	; 0x1486 <main+0x4c2>
    1484:	74 c0       	rjmp	.+232    	; 0x156e <main+0x5aa>
    1486:	c1 2c       	mov	r12, r1
    1488:	d1 2c       	mov	r13, r1
			{
				for(int j = 0; j < 2; j++)
    148a:	e2 e0       	ldi	r30, 0x02	; 2
    148c:	ce 16       	cp	r12, r30
    148e:	d1 04       	cpc	r13, r1
    1490:	ac f5       	brge	.+106    	; 0x14fc <main+0x538>
				{
					ST7789_SetXYpos(54 * j, 136 + 26 * i);
    1492:	6a e1       	ldi	r22, 0x1A	; 26
    1494:	a6 9e       	mul	r10, r22
    1496:	60 2d       	mov	r22, r0
    1498:	11 24       	eor	r1, r1
    149a:	68 57       	subi	r22, 0x78	; 120
    149c:	86 e3       	ldi	r24, 0x36	; 54
    149e:	8c 9d       	mul	r24, r12
    14a0:	80 2d       	mov	r24, r0
    14a2:	11 24       	eor	r1, r1
    14a4:	0e 94 59 10 	call	0x20b2	; 0x20b2 <_Z15ST7789_SetXYposcc>
									
					if (time_schedule[i][j] < 10)
    14a8:	f5 01       	movw	r30, r10
    14aa:	ee 0f       	add	r30, r30
    14ac:	ff 1f       	adc	r31, r31
    14ae:	e0 5a       	subi	r30, 0xA0	; 160
    14b0:	ff 4f       	sbci	r31, 0xFF	; 255
    14b2:	ec 0d       	add	r30, r12
    14b4:	fd 1d       	adc	r31, r13
    14b6:	80 81       	ld	r24, Z
    14b8:	8a 30       	cpi	r24, 0x0A	; 10
    14ba:	40 f4       	brcc	.+16     	; 0x14cc <main+0x508>
					{
						ST7789_PrintString((char*)"0", Text_Colour, 3);
    14bc:	23 e0       	ldi	r18, 0x03	; 3
    14be:	41 2f       	mov	r20, r17
    14c0:	5d 2f       	mov	r21, r29
    14c2:	6c 2f       	mov	r22, r28
    14c4:	82 e8       	ldi	r24, 0x82	; 130
    14c6:	90 e0       	ldi	r25, 0x00	; 0
    14c8:	0e 94 cf 11 	call	0x239e	; 0x239e <_Z18ST7789_PrintStringPc6colourc>
					}
					ST7789_PrintString((char*)itoa(time_schedule[i][j], itoa_temp, 10), Text_Colour, 3);
    14cc:	f5 01       	movw	r30, r10
    14ce:	ee 0f       	add	r30, r30
    14d0:	ff 1f       	adc	r31, r31
    14d2:	e0 5a       	subi	r30, 0xA0	; 160
    14d4:	ff 4f       	sbci	r31, 0xFF	; 255
    14d6:	ec 0d       	add	r30, r12
    14d8:	fd 1d       	adc	r31, r13
    14da:	80 81       	ld	r24, Z
    14dc:	4a e0       	ldi	r20, 0x0A	; 10
    14de:	6d e0       	ldi	r22, 0x0D	; 13
    14e0:	76 e0       	ldi	r23, 0x06	; 6
    14e2:	90 e0       	ldi	r25, 0x00	; 0
    14e4:	0e 94 d3 15 	call	0x2ba6	; 0x2ba6 <__itoa_ncheck>
    14e8:	23 e0       	ldi	r18, 0x03	; 3
    14ea:	41 2f       	mov	r20, r17
    14ec:	5d 2f       	mov	r21, r29
    14ee:	6c 2f       	mov	r22, r28
    14f0:	0e 94 cf 11 	call	0x239e	; 0x239e <_Z18ST7789_PrintStringPc6colourc>
				ST7789_PrintString((char*)":", Text_Colour, 3);
			}		
			
			for(int i = 0; i < 4; i++)
			{
				for(int j = 0; j < 2; j++)
    14f4:	ff ef       	ldi	r31, 0xFF	; 255
    14f6:	cf 1a       	sub	r12, r31
    14f8:	df 0a       	sbc	r13, r31
    14fa:	c7 cf       	rjmp	.-114    	; 0x148a <main+0x4c6>
						ST7789_PrintString((char*)"0", Text_Colour, 3);
					}
					ST7789_PrintString((char*)itoa(time_schedule[i][j], itoa_temp, 10), Text_Colour, 3);
				}
				
				switch (i)
    14fc:	21 e0       	ldi	r18, 0x01	; 1
    14fe:	a2 16       	cp	r10, r18
    1500:	b1 04       	cpc	r11, r1
    1502:	b9 f0       	breq	.+46     	; 0x1532 <main+0x56e>
    1504:	24 f4       	brge	.+8      	; 0x150e <main+0x54a>
    1506:	a1 14       	cp	r10, r1
    1508:	b1 04       	cpc	r11, r1
    150a:	51 f0       	breq	.+20     	; 0x1520 <main+0x55c>
    150c:	2c c0       	rjmp	.+88     	; 0x1566 <main+0x5a2>
    150e:	82 e0       	ldi	r24, 0x02	; 2
    1510:	a8 16       	cp	r10, r24
    1512:	b1 04       	cpc	r11, r1
    1514:	b9 f0       	breq	.+46     	; 0x1544 <main+0x580>
    1516:	93 e0       	ldi	r25, 0x03	; 3
    1518:	a9 16       	cp	r10, r25
    151a:	b1 04       	cpc	r11, r1
    151c:	e1 f0       	breq	.+56     	; 0x1556 <main+0x592>
    151e:	23 c0       	rjmp	.+70     	; 0x1566 <main+0x5a2>
				{
					case 0:
						ST7789_PrintString((char*)" Рассвет", Text_Colour, 3);
    1520:	23 e0       	ldi	r18, 0x03	; 3
    1522:	41 2f       	mov	r20, r17
    1524:	5d 2f       	mov	r21, r29
    1526:	6c 2f       	mov	r22, r28
    1528:	8a e8       	ldi	r24, 0x8A	; 138
    152a:	90 e0       	ldi	r25, 0x00	; 0
    152c:	0e 94 cf 11 	call	0x239e	; 0x239e <_Z18ST7789_PrintStringPc6colourc>
						break;
    1530:	1a c0       	rjmp	.+52     	; 0x1566 <main+0x5a2>
						
					case 1:
						ST7789_PrintString((char*)" День   ", Text_Colour, 3);
    1532:	23 e0       	ldi	r18, 0x03	; 3
    1534:	41 2f       	mov	r20, r17
    1536:	5d 2f       	mov	r21, r29
    1538:	6c 2f       	mov	r22, r28
    153a:	83 e9       	ldi	r24, 0x93	; 147
    153c:	90 e0       	ldi	r25, 0x00	; 0
    153e:	0e 94 cf 11 	call	0x239e	; 0x239e <_Z18ST7789_PrintStringPc6colourc>
						break;
    1542:	11 c0       	rjmp	.+34     	; 0x1566 <main+0x5a2>
						
					case 2:
						ST7789_PrintString((char*)" Закат  ", Text_Colour, 3);
    1544:	23 e0       	ldi	r18, 0x03	; 3
    1546:	41 2f       	mov	r20, r17
    1548:	5d 2f       	mov	r21, r29
    154a:	6c 2f       	mov	r22, r28
    154c:	8c e9       	ldi	r24, 0x9C	; 156
    154e:	90 e0       	ldi	r25, 0x00	; 0
    1550:	0e 94 cf 11 	call	0x239e	; 0x239e <_Z18ST7789_PrintStringPc6colourc>
						break;	
    1554:	08 c0       	rjmp	.+16     	; 0x1566 <main+0x5a2>
						
					case 3:
						ST7789_PrintString((char*)" Ночь   ", Text_Colour, 3);
    1556:	23 e0       	ldi	r18, 0x03	; 3
    1558:	41 2f       	mov	r20, r17
    155a:	5d 2f       	mov	r21, r29
    155c:	6c 2f       	mov	r22, r28
    155e:	85 ea       	ldi	r24, 0xA5	; 165
    1560:	90 e0       	ldi	r25, 0x00	; 0
    1562:	0e 94 cf 11 	call	0x239e	; 0x239e <_Z18ST7789_PrintStringPc6colourc>
			{
				ST7789_SetXYpos(36, 136 + 26 * i);
				ST7789_PrintString((char*)":", Text_Colour, 3);
			}		
			
			for(int i = 0; i < 4; i++)
    1566:	ef ef       	ldi	r30, 0xFF	; 255
    1568:	ae 1a       	sub	r10, r30
    156a:	be 0a       	sbc	r11, r30
    156c:	87 cf       	rjmp	.-242    	; 0x147c <main+0x4b8>
			update_second = false;
			** Код НЕнормы **		
		}
		*/
		
		if (mode != setup_second && update_second)
    156e:	80 91 09 06 	lds	r24, 0x0609	; 0x800609 <mode>
    1572:	81 30       	cpi	r24, 0x01	; 1
    1574:	29 f1       	breq	.+74     	; 0x15c0 <main+0x5fc>
    1576:	90 91 79 00 	lds	r25, 0x0079	; 0x800079 <update_second>
    157a:	99 23       	and	r25, r25
    157c:	09 f1       	breq	.+66     	; 0x15c0 <main+0x5fc>
		{
			update_second = false;
    157e:	10 92 79 00 	sts	0x0079, r1	; 0x800079 <update_second>
			
			ST7789_SetXYpos(180, 0);
    1582:	60 e0       	ldi	r22, 0x00	; 0
    1584:	84 eb       	ldi	r24, 0xB4	; 180
    1586:	0e 94 59 10 	call	0x20b2	; 0x20b2 <_Z15ST7789_SetXYposcc>
			if (time[second] < 10)
    158a:	80 91 68 00 	lds	r24, 0x0068	; 0x800068 <time>
    158e:	8a 30       	cpi	r24, 0x0A	; 10
    1590:	40 f4       	brcc	.+16     	; 0x15a2 <main+0x5de>
			{
				ST7789_PrintString((char*)"0", Text_Colour, 5);
    1592:	25 e0       	ldi	r18, 0x05	; 5
    1594:	41 2f       	mov	r20, r17
    1596:	5d 2f       	mov	r21, r29
    1598:	6c 2f       	mov	r22, r28
    159a:	82 e8       	ldi	r24, 0x82	; 130
    159c:	90 e0       	ldi	r25, 0x00	; 0
    159e:	0e 94 cf 11 	call	0x239e	; 0x239e <_Z18ST7789_PrintStringPc6colourc>
			}			
			ST7789_PrintString((char*)itoa(time[second], itoa_temp, 10), Text_Colour, 5);
    15a2:	80 91 68 00 	lds	r24, 0x0068	; 0x800068 <time>
    15a6:	4a e0       	ldi	r20, 0x0A	; 10
    15a8:	6d e0       	ldi	r22, 0x0D	; 13
    15aa:	76 e0       	ldi	r23, 0x06	; 6
    15ac:	90 e0       	ldi	r25, 0x00	; 0
    15ae:	0e 94 d3 15 	call	0x2ba6	; 0x2ba6 <__itoa_ncheck>
    15b2:	25 e0       	ldi	r18, 0x05	; 5
    15b4:	41 2f       	mov	r20, r17
    15b6:	5d 2f       	mov	r21, r29
    15b8:	6c 2f       	mov	r22, r28
    15ba:	0e 94 cf 11 	call	0x239e	; 0x239e <_Z18ST7789_PrintStringPc6colourc>
    15be:	2b c0       	rjmp	.+86     	; 0x1616 <main+0x652>
		}
		else if (mode == setup_second && update_second)
    15c0:	81 30       	cpi	r24, 0x01	; 1
    15c2:	49 f5       	brne	.+82     	; 0x1616 <main+0x652>
    15c4:	80 91 79 00 	lds	r24, 0x0079	; 0x800079 <update_second>
    15c8:	88 23       	and	r24, r24
    15ca:	29 f1       	breq	.+74     	; 0x1616 <main+0x652>
		{
			update_second = false;
    15cc:	10 92 79 00 	sts	0x0079, r1	; 0x800079 <update_second>
			
			ST7789_SetXYpos(180, 0);
    15d0:	60 e0       	ldi	r22, 0x00	; 0
    15d2:	84 eb       	ldi	r24, 0xB4	; 180
    15d4:	0e 94 59 10 	call	0x20b2	; 0x20b2 <_Z15ST7789_SetXYposcc>
			if (time_temp[second] < 10)
    15d8:	80 91 06 06 	lds	r24, 0x0606	; 0x800606 <time_temp>
    15dc:	8a 30       	cpi	r24, 0x0A	; 10
    15de:	40 f4       	brcc	.+16     	; 0x15f0 <main+0x62c>
			{
				ST7789_PrintString((char*)"0", Text_Colour_RED, 5);
    15e0:	25 e0       	ldi	r18, 0x05	; 5
    15e2:	4f 2d       	mov	r20, r15
    15e4:	50 2f       	mov	r21, r16
    15e6:	6e 2d       	mov	r22, r14
    15e8:	82 e8       	ldi	r24, 0x82	; 130
    15ea:	90 e0       	ldi	r25, 0x00	; 0
    15ec:	0e 94 cf 11 	call	0x239e	; 0x239e <_Z18ST7789_PrintStringPc6colourc>
			}
			ST7789_PrintString((char*)itoa(time_temp[second], itoa_temp, 10), Text_Colour_RED, 5);
    15f0:	80 91 06 06 	lds	r24, 0x0606	; 0x800606 <time_temp>
    15f4:	4a e0       	ldi	r20, 0x0A	; 10
    15f6:	6d e0       	ldi	r22, 0x0D	; 13
    15f8:	76 e0       	ldi	r23, 0x06	; 6
    15fa:	90 e0       	ldi	r25, 0x00	; 0
    15fc:	0e 94 d3 15 	call	0x2ba6	; 0x2ba6 <__itoa_ncheck>
    1600:	25 e0       	ldi	r18, 0x05	; 5
    1602:	4f 2d       	mov	r20, r15
    1604:	50 2f       	mov	r21, r16
    1606:	6e 2d       	mov	r22, r14
    1608:	0e 94 cf 11 	call	0x239e	; 0x239e <_Z18ST7789_PrintStringPc6colourc>
			
			if (update_clock)
    160c:	80 91 0c 06 	lds	r24, 0x060C	; 0x80060c <update_clock>
    1610:	81 11       	cpse	r24, r1
			{
				update_clock = false;
    1612:	10 92 0c 06 	sts	0x060C, r1	; 0x80060c <update_clock>
		
		//==============================================================================
		//							Режим настройки минут (2)
		//==============================================================================
		
		if (mode != setup_minute && update_minute)
    1616:	80 91 09 06 	lds	r24, 0x0609	; 0x800609 <mode>
    161a:	82 30       	cpi	r24, 0x02	; 2
    161c:	29 f1       	breq	.+74     	; 0x1668 <main+0x6a4>
    161e:	90 91 78 00 	lds	r25, 0x0078	; 0x800078 <update_minute>
    1622:	99 23       	and	r25, r25
    1624:	09 f1       	breq	.+66     	; 0x1668 <main+0x6a4>
		{
			update_minute = false;
    1626:	10 92 78 00 	sts	0x0078, r1	; 0x800078 <update_minute>
			
			ST7789_SetXYpos(90, 0);
    162a:	60 e0       	ldi	r22, 0x00	; 0
    162c:	8a e5       	ldi	r24, 0x5A	; 90
    162e:	0e 94 59 10 	call	0x20b2	; 0x20b2 <_Z15ST7789_SetXYposcc>
			if (time[minute] < 10)
    1632:	80 91 69 00 	lds	r24, 0x0069	; 0x800069 <time+0x1>
    1636:	8a 30       	cpi	r24, 0x0A	; 10
    1638:	40 f4       	brcc	.+16     	; 0x164a <main+0x686>
			{
				ST7789_PrintString((char*)"0", Text_Colour, 5);
    163a:	25 e0       	ldi	r18, 0x05	; 5
    163c:	41 2f       	mov	r20, r17
    163e:	5d 2f       	mov	r21, r29
    1640:	6c 2f       	mov	r22, r28
    1642:	82 e8       	ldi	r24, 0x82	; 130
    1644:	90 e0       	ldi	r25, 0x00	; 0
    1646:	0e 94 cf 11 	call	0x239e	; 0x239e <_Z18ST7789_PrintStringPc6colourc>
			}
			ST7789_PrintString((char*)itoa(time[minute], itoa_temp, 10), Text_Colour, 5);
    164a:	80 91 69 00 	lds	r24, 0x0069	; 0x800069 <time+0x1>
    164e:	4a e0       	ldi	r20, 0x0A	; 10
    1650:	6d e0       	ldi	r22, 0x0D	; 13
    1652:	76 e0       	ldi	r23, 0x06	; 6
    1654:	90 e0       	ldi	r25, 0x00	; 0
    1656:	0e 94 d3 15 	call	0x2ba6	; 0x2ba6 <__itoa_ncheck>
    165a:	25 e0       	ldi	r18, 0x05	; 5
    165c:	41 2f       	mov	r20, r17
    165e:	5d 2f       	mov	r21, r29
    1660:	6c 2f       	mov	r22, r28
    1662:	0e 94 cf 11 	call	0x239e	; 0x239e <_Z18ST7789_PrintStringPc6colourc>
    1666:	4c c0       	rjmp	.+152    	; 0x1700 <main+0x73c>
			//ST7789_PrintString((char*)":", WHITE1, 5);		
		}
		else if (mode == setup_minute && update_minute)
    1668:	82 30       	cpi	r24, 0x02	; 2
    166a:	09 f0       	breq	.+2      	; 0x166e <main+0x6aa>
    166c:	49 c0       	rjmp	.+146    	; 0x1700 <main+0x73c>
    166e:	80 91 78 00 	lds	r24, 0x0078	; 0x800078 <update_minute>
    1672:	88 23       	and	r24, r24
    1674:	09 f4       	brne	.+2      	; 0x1678 <main+0x6b4>
    1676:	44 c0       	rjmp	.+136    	; 0x1700 <main+0x73c>
		{
			update_minute = false;
    1678:	10 92 78 00 	sts	0x0078, r1	; 0x800078 <update_minute>
			
			ST7789_SetXYpos(90, 0);
    167c:	60 e0       	ldi	r22, 0x00	; 0
    167e:	8a e5       	ldi	r24, 0x5A	; 90
    1680:	0e 94 59 10 	call	0x20b2	; 0x20b2 <_Z15ST7789_SetXYposcc>
			if (time_temp[minute] < 10)
    1684:	80 91 07 06 	lds	r24, 0x0607	; 0x800607 <time_temp+0x1>
    1688:	8a 30       	cpi	r24, 0x0A	; 10
    168a:	40 f4       	brcc	.+16     	; 0x169c <main+0x6d8>
			{
				ST7789_PrintString((char*)"0", Text_Colour_RED, 5);
    168c:	25 e0       	ldi	r18, 0x05	; 5
    168e:	4f 2d       	mov	r20, r15
    1690:	50 2f       	mov	r21, r16
    1692:	6e 2d       	mov	r22, r14
    1694:	82 e8       	ldi	r24, 0x82	; 130
    1696:	90 e0       	ldi	r25, 0x00	; 0
    1698:	0e 94 cf 11 	call	0x239e	; 0x239e <_Z18ST7789_PrintStringPc6colourc>
			}
			ST7789_PrintString((char*)itoa(time_temp[minute], itoa_temp, 10), Text_Colour_RED, 5);
    169c:	80 91 07 06 	lds	r24, 0x0607	; 0x800607 <time_temp+0x1>
    16a0:	4a e0       	ldi	r20, 0x0A	; 10
    16a2:	6d e0       	ldi	r22, 0x0D	; 13
    16a4:	76 e0       	ldi	r23, 0x06	; 6
    16a6:	90 e0       	ldi	r25, 0x00	; 0
    16a8:	0e 94 d3 15 	call	0x2ba6	; 0x2ba6 <__itoa_ncheck>
    16ac:	25 e0       	ldi	r18, 0x05	; 5
    16ae:	4f 2d       	mov	r20, r15
    16b0:	50 2f       	mov	r21, r16
    16b2:	6e 2d       	mov	r22, r14
    16b4:	0e 94 cf 11 	call	0x239e	; 0x239e <_Z18ST7789_PrintStringPc6colourc>
			
			if (update_clock)
    16b8:	80 91 0c 06 	lds	r24, 0x060C	; 0x80060c <update_clock>
    16bc:	88 23       	and	r24, r24
    16be:	01 f1       	breq	.+64     	; 0x1700 <main+0x73c>
			{
				update_clock = false;
    16c0:	10 92 0c 06 	sts	0x060C, r1	; 0x80060c <update_clock>
				{
					ST7789_PrintString((char*)"0", WHITE1, 5);
				}
				ST7789_PrintString((char*)itoa(time_temp[hour], itoa_temp, 10), WHITE1, 5);
				*/
				ST7789_SetXYpos(180, 0);
    16c4:	60 e0       	ldi	r22, 0x00	; 0
    16c6:	84 eb       	ldi	r24, 0xB4	; 180
    16c8:	0e 94 59 10 	call	0x20b2	; 0x20b2 <_Z15ST7789_SetXYposcc>
				if (time_temp[second] < 10)
    16cc:	80 91 06 06 	lds	r24, 0x0606	; 0x800606 <time_temp>
    16d0:	8a 30       	cpi	r24, 0x0A	; 10
    16d2:	40 f4       	brcc	.+16     	; 0x16e4 <main+0x720>
				{
					ST7789_PrintString((char*)"0", Text_Colour, 5);
    16d4:	25 e0       	ldi	r18, 0x05	; 5
    16d6:	41 2f       	mov	r20, r17
    16d8:	5d 2f       	mov	r21, r29
    16da:	6c 2f       	mov	r22, r28
    16dc:	82 e8       	ldi	r24, 0x82	; 130
    16de:	90 e0       	ldi	r25, 0x00	; 0
    16e0:	0e 94 cf 11 	call	0x239e	; 0x239e <_Z18ST7789_PrintStringPc6colourc>
				}
				ST7789_PrintString((char*)itoa(time_temp[second], itoa_temp, 10), Text_Colour, 5);
    16e4:	80 91 06 06 	lds	r24, 0x0606	; 0x800606 <time_temp>
    16e8:	4a e0       	ldi	r20, 0x0A	; 10
    16ea:	6d e0       	ldi	r22, 0x0D	; 13
    16ec:	76 e0       	ldi	r23, 0x06	; 6
    16ee:	90 e0       	ldi	r25, 0x00	; 0
    16f0:	0e 94 d3 15 	call	0x2ba6	; 0x2ba6 <__itoa_ncheck>
    16f4:	25 e0       	ldi	r18, 0x05	; 5
    16f6:	41 2f       	mov	r20, r17
    16f8:	5d 2f       	mov	r21, r29
    16fa:	6c 2f       	mov	r22, r28
    16fc:	0e 94 cf 11 	call	0x239e	; 0x239e <_Z18ST7789_PrintStringPc6colourc>
		
		//==============================================================================
		//							Режим настройки часов (3)
		//==============================================================================
		
		if (mode != setup_hour && update_hour)
    1700:	80 91 09 06 	lds	r24, 0x0609	; 0x800609 <mode>
    1704:	83 30       	cpi	r24, 0x03	; 3
    1706:	29 f1       	breq	.+74     	; 0x1752 <main+0x78e>
    1708:	90 91 77 00 	lds	r25, 0x0077	; 0x800077 <update_hour>
    170c:	99 23       	and	r25, r25
    170e:	09 f1       	breq	.+66     	; 0x1752 <main+0x78e>
		{
			update_hour = false;
    1710:	10 92 77 00 	sts	0x0077, r1	; 0x800077 <update_hour>
			
			ST7789_SetXYpos(0, 0);
    1714:	60 e0       	ldi	r22, 0x00	; 0
    1716:	80 e0       	ldi	r24, 0x00	; 0
    1718:	0e 94 59 10 	call	0x20b2	; 0x20b2 <_Z15ST7789_SetXYposcc>
			if (time[hour] < 10)
    171c:	80 91 6a 00 	lds	r24, 0x006A	; 0x80006a <time+0x2>
    1720:	8a 30       	cpi	r24, 0x0A	; 10
    1722:	40 f4       	brcc	.+16     	; 0x1734 <main+0x770>
			{
				ST7789_PrintString((char*)"0", Text_Colour, 5);
    1724:	25 e0       	ldi	r18, 0x05	; 5
    1726:	41 2f       	mov	r20, r17
    1728:	5d 2f       	mov	r21, r29
    172a:	6c 2f       	mov	r22, r28
    172c:	82 e8       	ldi	r24, 0x82	; 130
    172e:	90 e0       	ldi	r25, 0x00	; 0
    1730:	0e 94 cf 11 	call	0x239e	; 0x239e <_Z18ST7789_PrintStringPc6colourc>
			}
			ST7789_PrintString((char*)itoa(time[hour], itoa_temp, 10), Text_Colour, 5);
    1734:	80 91 6a 00 	lds	r24, 0x006A	; 0x80006a <time+0x2>
    1738:	4a e0       	ldi	r20, 0x0A	; 10
    173a:	6d e0       	ldi	r22, 0x0D	; 13
    173c:	76 e0       	ldi	r23, 0x06	; 6
    173e:	90 e0       	ldi	r25, 0x00	; 0
    1740:	0e 94 d3 15 	call	0x2ba6	; 0x2ba6 <__itoa_ncheck>
    1744:	25 e0       	ldi	r18, 0x05	; 5
    1746:	41 2f       	mov	r20, r17
    1748:	5d 2f       	mov	r21, r29
    174a:	6c 2f       	mov	r22, r28
    174c:	0e 94 cf 11 	call	0x239e	; 0x239e <_Z18ST7789_PrintStringPc6colourc>
    1750:	4c c0       	rjmp	.+152    	; 0x17ea <main+0x826>
			//ST7789_PrintString((char*)":", WHITE1, 5);	
		}
		else if (mode == setup_hour && update_hour)
    1752:	83 30       	cpi	r24, 0x03	; 3
    1754:	09 f0       	breq	.+2      	; 0x1758 <main+0x794>
    1756:	49 c0       	rjmp	.+146    	; 0x17ea <main+0x826>
    1758:	80 91 77 00 	lds	r24, 0x0077	; 0x800077 <update_hour>
    175c:	88 23       	and	r24, r24
    175e:	09 f4       	brne	.+2      	; 0x1762 <main+0x79e>
    1760:	44 c0       	rjmp	.+136    	; 0x17ea <main+0x826>
		{

			update_hour = false;
    1762:	10 92 77 00 	sts	0x0077, r1	; 0x800077 <update_hour>
			
			ST7789_SetXYpos(0, 0);
    1766:	60 e0       	ldi	r22, 0x00	; 0
    1768:	80 e0       	ldi	r24, 0x00	; 0
    176a:	0e 94 59 10 	call	0x20b2	; 0x20b2 <_Z15ST7789_SetXYposcc>
			if (time_temp[hour] < 10)
    176e:	80 91 08 06 	lds	r24, 0x0608	; 0x800608 <time_temp+0x2>
    1772:	8a 30       	cpi	r24, 0x0A	; 10
    1774:	40 f4       	brcc	.+16     	; 0x1786 <main+0x7c2>
			{
				ST7789_PrintString((char*)"0", Text_Colour_RED, 5);
    1776:	25 e0       	ldi	r18, 0x05	; 5
    1778:	4f 2d       	mov	r20, r15
    177a:	50 2f       	mov	r21, r16
    177c:	6e 2d       	mov	r22, r14
    177e:	82 e8       	ldi	r24, 0x82	; 130
    1780:	90 e0       	ldi	r25, 0x00	; 0
    1782:	0e 94 cf 11 	call	0x239e	; 0x239e <_Z18ST7789_PrintStringPc6colourc>
			}
			ST7789_PrintString((char*)itoa(time_temp[hour], itoa_temp, 10), Text_Colour_RED, 5);
    1786:	80 91 08 06 	lds	r24, 0x0608	; 0x800608 <time_temp+0x2>
    178a:	4a e0       	ldi	r20, 0x0A	; 10
    178c:	6d e0       	ldi	r22, 0x0D	; 13
    178e:	76 e0       	ldi	r23, 0x06	; 6
    1790:	90 e0       	ldi	r25, 0x00	; 0
    1792:	0e 94 d3 15 	call	0x2ba6	; 0x2ba6 <__itoa_ncheck>
    1796:	25 e0       	ldi	r18, 0x05	; 5
    1798:	4f 2d       	mov	r20, r15
    179a:	50 2f       	mov	r21, r16
    179c:	6e 2d       	mov	r22, r14
    179e:	0e 94 cf 11 	call	0x239e	; 0x239e <_Z18ST7789_PrintStringPc6colourc>
				
			if (update_clock)
    17a2:	80 91 0c 06 	lds	r24, 0x060C	; 0x80060c <update_clock>
    17a6:	88 23       	and	r24, r24
    17a8:	01 f1       	breq	.+64     	; 0x17ea <main+0x826>
			{
				update_clock = false;
    17aa:	10 92 0c 06 	sts	0x060C, r1	; 0x80060c <update_clock>
					
				ST7789_SetXYpos(90, 0);
    17ae:	60 e0       	ldi	r22, 0x00	; 0
    17b0:	8a e5       	ldi	r24, 0x5A	; 90
    17b2:	0e 94 59 10 	call	0x20b2	; 0x20b2 <_Z15ST7789_SetXYposcc>
				if (time_temp[minute] < 10)
    17b6:	80 91 07 06 	lds	r24, 0x0607	; 0x800607 <time_temp+0x1>
    17ba:	8a 30       	cpi	r24, 0x0A	; 10
    17bc:	40 f4       	brcc	.+16     	; 0x17ce <main+0x80a>
				{
					ST7789_PrintString((char*)"0", Text_Colour, 5);
    17be:	25 e0       	ldi	r18, 0x05	; 5
    17c0:	41 2f       	mov	r20, r17
    17c2:	5d 2f       	mov	r21, r29
    17c4:	6c 2f       	mov	r22, r28
    17c6:	82 e8       	ldi	r24, 0x82	; 130
    17c8:	90 e0       	ldi	r25, 0x00	; 0
    17ca:	0e 94 cf 11 	call	0x239e	; 0x239e <_Z18ST7789_PrintStringPc6colourc>
				}
				ST7789_PrintString((char*)itoa(time_temp[minute], itoa_temp, 10), Text_Colour, 5);
    17ce:	80 91 07 06 	lds	r24, 0x0607	; 0x800607 <time_temp+0x1>
    17d2:	4a e0       	ldi	r20, 0x0A	; 10
    17d4:	6d e0       	ldi	r22, 0x0D	; 13
    17d6:	76 e0       	ldi	r23, 0x06	; 6
    17d8:	90 e0       	ldi	r25, 0x00	; 0
    17da:	0e 94 d3 15 	call	0x2ba6	; 0x2ba6 <__itoa_ncheck>
    17de:	25 e0       	ldi	r18, 0x05	; 5
    17e0:	41 2f       	mov	r20, r17
    17e2:	5d 2f       	mov	r21, r29
    17e4:	6c 2f       	mov	r22, r28
    17e6:	0e 94 cf 11 	call	0x239e	; 0x239e <_Z18ST7789_PrintStringPc6colourc>
		
		//==============================================================================
		//						Режим настройки расвета (4)
		//==============================================================================
		
		if (mode != setup_hour_sunrise && update_hour_sunrise)
    17ea:	80 91 09 06 	lds	r24, 0x0609	; 0x800609 <mode>
    17ee:	84 30       	cpi	r24, 0x04	; 4
    17f0:	29 f1       	breq	.+74     	; 0x183c <main+0x878>
    17f2:	90 91 76 00 	lds	r25, 0x0076	; 0x800076 <update_hour_sunrise>
    17f6:	99 23       	and	r25, r25
    17f8:	09 f1       	breq	.+66     	; 0x183c <main+0x878>
		{
			update_hour_sunrise = false;
    17fa:	10 92 76 00 	sts	0x0076, r1	; 0x800076 <update_hour_sunrise>
			
			ST7789_SetXYpos(0, 136);
    17fe:	68 e8       	ldi	r22, 0x88	; 136
    1800:	80 e0       	ldi	r24, 0x00	; 0
    1802:	0e 94 59 10 	call	0x20b2	; 0x20b2 <_Z15ST7789_SetXYposcc>
			if (time_schedule[0][0] < 10)
    1806:	80 91 60 00 	lds	r24, 0x0060	; 0x800060 <__DATA_REGION_ORIGIN__>
    180a:	8a 30       	cpi	r24, 0x0A	; 10
    180c:	40 f4       	brcc	.+16     	; 0x181e <main+0x85a>
			{
				ST7789_PrintString((char*)"0", Text_Colour, 3);
    180e:	23 e0       	ldi	r18, 0x03	; 3
    1810:	41 2f       	mov	r20, r17
    1812:	5d 2f       	mov	r21, r29
    1814:	6c 2f       	mov	r22, r28
    1816:	82 e8       	ldi	r24, 0x82	; 130
    1818:	90 e0       	ldi	r25, 0x00	; 0
    181a:	0e 94 cf 11 	call	0x239e	; 0x239e <_Z18ST7789_PrintStringPc6colourc>
			}
			ST7789_PrintString((char*)itoa(time_schedule[0][0], itoa_temp, 10), Text_Colour, 3);
    181e:	80 91 60 00 	lds	r24, 0x0060	; 0x800060 <__DATA_REGION_ORIGIN__>
    1822:	4a e0       	ldi	r20, 0x0A	; 10
    1824:	6d e0       	ldi	r22, 0x0D	; 13
    1826:	76 e0       	ldi	r23, 0x06	; 6
    1828:	90 e0       	ldi	r25, 0x00	; 0
    182a:	0e 94 d3 15 	call	0x2ba6	; 0x2ba6 <__itoa_ncheck>
    182e:	23 e0       	ldi	r18, 0x03	; 3
    1830:	41 2f       	mov	r20, r17
    1832:	5d 2f       	mov	r21, r29
    1834:	6c 2f       	mov	r22, r28
    1836:	0e 94 cf 11 	call	0x239e	; 0x239e <_Z18ST7789_PrintStringPc6colourc>
    183a:	26 c0       	rjmp	.+76     	; 0x1888 <main+0x8c4>
		}
		else if (mode == setup_hour_sunrise && update_hour_sunrise)
    183c:	84 30       	cpi	r24, 0x04	; 4
    183e:	21 f5       	brne	.+72     	; 0x1888 <main+0x8c4>
    1840:	80 91 76 00 	lds	r24, 0x0076	; 0x800076 <update_hour_sunrise>
    1844:	88 23       	and	r24, r24
    1846:	01 f1       	breq	.+64     	; 0x1888 <main+0x8c4>
		{
			update_hour_sunrise = false;
    1848:	10 92 76 00 	sts	0x0076, r1	; 0x800076 <update_hour_sunrise>
				
			ST7789_SetXYpos(0, 136);
    184c:	68 e8       	ldi	r22, 0x88	; 136
    184e:	80 e0       	ldi	r24, 0x00	; 0
    1850:	0e 94 59 10 	call	0x20b2	; 0x20b2 <_Z15ST7789_SetXYposcc>
			if (time_schedule[0][0] < 10)
    1854:	80 91 60 00 	lds	r24, 0x0060	; 0x800060 <__DATA_REGION_ORIGIN__>
    1858:	8a 30       	cpi	r24, 0x0A	; 10
    185a:	40 f4       	brcc	.+16     	; 0x186c <main+0x8a8>
			{
				ST7789_PrintString((char*)"0", Text_Colour_RED, 3);
    185c:	23 e0       	ldi	r18, 0x03	; 3
    185e:	4f 2d       	mov	r20, r15
    1860:	50 2f       	mov	r21, r16
    1862:	6e 2d       	mov	r22, r14
    1864:	82 e8       	ldi	r24, 0x82	; 130
    1866:	90 e0       	ldi	r25, 0x00	; 0
    1868:	0e 94 cf 11 	call	0x239e	; 0x239e <_Z18ST7789_PrintStringPc6colourc>
			}
			ST7789_PrintString((char*)itoa(time_schedule[0][0], itoa_temp, 10), Text_Colour_RED, 3);
    186c:	80 91 60 00 	lds	r24, 0x0060	; 0x800060 <__DATA_REGION_ORIGIN__>
    1870:	4a e0       	ldi	r20, 0x0A	; 10
    1872:	6d e0       	ldi	r22, 0x0D	; 13
    1874:	76 e0       	ldi	r23, 0x06	; 6
    1876:	90 e0       	ldi	r25, 0x00	; 0
    1878:	0e 94 d3 15 	call	0x2ba6	; 0x2ba6 <__itoa_ncheck>
    187c:	23 e0       	ldi	r18, 0x03	; 3
    187e:	4f 2d       	mov	r20, r15
    1880:	50 2f       	mov	r21, r16
    1882:	6e 2d       	mov	r22, r14
    1884:	0e 94 cf 11 	call	0x239e	; 0x239e <_Z18ST7789_PrintStringPc6colourc>
		
		//==============================================================================
		//						Режим настройки расвета (5)
		//==============================================================================
		
		if (mode != setup_minute_sunrise && update_minute_sunrise)
    1888:	80 91 09 06 	lds	r24, 0x0609	; 0x800609 <mode>
    188c:	85 30       	cpi	r24, 0x05	; 5
    188e:	29 f1       	breq	.+74     	; 0x18da <main+0x916>
    1890:	90 91 75 00 	lds	r25, 0x0075	; 0x800075 <update_minute_sunrise>
    1894:	99 23       	and	r25, r25
    1896:	09 f1       	breq	.+66     	; 0x18da <main+0x916>
		{
			update_minute_sunrise = false;
    1898:	10 92 75 00 	sts	0x0075, r1	; 0x800075 <update_minute_sunrise>
			
			ST7789_SetXYpos(54, 136);
    189c:	68 e8       	ldi	r22, 0x88	; 136
    189e:	86 e3       	ldi	r24, 0x36	; 54
    18a0:	0e 94 59 10 	call	0x20b2	; 0x20b2 <_Z15ST7789_SetXYposcc>
			if (time_schedule[0][1] < 10)
    18a4:	80 91 61 00 	lds	r24, 0x0061	; 0x800061 <__DATA_REGION_ORIGIN__+0x1>
    18a8:	8a 30       	cpi	r24, 0x0A	; 10
    18aa:	40 f4       	brcc	.+16     	; 0x18bc <main+0x8f8>
			{
				ST7789_PrintString((char*)"0", Text_Colour, 3);
    18ac:	23 e0       	ldi	r18, 0x03	; 3
    18ae:	41 2f       	mov	r20, r17
    18b0:	5d 2f       	mov	r21, r29
    18b2:	6c 2f       	mov	r22, r28
    18b4:	82 e8       	ldi	r24, 0x82	; 130
    18b6:	90 e0       	ldi	r25, 0x00	; 0
    18b8:	0e 94 cf 11 	call	0x239e	; 0x239e <_Z18ST7789_PrintStringPc6colourc>
			}
			ST7789_PrintString((char*)itoa(time_schedule[0][1], itoa_temp, 10), Text_Colour, 3);
    18bc:	80 91 61 00 	lds	r24, 0x0061	; 0x800061 <__DATA_REGION_ORIGIN__+0x1>
    18c0:	4a e0       	ldi	r20, 0x0A	; 10
    18c2:	6d e0       	ldi	r22, 0x0D	; 13
    18c4:	76 e0       	ldi	r23, 0x06	; 6
    18c6:	90 e0       	ldi	r25, 0x00	; 0
    18c8:	0e 94 d3 15 	call	0x2ba6	; 0x2ba6 <__itoa_ncheck>
    18cc:	23 e0       	ldi	r18, 0x03	; 3
    18ce:	41 2f       	mov	r20, r17
    18d0:	5d 2f       	mov	r21, r29
    18d2:	6c 2f       	mov	r22, r28
    18d4:	0e 94 cf 11 	call	0x239e	; 0x239e <_Z18ST7789_PrintStringPc6colourc>
    18d8:	4c c0       	rjmp	.+152    	; 0x1972 <main+0x9ae>
		}
		else if (mode == setup_minute_sunrise && update_minute_sunrise)
    18da:	85 30       	cpi	r24, 0x05	; 5
    18dc:	09 f0       	breq	.+2      	; 0x18e0 <main+0x91c>
    18de:	49 c0       	rjmp	.+146    	; 0x1972 <main+0x9ae>
    18e0:	80 91 75 00 	lds	r24, 0x0075	; 0x800075 <update_minute_sunrise>
    18e4:	88 23       	and	r24, r24
    18e6:	09 f4       	brne	.+2      	; 0x18ea <main+0x926>
    18e8:	44 c0       	rjmp	.+136    	; 0x1972 <main+0x9ae>
		{
			update_minute_sunrise = false;
    18ea:	10 92 75 00 	sts	0x0075, r1	; 0x800075 <update_minute_sunrise>
			
			ST7789_SetXYpos(54, 136);
    18ee:	68 e8       	ldi	r22, 0x88	; 136
    18f0:	86 e3       	ldi	r24, 0x36	; 54
    18f2:	0e 94 59 10 	call	0x20b2	; 0x20b2 <_Z15ST7789_SetXYposcc>
			if (time_schedule[0][1] < 10)
    18f6:	80 91 61 00 	lds	r24, 0x0061	; 0x800061 <__DATA_REGION_ORIGIN__+0x1>
    18fa:	8a 30       	cpi	r24, 0x0A	; 10
    18fc:	40 f4       	brcc	.+16     	; 0x190e <main+0x94a>
			{
				ST7789_PrintString((char*)"0", Text_Colour_RED, 3);
    18fe:	23 e0       	ldi	r18, 0x03	; 3
    1900:	4f 2d       	mov	r20, r15
    1902:	50 2f       	mov	r21, r16
    1904:	6e 2d       	mov	r22, r14
    1906:	82 e8       	ldi	r24, 0x82	; 130
    1908:	90 e0       	ldi	r25, 0x00	; 0
    190a:	0e 94 cf 11 	call	0x239e	; 0x239e <_Z18ST7789_PrintStringPc6colourc>
			}
			ST7789_PrintString((char*)itoa(time_schedule[0][1], itoa_temp, 10), Text_Colour_RED, 3);
    190e:	80 91 61 00 	lds	r24, 0x0061	; 0x800061 <__DATA_REGION_ORIGIN__+0x1>
    1912:	4a e0       	ldi	r20, 0x0A	; 10
    1914:	6d e0       	ldi	r22, 0x0D	; 13
    1916:	76 e0       	ldi	r23, 0x06	; 6
    1918:	90 e0       	ldi	r25, 0x00	; 0
    191a:	0e 94 d3 15 	call	0x2ba6	; 0x2ba6 <__itoa_ncheck>
    191e:	23 e0       	ldi	r18, 0x03	; 3
    1920:	4f 2d       	mov	r20, r15
    1922:	50 2f       	mov	r21, r16
    1924:	6e 2d       	mov	r22, r14
    1926:	0e 94 cf 11 	call	0x239e	; 0x239e <_Z18ST7789_PrintStringPc6colourc>
			
			if (update_schedule)
    192a:	80 91 0b 06 	lds	r24, 0x060B	; 0x80060b <update_schedule>
    192e:	88 23       	and	r24, r24
    1930:	01 f1       	breq	.+64     	; 0x1972 <main+0x9ae>
			{
				update_schedule = false;
    1932:	10 92 0b 06 	sts	0x060B, r1	; 0x80060b <update_schedule>
				
				ST7789_SetXYpos(0, 136);
    1936:	68 e8       	ldi	r22, 0x88	; 136
    1938:	80 e0       	ldi	r24, 0x00	; 0
    193a:	0e 94 59 10 	call	0x20b2	; 0x20b2 <_Z15ST7789_SetXYposcc>
				if (time_schedule[0][0] < 10)
    193e:	80 91 60 00 	lds	r24, 0x0060	; 0x800060 <__DATA_REGION_ORIGIN__>
    1942:	8a 30       	cpi	r24, 0x0A	; 10
    1944:	40 f4       	brcc	.+16     	; 0x1956 <main+0x992>
				{
					ST7789_PrintString((char*)"0", Text_Colour, 3);
    1946:	23 e0       	ldi	r18, 0x03	; 3
    1948:	41 2f       	mov	r20, r17
    194a:	5d 2f       	mov	r21, r29
    194c:	6c 2f       	mov	r22, r28
    194e:	82 e8       	ldi	r24, 0x82	; 130
    1950:	90 e0       	ldi	r25, 0x00	; 0
    1952:	0e 94 cf 11 	call	0x239e	; 0x239e <_Z18ST7789_PrintStringPc6colourc>
				}
				ST7789_PrintString((char*)itoa(time_schedule[0][0], itoa_temp, 10), Text_Colour, 3);
    1956:	80 91 60 00 	lds	r24, 0x0060	; 0x800060 <__DATA_REGION_ORIGIN__>
    195a:	4a e0       	ldi	r20, 0x0A	; 10
    195c:	6d e0       	ldi	r22, 0x0D	; 13
    195e:	76 e0       	ldi	r23, 0x06	; 6
    1960:	90 e0       	ldi	r25, 0x00	; 0
    1962:	0e 94 d3 15 	call	0x2ba6	; 0x2ba6 <__itoa_ncheck>
    1966:	23 e0       	ldi	r18, 0x03	; 3
    1968:	41 2f       	mov	r20, r17
    196a:	5d 2f       	mov	r21, r29
    196c:	6c 2f       	mov	r22, r28
    196e:	0e 94 cf 11 	call	0x239e	; 0x239e <_Z18ST7789_PrintStringPc6colourc>

		//==============================================================================
		//						Режим настройки дня (6)
		//==============================================================================
		
		if (mode != setup_hour_day && update_hour_day)
    1972:	80 91 09 06 	lds	r24, 0x0609	; 0x800609 <mode>
    1976:	86 30       	cpi	r24, 0x06	; 6
    1978:	29 f1       	breq	.+74     	; 0x19c4 <main+0xa00>
    197a:	90 91 74 00 	lds	r25, 0x0074	; 0x800074 <update_hour_day>
    197e:	99 23       	and	r25, r25
    1980:	09 f1       	breq	.+66     	; 0x19c4 <main+0xa00>
		{
			update_hour_day = false;
    1982:	10 92 74 00 	sts	0x0074, r1	; 0x800074 <update_hour_day>
			
			ST7789_SetXYpos(0, 162);
    1986:	62 ea       	ldi	r22, 0xA2	; 162
    1988:	80 e0       	ldi	r24, 0x00	; 0
    198a:	0e 94 59 10 	call	0x20b2	; 0x20b2 <_Z15ST7789_SetXYposcc>
			if (time_schedule[1][0] < 10)
    198e:	80 91 62 00 	lds	r24, 0x0062	; 0x800062 <__DATA_REGION_ORIGIN__+0x2>
    1992:	8a 30       	cpi	r24, 0x0A	; 10
    1994:	40 f4       	brcc	.+16     	; 0x19a6 <main+0x9e2>
			{
				ST7789_PrintString((char*)"0", Text_Colour, 3);
    1996:	23 e0       	ldi	r18, 0x03	; 3
    1998:	41 2f       	mov	r20, r17
    199a:	5d 2f       	mov	r21, r29
    199c:	6c 2f       	mov	r22, r28
    199e:	82 e8       	ldi	r24, 0x82	; 130
    19a0:	90 e0       	ldi	r25, 0x00	; 0
    19a2:	0e 94 cf 11 	call	0x239e	; 0x239e <_Z18ST7789_PrintStringPc6colourc>
			}
			ST7789_PrintString((char*)itoa(time_schedule[1][0], itoa_temp, 10), Text_Colour, 3);
    19a6:	80 91 62 00 	lds	r24, 0x0062	; 0x800062 <__DATA_REGION_ORIGIN__+0x2>
    19aa:	4a e0       	ldi	r20, 0x0A	; 10
    19ac:	6d e0       	ldi	r22, 0x0D	; 13
    19ae:	76 e0       	ldi	r23, 0x06	; 6
    19b0:	90 e0       	ldi	r25, 0x00	; 0
    19b2:	0e 94 d3 15 	call	0x2ba6	; 0x2ba6 <__itoa_ncheck>
    19b6:	23 e0       	ldi	r18, 0x03	; 3
    19b8:	41 2f       	mov	r20, r17
    19ba:	5d 2f       	mov	r21, r29
    19bc:	6c 2f       	mov	r22, r28
    19be:	0e 94 cf 11 	call	0x239e	; 0x239e <_Z18ST7789_PrintStringPc6colourc>
    19c2:	4c c0       	rjmp	.+152    	; 0x1a5c <main+0xa98>
		}
		else if (mode == setup_hour_day && update_hour_day)
    19c4:	86 30       	cpi	r24, 0x06	; 6
    19c6:	09 f0       	breq	.+2      	; 0x19ca <main+0xa06>
    19c8:	49 c0       	rjmp	.+146    	; 0x1a5c <main+0xa98>
    19ca:	80 91 74 00 	lds	r24, 0x0074	; 0x800074 <update_hour_day>
    19ce:	88 23       	and	r24, r24
    19d0:	09 f4       	brne	.+2      	; 0x19d4 <main+0xa10>
    19d2:	44 c0       	rjmp	.+136    	; 0x1a5c <main+0xa98>
		{
			update_hour_day = false;
    19d4:	10 92 74 00 	sts	0x0074, r1	; 0x800074 <update_hour_day>
			
			ST7789_SetXYpos(0, 162);
    19d8:	62 ea       	ldi	r22, 0xA2	; 162
    19da:	80 e0       	ldi	r24, 0x00	; 0
    19dc:	0e 94 59 10 	call	0x20b2	; 0x20b2 <_Z15ST7789_SetXYposcc>
			if (time_schedule[1][0] < 10)
    19e0:	80 91 62 00 	lds	r24, 0x0062	; 0x800062 <__DATA_REGION_ORIGIN__+0x2>
    19e4:	8a 30       	cpi	r24, 0x0A	; 10
    19e6:	40 f4       	brcc	.+16     	; 0x19f8 <main+0xa34>
			{
				ST7789_PrintString((char*)"0", Text_Colour_RED, 3);
    19e8:	23 e0       	ldi	r18, 0x03	; 3
    19ea:	4f 2d       	mov	r20, r15
    19ec:	50 2f       	mov	r21, r16
    19ee:	6e 2d       	mov	r22, r14
    19f0:	82 e8       	ldi	r24, 0x82	; 130
    19f2:	90 e0       	ldi	r25, 0x00	; 0
    19f4:	0e 94 cf 11 	call	0x239e	; 0x239e <_Z18ST7789_PrintStringPc6colourc>
			}
			ST7789_PrintString((char*)itoa(time_schedule[1][0], itoa_temp, 10), Text_Colour_RED, 3);
    19f8:	80 91 62 00 	lds	r24, 0x0062	; 0x800062 <__DATA_REGION_ORIGIN__+0x2>
    19fc:	4a e0       	ldi	r20, 0x0A	; 10
    19fe:	6d e0       	ldi	r22, 0x0D	; 13
    1a00:	76 e0       	ldi	r23, 0x06	; 6
    1a02:	90 e0       	ldi	r25, 0x00	; 0
    1a04:	0e 94 d3 15 	call	0x2ba6	; 0x2ba6 <__itoa_ncheck>
    1a08:	23 e0       	ldi	r18, 0x03	; 3
    1a0a:	4f 2d       	mov	r20, r15
    1a0c:	50 2f       	mov	r21, r16
    1a0e:	6e 2d       	mov	r22, r14
    1a10:	0e 94 cf 11 	call	0x239e	; 0x239e <_Z18ST7789_PrintStringPc6colourc>
			
			if (update_schedule)
    1a14:	80 91 0b 06 	lds	r24, 0x060B	; 0x80060b <update_schedule>
    1a18:	88 23       	and	r24, r24
    1a1a:	01 f1       	breq	.+64     	; 0x1a5c <main+0xa98>
			{
				update_schedule = false;
    1a1c:	10 92 0b 06 	sts	0x060B, r1	; 0x80060b <update_schedule>
				
				ST7789_SetXYpos(54, 136);
    1a20:	68 e8       	ldi	r22, 0x88	; 136
    1a22:	86 e3       	ldi	r24, 0x36	; 54
    1a24:	0e 94 59 10 	call	0x20b2	; 0x20b2 <_Z15ST7789_SetXYposcc>
				if (time_schedule[0][1] < 10)
    1a28:	80 91 61 00 	lds	r24, 0x0061	; 0x800061 <__DATA_REGION_ORIGIN__+0x1>
    1a2c:	8a 30       	cpi	r24, 0x0A	; 10
    1a2e:	40 f4       	brcc	.+16     	; 0x1a40 <main+0xa7c>
				{
					ST7789_PrintString((char*)"0", Text_Colour, 3);
    1a30:	23 e0       	ldi	r18, 0x03	; 3
    1a32:	41 2f       	mov	r20, r17
    1a34:	5d 2f       	mov	r21, r29
    1a36:	6c 2f       	mov	r22, r28
    1a38:	82 e8       	ldi	r24, 0x82	; 130
    1a3a:	90 e0       	ldi	r25, 0x00	; 0
    1a3c:	0e 94 cf 11 	call	0x239e	; 0x239e <_Z18ST7789_PrintStringPc6colourc>
				}
				ST7789_PrintString((char*)itoa(time_schedule[0][1], itoa_temp, 10), Text_Colour, 3);
    1a40:	80 91 61 00 	lds	r24, 0x0061	; 0x800061 <__DATA_REGION_ORIGIN__+0x1>
    1a44:	4a e0       	ldi	r20, 0x0A	; 10
    1a46:	6d e0       	ldi	r22, 0x0D	; 13
    1a48:	76 e0       	ldi	r23, 0x06	; 6
    1a4a:	90 e0       	ldi	r25, 0x00	; 0
    1a4c:	0e 94 d3 15 	call	0x2ba6	; 0x2ba6 <__itoa_ncheck>
    1a50:	23 e0       	ldi	r18, 0x03	; 3
    1a52:	41 2f       	mov	r20, r17
    1a54:	5d 2f       	mov	r21, r29
    1a56:	6c 2f       	mov	r22, r28
    1a58:	0e 94 cf 11 	call	0x239e	; 0x239e <_Z18ST7789_PrintStringPc6colourc>
		
		//==============================================================================
		//						Режим настройки дня (7)
		//==============================================================================
		
		if (mode != setup_minute_day && update_minute_day)
    1a5c:	80 91 09 06 	lds	r24, 0x0609	; 0x800609 <mode>
    1a60:	87 30       	cpi	r24, 0x07	; 7
    1a62:	29 f1       	breq	.+74     	; 0x1aae <main+0xaea>
    1a64:	90 91 73 00 	lds	r25, 0x0073	; 0x800073 <update_minute_day>
    1a68:	99 23       	and	r25, r25
    1a6a:	09 f1       	breq	.+66     	; 0x1aae <main+0xaea>
		{
			update_minute_day = false;
    1a6c:	10 92 73 00 	sts	0x0073, r1	; 0x800073 <update_minute_day>
			
			ST7789_SetXYpos(54, 162);
    1a70:	62 ea       	ldi	r22, 0xA2	; 162
    1a72:	86 e3       	ldi	r24, 0x36	; 54
    1a74:	0e 94 59 10 	call	0x20b2	; 0x20b2 <_Z15ST7789_SetXYposcc>
			if (time_schedule[1][1] < 10)
    1a78:	80 91 63 00 	lds	r24, 0x0063	; 0x800063 <__DATA_REGION_ORIGIN__+0x3>
    1a7c:	8a 30       	cpi	r24, 0x0A	; 10
    1a7e:	40 f4       	brcc	.+16     	; 0x1a90 <main+0xacc>
			{
				ST7789_PrintString((char*)"0", Text_Colour, 3);
    1a80:	23 e0       	ldi	r18, 0x03	; 3
    1a82:	41 2f       	mov	r20, r17
    1a84:	5d 2f       	mov	r21, r29
    1a86:	6c 2f       	mov	r22, r28
    1a88:	82 e8       	ldi	r24, 0x82	; 130
    1a8a:	90 e0       	ldi	r25, 0x00	; 0
    1a8c:	0e 94 cf 11 	call	0x239e	; 0x239e <_Z18ST7789_PrintStringPc6colourc>
			}
			ST7789_PrintString((char*)itoa(time_schedule[1][1], itoa_temp, 10), Text_Colour, 3);
    1a90:	80 91 63 00 	lds	r24, 0x0063	; 0x800063 <__DATA_REGION_ORIGIN__+0x3>
    1a94:	4a e0       	ldi	r20, 0x0A	; 10
    1a96:	6d e0       	ldi	r22, 0x0D	; 13
    1a98:	76 e0       	ldi	r23, 0x06	; 6
    1a9a:	90 e0       	ldi	r25, 0x00	; 0
    1a9c:	0e 94 d3 15 	call	0x2ba6	; 0x2ba6 <__itoa_ncheck>
    1aa0:	23 e0       	ldi	r18, 0x03	; 3
    1aa2:	41 2f       	mov	r20, r17
    1aa4:	5d 2f       	mov	r21, r29
    1aa6:	6c 2f       	mov	r22, r28
    1aa8:	0e 94 cf 11 	call	0x239e	; 0x239e <_Z18ST7789_PrintStringPc6colourc>
    1aac:	4c c0       	rjmp	.+152    	; 0x1b46 <main+0xb82>
		}
		else if (mode == setup_minute_day && update_minute_day)
    1aae:	87 30       	cpi	r24, 0x07	; 7
    1ab0:	09 f0       	breq	.+2      	; 0x1ab4 <main+0xaf0>
    1ab2:	49 c0       	rjmp	.+146    	; 0x1b46 <main+0xb82>
    1ab4:	80 91 73 00 	lds	r24, 0x0073	; 0x800073 <update_minute_day>
    1ab8:	88 23       	and	r24, r24
    1aba:	09 f4       	brne	.+2      	; 0x1abe <main+0xafa>
    1abc:	44 c0       	rjmp	.+136    	; 0x1b46 <main+0xb82>
		{
			update_minute_day = false;
    1abe:	10 92 73 00 	sts	0x0073, r1	; 0x800073 <update_minute_day>
			
			ST7789_SetXYpos(54, 162);
    1ac2:	62 ea       	ldi	r22, 0xA2	; 162
    1ac4:	86 e3       	ldi	r24, 0x36	; 54
    1ac6:	0e 94 59 10 	call	0x20b2	; 0x20b2 <_Z15ST7789_SetXYposcc>
			if (time_schedule[1][1] < 10)
    1aca:	80 91 63 00 	lds	r24, 0x0063	; 0x800063 <__DATA_REGION_ORIGIN__+0x3>
    1ace:	8a 30       	cpi	r24, 0x0A	; 10
    1ad0:	40 f4       	brcc	.+16     	; 0x1ae2 <main+0xb1e>
			{
				ST7789_PrintString((char*)"0", Text_Colour_RED, 3);
    1ad2:	23 e0       	ldi	r18, 0x03	; 3
    1ad4:	4f 2d       	mov	r20, r15
    1ad6:	50 2f       	mov	r21, r16
    1ad8:	6e 2d       	mov	r22, r14
    1ada:	82 e8       	ldi	r24, 0x82	; 130
    1adc:	90 e0       	ldi	r25, 0x00	; 0
    1ade:	0e 94 cf 11 	call	0x239e	; 0x239e <_Z18ST7789_PrintStringPc6colourc>
			}
			ST7789_PrintString((char*)itoa(time_schedule[1][1], itoa_temp, 10), Text_Colour_RED, 3);
    1ae2:	80 91 63 00 	lds	r24, 0x0063	; 0x800063 <__DATA_REGION_ORIGIN__+0x3>
    1ae6:	4a e0       	ldi	r20, 0x0A	; 10
    1ae8:	6d e0       	ldi	r22, 0x0D	; 13
    1aea:	76 e0       	ldi	r23, 0x06	; 6
    1aec:	90 e0       	ldi	r25, 0x00	; 0
    1aee:	0e 94 d3 15 	call	0x2ba6	; 0x2ba6 <__itoa_ncheck>
    1af2:	23 e0       	ldi	r18, 0x03	; 3
    1af4:	4f 2d       	mov	r20, r15
    1af6:	50 2f       	mov	r21, r16
    1af8:	6e 2d       	mov	r22, r14
    1afa:	0e 94 cf 11 	call	0x239e	; 0x239e <_Z18ST7789_PrintStringPc6colourc>
			
			if (update_schedule)
    1afe:	80 91 0b 06 	lds	r24, 0x060B	; 0x80060b <update_schedule>
    1b02:	88 23       	and	r24, r24
    1b04:	01 f1       	breq	.+64     	; 0x1b46 <main+0xb82>
			{
				update_schedule = false;
    1b06:	10 92 0b 06 	sts	0x060B, r1	; 0x80060b <update_schedule>
				
				ST7789_SetXYpos(0, 162);
    1b0a:	62 ea       	ldi	r22, 0xA2	; 162
    1b0c:	80 e0       	ldi	r24, 0x00	; 0
    1b0e:	0e 94 59 10 	call	0x20b2	; 0x20b2 <_Z15ST7789_SetXYposcc>
				if (time_schedule[1][0] < 10)
    1b12:	80 91 62 00 	lds	r24, 0x0062	; 0x800062 <__DATA_REGION_ORIGIN__+0x2>
    1b16:	8a 30       	cpi	r24, 0x0A	; 10
    1b18:	40 f4       	brcc	.+16     	; 0x1b2a <main+0xb66>
				{
					ST7789_PrintString((char*)"0", Text_Colour, 3);
    1b1a:	23 e0       	ldi	r18, 0x03	; 3
    1b1c:	41 2f       	mov	r20, r17
    1b1e:	5d 2f       	mov	r21, r29
    1b20:	6c 2f       	mov	r22, r28
    1b22:	82 e8       	ldi	r24, 0x82	; 130
    1b24:	90 e0       	ldi	r25, 0x00	; 0
    1b26:	0e 94 cf 11 	call	0x239e	; 0x239e <_Z18ST7789_PrintStringPc6colourc>
				}
				ST7789_PrintString((char*)itoa(time_schedule[1][0], itoa_temp, 10), Text_Colour, 3);
    1b2a:	80 91 62 00 	lds	r24, 0x0062	; 0x800062 <__DATA_REGION_ORIGIN__+0x2>
    1b2e:	4a e0       	ldi	r20, 0x0A	; 10
    1b30:	6d e0       	ldi	r22, 0x0D	; 13
    1b32:	76 e0       	ldi	r23, 0x06	; 6
    1b34:	90 e0       	ldi	r25, 0x00	; 0
    1b36:	0e 94 d3 15 	call	0x2ba6	; 0x2ba6 <__itoa_ncheck>
    1b3a:	23 e0       	ldi	r18, 0x03	; 3
    1b3c:	41 2f       	mov	r20, r17
    1b3e:	5d 2f       	mov	r21, r29
    1b40:	6c 2f       	mov	r22, r28
    1b42:	0e 94 cf 11 	call	0x239e	; 0x239e <_Z18ST7789_PrintStringPc6colourc>
		
		//==============================================================================
		//						Режим настройки закта (8)
		//==============================================================================
		
		if (mode != setup_hour_sunset && update_hour_sunset)
    1b46:	80 91 09 06 	lds	r24, 0x0609	; 0x800609 <mode>
    1b4a:	88 30       	cpi	r24, 0x08	; 8
    1b4c:	29 f1       	breq	.+74     	; 0x1b98 <main+0xbd4>
    1b4e:	90 91 72 00 	lds	r25, 0x0072	; 0x800072 <update_hour_sunset>
    1b52:	99 23       	and	r25, r25
    1b54:	09 f1       	breq	.+66     	; 0x1b98 <main+0xbd4>
		{
			update_hour_sunset = false;
    1b56:	10 92 72 00 	sts	0x0072, r1	; 0x800072 <update_hour_sunset>
			
			ST7789_SetXYpos(0, 188);
    1b5a:	6c eb       	ldi	r22, 0xBC	; 188
    1b5c:	80 e0       	ldi	r24, 0x00	; 0
    1b5e:	0e 94 59 10 	call	0x20b2	; 0x20b2 <_Z15ST7789_SetXYposcc>
			if (time_schedule[2][0] < 10)
    1b62:	80 91 64 00 	lds	r24, 0x0064	; 0x800064 <__DATA_REGION_ORIGIN__+0x4>
    1b66:	8a 30       	cpi	r24, 0x0A	; 10
    1b68:	40 f4       	brcc	.+16     	; 0x1b7a <main+0xbb6>
			{
				ST7789_PrintString((char*)"0", Text_Colour, 3);
    1b6a:	23 e0       	ldi	r18, 0x03	; 3
    1b6c:	41 2f       	mov	r20, r17
    1b6e:	5d 2f       	mov	r21, r29
    1b70:	6c 2f       	mov	r22, r28
    1b72:	82 e8       	ldi	r24, 0x82	; 130
    1b74:	90 e0       	ldi	r25, 0x00	; 0
    1b76:	0e 94 cf 11 	call	0x239e	; 0x239e <_Z18ST7789_PrintStringPc6colourc>
			}
			ST7789_PrintString((char*)itoa(time_schedule[2][0], itoa_temp, 10), Text_Colour, 3);
    1b7a:	80 91 64 00 	lds	r24, 0x0064	; 0x800064 <__DATA_REGION_ORIGIN__+0x4>
    1b7e:	4a e0       	ldi	r20, 0x0A	; 10
    1b80:	6d e0       	ldi	r22, 0x0D	; 13
    1b82:	76 e0       	ldi	r23, 0x06	; 6
    1b84:	90 e0       	ldi	r25, 0x00	; 0
    1b86:	0e 94 d3 15 	call	0x2ba6	; 0x2ba6 <__itoa_ncheck>
    1b8a:	23 e0       	ldi	r18, 0x03	; 3
    1b8c:	41 2f       	mov	r20, r17
    1b8e:	5d 2f       	mov	r21, r29
    1b90:	6c 2f       	mov	r22, r28
    1b92:	0e 94 cf 11 	call	0x239e	; 0x239e <_Z18ST7789_PrintStringPc6colourc>
    1b96:	4c c0       	rjmp	.+152    	; 0x1c30 <main+0xc6c>
		}
		else if (mode == setup_hour_sunset && update_hour_sunset)
    1b98:	88 30       	cpi	r24, 0x08	; 8
    1b9a:	09 f0       	breq	.+2      	; 0x1b9e <main+0xbda>
    1b9c:	49 c0       	rjmp	.+146    	; 0x1c30 <main+0xc6c>
    1b9e:	80 91 72 00 	lds	r24, 0x0072	; 0x800072 <update_hour_sunset>
    1ba2:	88 23       	and	r24, r24
    1ba4:	09 f4       	brne	.+2      	; 0x1ba8 <main+0xbe4>
    1ba6:	44 c0       	rjmp	.+136    	; 0x1c30 <main+0xc6c>
		{
			update_hour_sunset = false;
    1ba8:	10 92 72 00 	sts	0x0072, r1	; 0x800072 <update_hour_sunset>
			
			ST7789_SetXYpos(0, 188);
    1bac:	6c eb       	ldi	r22, 0xBC	; 188
    1bae:	80 e0       	ldi	r24, 0x00	; 0
    1bb0:	0e 94 59 10 	call	0x20b2	; 0x20b2 <_Z15ST7789_SetXYposcc>
			if (time_schedule[2][0] < 10)
    1bb4:	80 91 64 00 	lds	r24, 0x0064	; 0x800064 <__DATA_REGION_ORIGIN__+0x4>
    1bb8:	8a 30       	cpi	r24, 0x0A	; 10
    1bba:	40 f4       	brcc	.+16     	; 0x1bcc <main+0xc08>
			{
				ST7789_PrintString((char*)"0", Text_Colour_RED, 3);
    1bbc:	23 e0       	ldi	r18, 0x03	; 3
    1bbe:	4f 2d       	mov	r20, r15
    1bc0:	50 2f       	mov	r21, r16
    1bc2:	6e 2d       	mov	r22, r14
    1bc4:	82 e8       	ldi	r24, 0x82	; 130
    1bc6:	90 e0       	ldi	r25, 0x00	; 0
    1bc8:	0e 94 cf 11 	call	0x239e	; 0x239e <_Z18ST7789_PrintStringPc6colourc>
			}
			ST7789_PrintString((char*)itoa(time_schedule[2][0], itoa_temp, 10), Text_Colour_RED, 3);
    1bcc:	80 91 64 00 	lds	r24, 0x0064	; 0x800064 <__DATA_REGION_ORIGIN__+0x4>
    1bd0:	4a e0       	ldi	r20, 0x0A	; 10
    1bd2:	6d e0       	ldi	r22, 0x0D	; 13
    1bd4:	76 e0       	ldi	r23, 0x06	; 6
    1bd6:	90 e0       	ldi	r25, 0x00	; 0
    1bd8:	0e 94 d3 15 	call	0x2ba6	; 0x2ba6 <__itoa_ncheck>
    1bdc:	23 e0       	ldi	r18, 0x03	; 3
    1bde:	4f 2d       	mov	r20, r15
    1be0:	50 2f       	mov	r21, r16
    1be2:	6e 2d       	mov	r22, r14
    1be4:	0e 94 cf 11 	call	0x239e	; 0x239e <_Z18ST7789_PrintStringPc6colourc>
			
			if (update_schedule)
    1be8:	80 91 0b 06 	lds	r24, 0x060B	; 0x80060b <update_schedule>
    1bec:	88 23       	and	r24, r24
    1bee:	01 f1       	breq	.+64     	; 0x1c30 <main+0xc6c>
			{
				update_schedule = false;
    1bf0:	10 92 0b 06 	sts	0x060B, r1	; 0x80060b <update_schedule>
				
				ST7789_SetXYpos(54, 162);
    1bf4:	62 ea       	ldi	r22, 0xA2	; 162
    1bf6:	86 e3       	ldi	r24, 0x36	; 54
    1bf8:	0e 94 59 10 	call	0x20b2	; 0x20b2 <_Z15ST7789_SetXYposcc>
				if (time_schedule[1][1] < 10)
    1bfc:	80 91 63 00 	lds	r24, 0x0063	; 0x800063 <__DATA_REGION_ORIGIN__+0x3>
    1c00:	8a 30       	cpi	r24, 0x0A	; 10
    1c02:	40 f4       	brcc	.+16     	; 0x1c14 <main+0xc50>
				{
					ST7789_PrintString((char*)"0", Text_Colour, 3);
    1c04:	23 e0       	ldi	r18, 0x03	; 3
    1c06:	41 2f       	mov	r20, r17
    1c08:	5d 2f       	mov	r21, r29
    1c0a:	6c 2f       	mov	r22, r28
    1c0c:	82 e8       	ldi	r24, 0x82	; 130
    1c0e:	90 e0       	ldi	r25, 0x00	; 0
    1c10:	0e 94 cf 11 	call	0x239e	; 0x239e <_Z18ST7789_PrintStringPc6colourc>
				}
				ST7789_PrintString((char*)itoa(time_schedule[1][1], itoa_temp, 10), Text_Colour, 3);
    1c14:	80 91 63 00 	lds	r24, 0x0063	; 0x800063 <__DATA_REGION_ORIGIN__+0x3>
    1c18:	4a e0       	ldi	r20, 0x0A	; 10
    1c1a:	6d e0       	ldi	r22, 0x0D	; 13
    1c1c:	76 e0       	ldi	r23, 0x06	; 6
    1c1e:	90 e0       	ldi	r25, 0x00	; 0
    1c20:	0e 94 d3 15 	call	0x2ba6	; 0x2ba6 <__itoa_ncheck>
    1c24:	23 e0       	ldi	r18, 0x03	; 3
    1c26:	41 2f       	mov	r20, r17
    1c28:	5d 2f       	mov	r21, r29
    1c2a:	6c 2f       	mov	r22, r28
    1c2c:	0e 94 cf 11 	call	0x239e	; 0x239e <_Z18ST7789_PrintStringPc6colourc>
		
		//==============================================================================
		//						Режим настройки закта (9)
		//==============================================================================
		
		if (mode != setup_minute_sunset && update_minute_sunset)
    1c30:	80 91 09 06 	lds	r24, 0x0609	; 0x800609 <mode>
    1c34:	89 30       	cpi	r24, 0x09	; 9
    1c36:	29 f1       	breq	.+74     	; 0x1c82 <main+0xcbe>
    1c38:	90 91 71 00 	lds	r25, 0x0071	; 0x800071 <update_minute_sunset>
    1c3c:	99 23       	and	r25, r25
    1c3e:	09 f1       	breq	.+66     	; 0x1c82 <main+0xcbe>
		{
			update_minute_sunset = false;
    1c40:	10 92 71 00 	sts	0x0071, r1	; 0x800071 <update_minute_sunset>
			
			ST7789_SetXYpos(54, 188);
    1c44:	6c eb       	ldi	r22, 0xBC	; 188
    1c46:	86 e3       	ldi	r24, 0x36	; 54
    1c48:	0e 94 59 10 	call	0x20b2	; 0x20b2 <_Z15ST7789_SetXYposcc>
			if (time_schedule[2][1] < 10)
    1c4c:	80 91 65 00 	lds	r24, 0x0065	; 0x800065 <__DATA_REGION_ORIGIN__+0x5>
    1c50:	8a 30       	cpi	r24, 0x0A	; 10
    1c52:	40 f4       	brcc	.+16     	; 0x1c64 <main+0xca0>
			{
				ST7789_PrintString((char*)"0", Text_Colour, 3);
    1c54:	23 e0       	ldi	r18, 0x03	; 3
    1c56:	41 2f       	mov	r20, r17
    1c58:	5d 2f       	mov	r21, r29
    1c5a:	6c 2f       	mov	r22, r28
    1c5c:	82 e8       	ldi	r24, 0x82	; 130
    1c5e:	90 e0       	ldi	r25, 0x00	; 0
    1c60:	0e 94 cf 11 	call	0x239e	; 0x239e <_Z18ST7789_PrintStringPc6colourc>
			}
			ST7789_PrintString((char*)itoa(time_schedule[2][1], itoa_temp, 10), Text_Colour, 3);
    1c64:	80 91 65 00 	lds	r24, 0x0065	; 0x800065 <__DATA_REGION_ORIGIN__+0x5>
    1c68:	4a e0       	ldi	r20, 0x0A	; 10
    1c6a:	6d e0       	ldi	r22, 0x0D	; 13
    1c6c:	76 e0       	ldi	r23, 0x06	; 6
    1c6e:	90 e0       	ldi	r25, 0x00	; 0
    1c70:	0e 94 d3 15 	call	0x2ba6	; 0x2ba6 <__itoa_ncheck>
    1c74:	23 e0       	ldi	r18, 0x03	; 3
    1c76:	41 2f       	mov	r20, r17
    1c78:	5d 2f       	mov	r21, r29
    1c7a:	6c 2f       	mov	r22, r28
    1c7c:	0e 94 cf 11 	call	0x239e	; 0x239e <_Z18ST7789_PrintStringPc6colourc>
    1c80:	4c c0       	rjmp	.+152    	; 0x1d1a <main+0xd56>
		}
		else if (mode == setup_minute_sunset && update_minute_sunset)
    1c82:	89 30       	cpi	r24, 0x09	; 9
    1c84:	09 f0       	breq	.+2      	; 0x1c88 <main+0xcc4>
    1c86:	49 c0       	rjmp	.+146    	; 0x1d1a <main+0xd56>
    1c88:	80 91 71 00 	lds	r24, 0x0071	; 0x800071 <update_minute_sunset>
    1c8c:	88 23       	and	r24, r24
    1c8e:	09 f4       	brne	.+2      	; 0x1c92 <main+0xcce>
    1c90:	44 c0       	rjmp	.+136    	; 0x1d1a <main+0xd56>
		{
			update_minute_sunset = false;
    1c92:	10 92 71 00 	sts	0x0071, r1	; 0x800071 <update_minute_sunset>
			
			ST7789_SetXYpos(54, 188);
    1c96:	6c eb       	ldi	r22, 0xBC	; 188
    1c98:	86 e3       	ldi	r24, 0x36	; 54
    1c9a:	0e 94 59 10 	call	0x20b2	; 0x20b2 <_Z15ST7789_SetXYposcc>
			if (time_schedule[2][1] < 10)
    1c9e:	80 91 65 00 	lds	r24, 0x0065	; 0x800065 <__DATA_REGION_ORIGIN__+0x5>
    1ca2:	8a 30       	cpi	r24, 0x0A	; 10
    1ca4:	40 f4       	brcc	.+16     	; 0x1cb6 <main+0xcf2>
			{
				ST7789_PrintString((char*)"0", Text_Colour_RED, 3);
    1ca6:	23 e0       	ldi	r18, 0x03	; 3
    1ca8:	4f 2d       	mov	r20, r15
    1caa:	50 2f       	mov	r21, r16
    1cac:	6e 2d       	mov	r22, r14
    1cae:	82 e8       	ldi	r24, 0x82	; 130
    1cb0:	90 e0       	ldi	r25, 0x00	; 0
    1cb2:	0e 94 cf 11 	call	0x239e	; 0x239e <_Z18ST7789_PrintStringPc6colourc>
			}
			ST7789_PrintString((char*)itoa(time_schedule[2][1], itoa_temp, 10), Text_Colour_RED, 3);
    1cb6:	80 91 65 00 	lds	r24, 0x0065	; 0x800065 <__DATA_REGION_ORIGIN__+0x5>
    1cba:	4a e0       	ldi	r20, 0x0A	; 10
    1cbc:	6d e0       	ldi	r22, 0x0D	; 13
    1cbe:	76 e0       	ldi	r23, 0x06	; 6
    1cc0:	90 e0       	ldi	r25, 0x00	; 0
    1cc2:	0e 94 d3 15 	call	0x2ba6	; 0x2ba6 <__itoa_ncheck>
    1cc6:	23 e0       	ldi	r18, 0x03	; 3
    1cc8:	4f 2d       	mov	r20, r15
    1cca:	50 2f       	mov	r21, r16
    1ccc:	6e 2d       	mov	r22, r14
    1cce:	0e 94 cf 11 	call	0x239e	; 0x239e <_Z18ST7789_PrintStringPc6colourc>
			
			if (update_schedule)
    1cd2:	80 91 0b 06 	lds	r24, 0x060B	; 0x80060b <update_schedule>
    1cd6:	88 23       	and	r24, r24
    1cd8:	01 f1       	breq	.+64     	; 0x1d1a <main+0xd56>
			{
				update_schedule = false;
    1cda:	10 92 0b 06 	sts	0x060B, r1	; 0x80060b <update_schedule>
				
				ST7789_SetXYpos(0, 188);
    1cde:	6c eb       	ldi	r22, 0xBC	; 188
    1ce0:	80 e0       	ldi	r24, 0x00	; 0
    1ce2:	0e 94 59 10 	call	0x20b2	; 0x20b2 <_Z15ST7789_SetXYposcc>
				if (time_schedule[2][0] < 10)
    1ce6:	80 91 64 00 	lds	r24, 0x0064	; 0x800064 <__DATA_REGION_ORIGIN__+0x4>
    1cea:	8a 30       	cpi	r24, 0x0A	; 10
    1cec:	40 f4       	brcc	.+16     	; 0x1cfe <main+0xd3a>
				{
					ST7789_PrintString((char*)"0", Text_Colour, 3);
    1cee:	23 e0       	ldi	r18, 0x03	; 3
    1cf0:	41 2f       	mov	r20, r17
    1cf2:	5d 2f       	mov	r21, r29
    1cf4:	6c 2f       	mov	r22, r28
    1cf6:	82 e8       	ldi	r24, 0x82	; 130
    1cf8:	90 e0       	ldi	r25, 0x00	; 0
    1cfa:	0e 94 cf 11 	call	0x239e	; 0x239e <_Z18ST7789_PrintStringPc6colourc>
				}
				ST7789_PrintString((char*)itoa(time_schedule[2][0], itoa_temp, 10), Text_Colour, 3);
    1cfe:	80 91 64 00 	lds	r24, 0x0064	; 0x800064 <__DATA_REGION_ORIGIN__+0x4>
    1d02:	4a e0       	ldi	r20, 0x0A	; 10
    1d04:	6d e0       	ldi	r22, 0x0D	; 13
    1d06:	76 e0       	ldi	r23, 0x06	; 6
    1d08:	90 e0       	ldi	r25, 0x00	; 0
    1d0a:	0e 94 d3 15 	call	0x2ba6	; 0x2ba6 <__itoa_ncheck>
    1d0e:	23 e0       	ldi	r18, 0x03	; 3
    1d10:	41 2f       	mov	r20, r17
    1d12:	5d 2f       	mov	r21, r29
    1d14:	6c 2f       	mov	r22, r28
    1d16:	0e 94 cf 11 	call	0x239e	; 0x239e <_Z18ST7789_PrintStringPc6colourc>
		
		//==============================================================================
		//						Режим настройки ночи (10)
		//==============================================================================
		
		if (mode != setup_hour_night && update_hour_night)
    1d1a:	80 91 09 06 	lds	r24, 0x0609	; 0x800609 <mode>
    1d1e:	8a 30       	cpi	r24, 0x0A	; 10
    1d20:	29 f1       	breq	.+74     	; 0x1d6c <main+0xda8>
    1d22:	90 91 70 00 	lds	r25, 0x0070	; 0x800070 <update_hour_night>
    1d26:	99 23       	and	r25, r25
    1d28:	09 f1       	breq	.+66     	; 0x1d6c <main+0xda8>
		{
			update_hour_night = false;
    1d2a:	10 92 70 00 	sts	0x0070, r1	; 0x800070 <update_hour_night>
			
			ST7789_SetXYpos(0, 214);
    1d2e:	66 ed       	ldi	r22, 0xD6	; 214
    1d30:	80 e0       	ldi	r24, 0x00	; 0
    1d32:	0e 94 59 10 	call	0x20b2	; 0x20b2 <_Z15ST7789_SetXYposcc>
			if (time_schedule[3][0] < 10)
    1d36:	80 91 66 00 	lds	r24, 0x0066	; 0x800066 <__DATA_REGION_ORIGIN__+0x6>
    1d3a:	8a 30       	cpi	r24, 0x0A	; 10
    1d3c:	40 f4       	brcc	.+16     	; 0x1d4e <main+0xd8a>
			{
				ST7789_PrintString((char*)"0", Text_Colour, 3);
    1d3e:	23 e0       	ldi	r18, 0x03	; 3
    1d40:	41 2f       	mov	r20, r17
    1d42:	5d 2f       	mov	r21, r29
    1d44:	6c 2f       	mov	r22, r28
    1d46:	82 e8       	ldi	r24, 0x82	; 130
    1d48:	90 e0       	ldi	r25, 0x00	; 0
    1d4a:	0e 94 cf 11 	call	0x239e	; 0x239e <_Z18ST7789_PrintStringPc6colourc>
			}
			ST7789_PrintString((char*)itoa(time_schedule[3][0], itoa_temp, 10), Text_Colour, 3);
    1d4e:	80 91 66 00 	lds	r24, 0x0066	; 0x800066 <__DATA_REGION_ORIGIN__+0x6>
    1d52:	4a e0       	ldi	r20, 0x0A	; 10
    1d54:	6d e0       	ldi	r22, 0x0D	; 13
    1d56:	76 e0       	ldi	r23, 0x06	; 6
    1d58:	90 e0       	ldi	r25, 0x00	; 0
    1d5a:	0e 94 d3 15 	call	0x2ba6	; 0x2ba6 <__itoa_ncheck>
    1d5e:	23 e0       	ldi	r18, 0x03	; 3
    1d60:	41 2f       	mov	r20, r17
    1d62:	5d 2f       	mov	r21, r29
    1d64:	6c 2f       	mov	r22, r28
    1d66:	0e 94 cf 11 	call	0x239e	; 0x239e <_Z18ST7789_PrintStringPc6colourc>
    1d6a:	4c c0       	rjmp	.+152    	; 0x1e04 <main+0xe40>
		}
		else if (mode == setup_hour_night && update_hour_night)
    1d6c:	8a 30       	cpi	r24, 0x0A	; 10
    1d6e:	09 f0       	breq	.+2      	; 0x1d72 <main+0xdae>
    1d70:	49 c0       	rjmp	.+146    	; 0x1e04 <main+0xe40>
    1d72:	80 91 70 00 	lds	r24, 0x0070	; 0x800070 <update_hour_night>
    1d76:	88 23       	and	r24, r24
    1d78:	09 f4       	brne	.+2      	; 0x1d7c <main+0xdb8>
    1d7a:	44 c0       	rjmp	.+136    	; 0x1e04 <main+0xe40>
		{
			update_hour_night = false;
    1d7c:	10 92 70 00 	sts	0x0070, r1	; 0x800070 <update_hour_night>
			
			ST7789_SetXYpos(0, 214);
    1d80:	66 ed       	ldi	r22, 0xD6	; 214
    1d82:	80 e0       	ldi	r24, 0x00	; 0
    1d84:	0e 94 59 10 	call	0x20b2	; 0x20b2 <_Z15ST7789_SetXYposcc>
			if (time_schedule[3][0] < 10)
    1d88:	80 91 66 00 	lds	r24, 0x0066	; 0x800066 <__DATA_REGION_ORIGIN__+0x6>
    1d8c:	8a 30       	cpi	r24, 0x0A	; 10
    1d8e:	40 f4       	brcc	.+16     	; 0x1da0 <main+0xddc>
			{
				ST7789_PrintString((char*)"0", Text_Colour_RED, 3);
    1d90:	23 e0       	ldi	r18, 0x03	; 3
    1d92:	4f 2d       	mov	r20, r15
    1d94:	50 2f       	mov	r21, r16
    1d96:	6e 2d       	mov	r22, r14
    1d98:	82 e8       	ldi	r24, 0x82	; 130
    1d9a:	90 e0       	ldi	r25, 0x00	; 0
    1d9c:	0e 94 cf 11 	call	0x239e	; 0x239e <_Z18ST7789_PrintStringPc6colourc>
			}
			ST7789_PrintString((char*)itoa(time_schedule[3][0], itoa_temp, 10), Text_Colour_RED, 3);
    1da0:	80 91 66 00 	lds	r24, 0x0066	; 0x800066 <__DATA_REGION_ORIGIN__+0x6>
    1da4:	4a e0       	ldi	r20, 0x0A	; 10
    1da6:	6d e0       	ldi	r22, 0x0D	; 13
    1da8:	76 e0       	ldi	r23, 0x06	; 6
    1daa:	90 e0       	ldi	r25, 0x00	; 0
    1dac:	0e 94 d3 15 	call	0x2ba6	; 0x2ba6 <__itoa_ncheck>
    1db0:	23 e0       	ldi	r18, 0x03	; 3
    1db2:	4f 2d       	mov	r20, r15
    1db4:	50 2f       	mov	r21, r16
    1db6:	6e 2d       	mov	r22, r14
    1db8:	0e 94 cf 11 	call	0x239e	; 0x239e <_Z18ST7789_PrintStringPc6colourc>
			
			if (update_schedule)
    1dbc:	80 91 0b 06 	lds	r24, 0x060B	; 0x80060b <update_schedule>
    1dc0:	88 23       	and	r24, r24
    1dc2:	01 f1       	breq	.+64     	; 0x1e04 <main+0xe40>
			{
				update_schedule = false;
    1dc4:	10 92 0b 06 	sts	0x060B, r1	; 0x80060b <update_schedule>
				
				ST7789_SetXYpos(54, 188);
    1dc8:	6c eb       	ldi	r22, 0xBC	; 188
    1dca:	86 e3       	ldi	r24, 0x36	; 54
    1dcc:	0e 94 59 10 	call	0x20b2	; 0x20b2 <_Z15ST7789_SetXYposcc>
				if (time_schedule[2][1] < 10)
    1dd0:	80 91 65 00 	lds	r24, 0x0065	; 0x800065 <__DATA_REGION_ORIGIN__+0x5>
    1dd4:	8a 30       	cpi	r24, 0x0A	; 10
    1dd6:	40 f4       	brcc	.+16     	; 0x1de8 <main+0xe24>
				{
					ST7789_PrintString((char*)"0", Text_Colour, 3);
    1dd8:	23 e0       	ldi	r18, 0x03	; 3
    1dda:	41 2f       	mov	r20, r17
    1ddc:	5d 2f       	mov	r21, r29
    1dde:	6c 2f       	mov	r22, r28
    1de0:	82 e8       	ldi	r24, 0x82	; 130
    1de2:	90 e0       	ldi	r25, 0x00	; 0
    1de4:	0e 94 cf 11 	call	0x239e	; 0x239e <_Z18ST7789_PrintStringPc6colourc>
				}
				ST7789_PrintString((char*)itoa(time_schedule[2][1], itoa_temp, 10), Text_Colour, 3);
    1de8:	80 91 65 00 	lds	r24, 0x0065	; 0x800065 <__DATA_REGION_ORIGIN__+0x5>
    1dec:	4a e0       	ldi	r20, 0x0A	; 10
    1dee:	6d e0       	ldi	r22, 0x0D	; 13
    1df0:	76 e0       	ldi	r23, 0x06	; 6
    1df2:	90 e0       	ldi	r25, 0x00	; 0
    1df4:	0e 94 d3 15 	call	0x2ba6	; 0x2ba6 <__itoa_ncheck>
    1df8:	23 e0       	ldi	r18, 0x03	; 3
    1dfa:	41 2f       	mov	r20, r17
    1dfc:	5d 2f       	mov	r21, r29
    1dfe:	6c 2f       	mov	r22, r28
    1e00:	0e 94 cf 11 	call	0x239e	; 0x239e <_Z18ST7789_PrintStringPc6colourc>
		
		//==============================================================================
		//						Режим настройки закта (9)
		//==============================================================================
		
		if (mode != setup_minute_night && update_minute_night)
    1e04:	80 91 09 06 	lds	r24, 0x0609	; 0x800609 <mode>
    1e08:	8b 30       	cpi	r24, 0x0B	; 11
    1e0a:	29 f1       	breq	.+74     	; 0x1e56 <main+0xe92>
    1e0c:	90 91 6f 00 	lds	r25, 0x006F	; 0x80006f <update_minute_night>
    1e10:	99 23       	and	r25, r25
    1e12:	09 f1       	breq	.+66     	; 0x1e56 <main+0xe92>
		{
			update_minute_night = false;
    1e14:	10 92 6f 00 	sts	0x006F, r1	; 0x80006f <update_minute_night>
			
			ST7789_SetXYpos(54, 214);
    1e18:	66 ed       	ldi	r22, 0xD6	; 214
    1e1a:	86 e3       	ldi	r24, 0x36	; 54
    1e1c:	0e 94 59 10 	call	0x20b2	; 0x20b2 <_Z15ST7789_SetXYposcc>
			if (time_schedule[3][1] < 10)
    1e20:	80 91 67 00 	lds	r24, 0x0067	; 0x800067 <__DATA_REGION_ORIGIN__+0x7>
    1e24:	8a 30       	cpi	r24, 0x0A	; 10
    1e26:	40 f4       	brcc	.+16     	; 0x1e38 <main+0xe74>
			{
				ST7789_PrintString((char*)"0", Text_Colour, 3);
    1e28:	23 e0       	ldi	r18, 0x03	; 3
    1e2a:	41 2f       	mov	r20, r17
    1e2c:	5d 2f       	mov	r21, r29
    1e2e:	6c 2f       	mov	r22, r28
    1e30:	82 e8       	ldi	r24, 0x82	; 130
    1e32:	90 e0       	ldi	r25, 0x00	; 0
    1e34:	0e 94 cf 11 	call	0x239e	; 0x239e <_Z18ST7789_PrintStringPc6colourc>
			}
			ST7789_PrintString((char*)itoa(time_schedule[3][1], itoa_temp, 10), Text_Colour, 3);
    1e38:	80 91 67 00 	lds	r24, 0x0067	; 0x800067 <__DATA_REGION_ORIGIN__+0x7>
    1e3c:	4a e0       	ldi	r20, 0x0A	; 10
    1e3e:	6d e0       	ldi	r22, 0x0D	; 13
    1e40:	76 e0       	ldi	r23, 0x06	; 6
    1e42:	90 e0       	ldi	r25, 0x00	; 0
    1e44:	0e 94 d3 15 	call	0x2ba6	; 0x2ba6 <__itoa_ncheck>
    1e48:	23 e0       	ldi	r18, 0x03	; 3
    1e4a:	41 2f       	mov	r20, r17
    1e4c:	5d 2f       	mov	r21, r29
    1e4e:	6c 2f       	mov	r22, r28
    1e50:	0e 94 cf 11 	call	0x239e	; 0x239e <_Z18ST7789_PrintStringPc6colourc>
    1e54:	e5 c8       	rjmp	.-3638   	; 0x1020 <main+0x5c>
		}
		else if (mode == setup_minute_night && update_minute_night)
    1e56:	8b 30       	cpi	r24, 0x0B	; 11
    1e58:	09 f0       	breq	.+2      	; 0x1e5c <main+0xe98>
    1e5a:	e2 c8       	rjmp	.-3644   	; 0x1020 <main+0x5c>
    1e5c:	80 91 6f 00 	lds	r24, 0x006F	; 0x80006f <update_minute_night>
    1e60:	88 23       	and	r24, r24
    1e62:	09 f4       	brne	.+2      	; 0x1e66 <main+0xea2>
    1e64:	dd c8       	rjmp	.-3654   	; 0x1020 <main+0x5c>
		{
			update_minute_night = false;
    1e66:	10 92 6f 00 	sts	0x006F, r1	; 0x80006f <update_minute_night>
			
			ST7789_SetXYpos(54, 214);
    1e6a:	66 ed       	ldi	r22, 0xD6	; 214
    1e6c:	86 e3       	ldi	r24, 0x36	; 54
    1e6e:	0e 94 59 10 	call	0x20b2	; 0x20b2 <_Z15ST7789_SetXYposcc>
			if (time_schedule[3][1] < 10)
    1e72:	80 91 67 00 	lds	r24, 0x0067	; 0x800067 <__DATA_REGION_ORIGIN__+0x7>
    1e76:	8a 30       	cpi	r24, 0x0A	; 10
    1e78:	40 f4       	brcc	.+16     	; 0x1e8a <main+0xec6>
			{
				ST7789_PrintString((char*)"0", Text_Colour_RED, 3);
    1e7a:	23 e0       	ldi	r18, 0x03	; 3
    1e7c:	4f 2d       	mov	r20, r15
    1e7e:	50 2f       	mov	r21, r16
    1e80:	6e 2d       	mov	r22, r14
    1e82:	82 e8       	ldi	r24, 0x82	; 130
    1e84:	90 e0       	ldi	r25, 0x00	; 0
    1e86:	0e 94 cf 11 	call	0x239e	; 0x239e <_Z18ST7789_PrintStringPc6colourc>
			}
			ST7789_PrintString((char*)itoa(time_schedule[3][1], itoa_temp, 10), Text_Colour_RED, 3);
    1e8a:	80 91 67 00 	lds	r24, 0x0067	; 0x800067 <__DATA_REGION_ORIGIN__+0x7>
    1e8e:	4a e0       	ldi	r20, 0x0A	; 10
    1e90:	6d e0       	ldi	r22, 0x0D	; 13
    1e92:	76 e0       	ldi	r23, 0x06	; 6
    1e94:	90 e0       	ldi	r25, 0x00	; 0
    1e96:	0e 94 d3 15 	call	0x2ba6	; 0x2ba6 <__itoa_ncheck>
    1e9a:	23 e0       	ldi	r18, 0x03	; 3
    1e9c:	4f 2d       	mov	r20, r15
    1e9e:	50 2f       	mov	r21, r16
    1ea0:	6e 2d       	mov	r22, r14
    1ea2:	0e 94 cf 11 	call	0x239e	; 0x239e <_Z18ST7789_PrintStringPc6colourc>
			
			if (update_schedule)
    1ea6:	80 91 0b 06 	lds	r24, 0x060B	; 0x80060b <update_schedule>
    1eaa:	88 23       	and	r24, r24
    1eac:	09 f4       	brne	.+2      	; 0x1eb0 <main+0xeec>
    1eae:	b8 c8       	rjmp	.-3728   	; 0x1020 <main+0x5c>
			{
				update_schedule = false;
    1eb0:	10 92 0b 06 	sts	0x060B, r1	; 0x80060b <update_schedule>
				
				ST7789_SetXYpos(0, 214);
    1eb4:	66 ed       	ldi	r22, 0xD6	; 214
    1eb6:	80 e0       	ldi	r24, 0x00	; 0
    1eb8:	0e 94 59 10 	call	0x20b2	; 0x20b2 <_Z15ST7789_SetXYposcc>
				if (time_schedule[3][0] < 10)
    1ebc:	80 91 66 00 	lds	r24, 0x0066	; 0x800066 <__DATA_REGION_ORIGIN__+0x6>
    1ec0:	8a 30       	cpi	r24, 0x0A	; 10
    1ec2:	40 f4       	brcc	.+16     	; 0x1ed4 <main+0xf10>
				{
					ST7789_PrintString((char*)"0", Text_Colour, 3);
    1ec4:	23 e0       	ldi	r18, 0x03	; 3
    1ec6:	41 2f       	mov	r20, r17
    1ec8:	5d 2f       	mov	r21, r29
    1eca:	6c 2f       	mov	r22, r28
    1ecc:	82 e8       	ldi	r24, 0x82	; 130
    1ece:	90 e0       	ldi	r25, 0x00	; 0
    1ed0:	0e 94 cf 11 	call	0x239e	; 0x239e <_Z18ST7789_PrintStringPc6colourc>
				}
				ST7789_PrintString((char*)itoa(time_schedule[3][0], itoa_temp, 10), Text_Colour, 3);
    1ed4:	80 91 66 00 	lds	r24, 0x0066	; 0x800066 <__DATA_REGION_ORIGIN__+0x6>
    1ed8:	4a e0       	ldi	r20, 0x0A	; 10
    1eda:	6d e0       	ldi	r22, 0x0D	; 13
    1edc:	76 e0       	ldi	r23, 0x06	; 6
    1ede:	90 e0       	ldi	r25, 0x00	; 0
    1ee0:	0e 94 d3 15 	call	0x2ba6	; 0x2ba6 <__itoa_ncheck>
    1ee4:	23 e0       	ldi	r18, 0x03	; 3
    1ee6:	41 2f       	mov	r20, r17
    1ee8:	5d 2f       	mov	r21, r29
    1eea:	6c 2f       	mov	r22, r28
    1eec:	0e 94 cf 11 	call	0x239e	; 0x239e <_Z18ST7789_PrintStringPc6colourc>
    1ef0:	97 c8       	rjmp	.-3794   	; 0x1020 <main+0x5c>

00001ef2 <_GLOBAL__sub_I_itoa_temp>:
		
		intToStr((int)fpart, res + i + 1, afterpoint);
	}
	
	return res;
    1ef2:	6f ef       	ldi	r22, 0xFF	; 255
    1ef4:	7f ef       	ldi	r23, 0xFF	; 255
    1ef6:	81 e0       	ldi	r24, 0x01	; 1
    1ef8:	90 e0       	ldi	r25, 0x00	; 0
    1efa:	0e 94 88 01 	call	0x310	; 0x310 <_Z41__static_initialization_and_destruction_0ii>
    1efe:	08 95       	ret

00001f00 <_Z14ST7789_InitSPIv>:
		// на дефолтном фоне цветная строка
		// по RGB	и без координат
void ST7789_PrintString(char* string, char red_font, char green_font, char blue_font, char size)
{
	ST7789_PrintString(string, red_font, green_font, blue_font, RED_BACKGROUND, GREEN_BACKGROUND, BLUE_BACKGROUND, size);
}
    1f00:	87 b3       	in	r24, 0x17	; 23
    1f02:	80 6b       	ori	r24, 0xB0	; 176
    1f04:	87 bb       	out	0x17, r24	; 23
    1f06:	88 b3       	in	r24, 0x18	; 24
    1f08:	80 6f       	ori	r24, 0xF0	; 240
    1f0a:	88 bb       	out	0x18, r24	; 24
    1f0c:	8c e5       	ldi	r24, 0x5C	; 92
    1f0e:	8d b9       	out	0x0d, r24	; 13
    1f10:	1e b8       	out	0x0e, r1	; 14
    1f12:	84 b3       	in	r24, 0x14	; 20
    1f14:	88 60       	ori	r24, 0x08	; 8
    1f16:	84 bb       	out	0x14, r24	; 20
    1f18:	85 b3       	in	r24, 0x15	; 21
    1f1a:	88 60       	ori	r24, 0x08	; 8
    1f1c:	85 bb       	out	0x15, r24	; 21
    1f1e:	84 b3       	in	r24, 0x14	; 20
    1f20:	84 60       	ori	r24, 0x04	; 4
    1f22:	84 bb       	out	0x14, r24	; 20
    1f24:	85 b3       	in	r24, 0x15	; 21
    1f26:	84 60       	ori	r24, 0x04	; 4
    1f28:	85 bb       	out	0x15, r24	; 21
    1f2a:	08 95       	ret

00001f2c <_Z17ST7789_InitST7789v>:
    1f2c:	85 b3       	in	r24, 0x15	; 21
    1f2e:	88 60       	ori	r24, 0x08	; 8
    1f30:	85 bb       	out	0x15, r24	; 21
    1f32:	81 ee       	ldi	r24, 0xE1	; 225
    1f34:	94 e0       	ldi	r25, 0x04	; 4
    1f36:	01 97       	sbiw	r24, 0x01	; 1
    1f38:	f1 f7       	brne	.-4      	; 0x1f36 <_Z17ST7789_InitST7789v+0xa>
    1f3a:	00 c0       	rjmp	.+0      	; 0x1f3c <_Z17ST7789_InitST7789v+0x10>
    1f3c:	00 00       	nop
    1f3e:	85 b3       	in	r24, 0x15	; 21
    1f40:	87 7f       	andi	r24, 0xF7	; 247
    1f42:	85 bb       	out	0x15, r24	; 21
    1f44:	81 ee       	ldi	r24, 0xE1	; 225
    1f46:	94 e0       	ldi	r25, 0x04	; 4
    1f48:	01 97       	sbiw	r24, 0x01	; 1
    1f4a:	f1 f7       	brne	.-4      	; 0x1f48 <_Z17ST7789_InitST7789v+0x1c>
    1f4c:	00 c0       	rjmp	.+0      	; 0x1f4e <_Z17ST7789_InitST7789v+0x22>
    1f4e:	00 00       	nop
    1f50:	85 b3       	in	r24, 0x15	; 21
    1f52:	88 60       	ori	r24, 0x08	; 8
    1f54:	85 bb       	out	0x15, r24	; 21
    1f56:	81 ee       	ldi	r24, 0xE1	; 225
    1f58:	94 e0       	ldi	r25, 0x04	; 4
    1f5a:	01 97       	sbiw	r24, 0x01	; 1
    1f5c:	f1 f7       	brne	.-4      	; 0x1f5a <_Z17ST7789_InitST7789v+0x2e>
    1f5e:	00 c0       	rjmp	.+0      	; 0x1f60 <_Z17ST7789_InitST7789v+0x34>
    1f60:	00 00       	nop
    1f62:	85 b3       	in	r24, 0x15	; 21
    1f64:	8b 7f       	andi	r24, 0xFB	; 251
    1f66:	85 bb       	out	0x15, r24	; 21
    1f68:	81 e0       	ldi	r24, 0x01	; 1
    1f6a:	8f b9       	out	0x0f, r24	; 15
    1f6c:	77 9b       	sbis	0x0e, 7	; 14
    1f6e:	fe cf       	rjmp	.-4      	; 0x1f6c <_Z17ST7789_InitST7789v+0x40>
    1f70:	83 ec       	ldi	r24, 0xC3	; 195
    1f72:	99 e0       	ldi	r25, 0x09	; 9
    1f74:	01 97       	sbiw	r24, 0x01	; 1
    1f76:	f1 f7       	brne	.-4      	; 0x1f74 <_Z17ST7789_InitST7789v+0x48>
    1f78:	00 c0       	rjmp	.+0      	; 0x1f7a <_Z17ST7789_InitST7789v+0x4e>
    1f7a:	00 00       	nop
    1f7c:	85 b3       	in	r24, 0x15	; 21
    1f7e:	8b 7f       	andi	r24, 0xFB	; 251
    1f80:	85 bb       	out	0x15, r24	; 21
    1f82:	81 e1       	ldi	r24, 0x11	; 17
    1f84:	8f b9       	out	0x0f, r24	; 15
    1f86:	77 9b       	sbis	0x0e, 7	; 14
    1f88:	fe cf       	rjmp	.-4      	; 0x1f86 <_Z17ST7789_InitST7789v+0x5a>
    1f8a:	83 ec       	ldi	r24, 0xC3	; 195
    1f8c:	99 e0       	ldi	r25, 0x09	; 9
    1f8e:	01 97       	sbiw	r24, 0x01	; 1
    1f90:	f1 f7       	brne	.-4      	; 0x1f8e <_Z17ST7789_InitST7789v+0x62>
    1f92:	00 c0       	rjmp	.+0      	; 0x1f94 <_Z17ST7789_InitST7789v+0x68>
    1f94:	00 00       	nop
    1f96:	85 b3       	in	r24, 0x15	; 21
    1f98:	8b 7f       	andi	r24, 0xFB	; 251
    1f9a:	85 bb       	out	0x15, r24	; 21
    1f9c:	8a e3       	ldi	r24, 0x3A	; 58
    1f9e:	8f b9       	out	0x0f, r24	; 15
    1fa0:	77 9b       	sbis	0x0e, 7	; 14
    1fa2:	fe cf       	rjmp	.-4      	; 0x1fa0 <_Z17ST7789_InitST7789v+0x74>
    1fa4:	85 b3       	in	r24, 0x15	; 21
    1fa6:	84 60       	ori	r24, 0x04	; 4
    1fa8:	85 bb       	out	0x15, r24	; 21
    1faa:	85 e0       	ldi	r24, 0x05	; 5
    1fac:	8f b9       	out	0x0f, r24	; 15
    1fae:	77 9b       	sbis	0x0e, 7	; 14
    1fb0:	fe cf       	rjmp	.-4      	; 0x1fae <_Z17ST7789_InitST7789v+0x82>
    1fb2:	83 ec       	ldi	r24, 0xC3	; 195
    1fb4:	99 e0       	ldi	r25, 0x09	; 9
    1fb6:	01 97       	sbiw	r24, 0x01	; 1
    1fb8:	f1 f7       	brne	.-4      	; 0x1fb6 <_Z17ST7789_InitST7789v+0x8a>
    1fba:	00 c0       	rjmp	.+0      	; 0x1fbc <_Z17ST7789_InitST7789v+0x90>
    1fbc:	00 00       	nop
    1fbe:	85 b3       	in	r24, 0x15	; 21
    1fc0:	8b 7f       	andi	r24, 0xFB	; 251
    1fc2:	85 bb       	out	0x15, r24	; 21
    1fc4:	86 e3       	ldi	r24, 0x36	; 54
    1fc6:	8f b9       	out	0x0f, r24	; 15
    1fc8:	77 9b       	sbis	0x0e, 7	; 14
    1fca:	fe cf       	rjmp	.-4      	; 0x1fc8 <_Z17ST7789_InitST7789v+0x9c>
    1fcc:	85 b3       	in	r24, 0x15	; 21
    1fce:	84 60       	ori	r24, 0x04	; 4
    1fd0:	85 bb       	out	0x15, r24	; 21
    1fd2:	1f b8       	out	0x0f, r1	; 15
    1fd4:	77 9b       	sbis	0x0e, 7	; 14
    1fd6:	fe cf       	rjmp	.-4      	; 0x1fd4 <_Z17ST7789_InitST7789v+0xa8>
    1fd8:	83 ec       	ldi	r24, 0xC3	; 195
    1fda:	99 e0       	ldi	r25, 0x09	; 9
    1fdc:	01 97       	sbiw	r24, 0x01	; 1
    1fde:	f1 f7       	brne	.-4      	; 0x1fdc <_Z17ST7789_InitST7789v+0xb0>
    1fe0:	00 c0       	rjmp	.+0      	; 0x1fe2 <_Z17ST7789_InitST7789v+0xb6>
    1fe2:	00 00       	nop
    1fe4:	85 b3       	in	r24, 0x15	; 21
    1fe6:	8b 7f       	andi	r24, 0xFB	; 251
    1fe8:	85 bb       	out	0x15, r24	; 21
    1fea:	8a e2       	ldi	r24, 0x2A	; 42
    1fec:	8f b9       	out	0x0f, r24	; 15
    1fee:	77 9b       	sbis	0x0e, 7	; 14
    1ff0:	fe cf       	rjmp	.-4      	; 0x1fee <_Z17ST7789_InitST7789v+0xc2>
    1ff2:	85 b3       	in	r24, 0x15	; 21
    1ff4:	84 60       	ori	r24, 0x04	; 4
    1ff6:	85 bb       	out	0x15, r24	; 21
    1ff8:	1f b8       	out	0x0f, r1	; 15
    1ffa:	77 9b       	sbis	0x0e, 7	; 14
    1ffc:	fe cf       	rjmp	.-4      	; 0x1ffa <_Z17ST7789_InitST7789v+0xce>
    1ffe:	85 b3       	in	r24, 0x15	; 21
    2000:	84 60       	ori	r24, 0x04	; 4
    2002:	85 bb       	out	0x15, r24	; 21
    2004:	1f b8       	out	0x0f, r1	; 15
    2006:	77 9b       	sbis	0x0e, 7	; 14
    2008:	fe cf       	rjmp	.-4      	; 0x2006 <_Z17ST7789_InitST7789v+0xda>
    200a:	85 b3       	in	r24, 0x15	; 21
    200c:	84 60       	ori	r24, 0x04	; 4
    200e:	85 bb       	out	0x15, r24	; 21
    2010:	1f b8       	out	0x0f, r1	; 15
    2012:	77 9b       	sbis	0x0e, 7	; 14
    2014:	fe cf       	rjmp	.-4      	; 0x2012 <_Z17ST7789_InitST7789v+0xe6>
    2016:	85 b3       	in	r24, 0x15	; 21
    2018:	84 60       	ori	r24, 0x04	; 4
    201a:	85 bb       	out	0x15, r24	; 21
    201c:	80 ef       	ldi	r24, 0xF0	; 240
    201e:	8f b9       	out	0x0f, r24	; 15
    2020:	77 9b       	sbis	0x0e, 7	; 14
    2022:	fe cf       	rjmp	.-4      	; 0x2020 <_Z17ST7789_InitST7789v+0xf4>
    2024:	83 ec       	ldi	r24, 0xC3	; 195
    2026:	99 e0       	ldi	r25, 0x09	; 9
    2028:	01 97       	sbiw	r24, 0x01	; 1
    202a:	f1 f7       	brne	.-4      	; 0x2028 <_Z17ST7789_InitST7789v+0xfc>
    202c:	00 c0       	rjmp	.+0      	; 0x202e <_Z17ST7789_InitST7789v+0x102>
    202e:	00 00       	nop
    2030:	85 b3       	in	r24, 0x15	; 21
    2032:	8b 7f       	andi	r24, 0xFB	; 251
    2034:	85 bb       	out	0x15, r24	; 21
    2036:	8b e2       	ldi	r24, 0x2B	; 43
    2038:	8f b9       	out	0x0f, r24	; 15
    203a:	77 9b       	sbis	0x0e, 7	; 14
    203c:	fe cf       	rjmp	.-4      	; 0x203a <_Z17ST7789_InitST7789v+0x10e>
    203e:	85 b3       	in	r24, 0x15	; 21
    2040:	84 60       	ori	r24, 0x04	; 4
    2042:	85 bb       	out	0x15, r24	; 21
    2044:	1f b8       	out	0x0f, r1	; 15
    2046:	77 9b       	sbis	0x0e, 7	; 14
    2048:	fe cf       	rjmp	.-4      	; 0x2046 <_Z17ST7789_InitST7789v+0x11a>
    204a:	85 b3       	in	r24, 0x15	; 21
    204c:	84 60       	ori	r24, 0x04	; 4
    204e:	85 bb       	out	0x15, r24	; 21
    2050:	1f b8       	out	0x0f, r1	; 15
    2052:	77 9b       	sbis	0x0e, 7	; 14
    2054:	fe cf       	rjmp	.-4      	; 0x2052 <_Z17ST7789_InitST7789v+0x126>
    2056:	85 b3       	in	r24, 0x15	; 21
    2058:	84 60       	ori	r24, 0x04	; 4
    205a:	85 bb       	out	0x15, r24	; 21
    205c:	1f b8       	out	0x0f, r1	; 15
    205e:	77 9b       	sbis	0x0e, 7	; 14
    2060:	fe cf       	rjmp	.-4      	; 0x205e <_Z17ST7789_InitST7789v+0x132>
    2062:	85 b3       	in	r24, 0x15	; 21
    2064:	84 60       	ori	r24, 0x04	; 4
    2066:	85 bb       	out	0x15, r24	; 21
    2068:	80 ef       	ldi	r24, 0xF0	; 240
    206a:	8f b9       	out	0x0f, r24	; 15
    206c:	77 9b       	sbis	0x0e, 7	; 14
    206e:	fe cf       	rjmp	.-4      	; 0x206c <_Z17ST7789_InitST7789v+0x140>
    2070:	83 ec       	ldi	r24, 0xC3	; 195
    2072:	99 e0       	ldi	r25, 0x09	; 9
    2074:	01 97       	sbiw	r24, 0x01	; 1
    2076:	f1 f7       	brne	.-4      	; 0x2074 <_Z17ST7789_InitST7789v+0x148>
    2078:	00 c0       	rjmp	.+0      	; 0x207a <_Z17ST7789_InitST7789v+0x14e>
    207a:	00 00       	nop
    207c:	85 b3       	in	r24, 0x15	; 21
    207e:	8b 7f       	andi	r24, 0xFB	; 251
    2080:	85 bb       	out	0x15, r24	; 21
    2082:	81 e2       	ldi	r24, 0x21	; 33
    2084:	8f b9       	out	0x0f, r24	; 15
    2086:	77 9b       	sbis	0x0e, 7	; 14
    2088:	fe cf       	rjmp	.-4      	; 0x2086 <_Z17ST7789_InitST7789v+0x15a>
    208a:	83 ec       	ldi	r24, 0xC3	; 195
    208c:	99 e0       	ldi	r25, 0x09	; 9
    208e:	01 97       	sbiw	r24, 0x01	; 1
    2090:	f1 f7       	brne	.-4      	; 0x208e <_Z17ST7789_InitST7789v+0x162>
    2092:	00 c0       	rjmp	.+0      	; 0x2094 <_Z17ST7789_InitST7789v+0x168>
    2094:	00 00       	nop
    2096:	85 b3       	in	r24, 0x15	; 21
    2098:	8b 7f       	andi	r24, 0xFB	; 251
    209a:	85 bb       	out	0x15, r24	; 21
    209c:	89 e2       	ldi	r24, 0x29	; 41
    209e:	8f b9       	out	0x0f, r24	; 15
    20a0:	77 9b       	sbis	0x0e, 7	; 14
    20a2:	fe cf       	rjmp	.-4      	; 0x20a0 <_Z17ST7789_InitST7789v+0x174>
    20a4:	83 ec       	ldi	r24, 0xC3	; 195
    20a6:	99 e0       	ldi	r25, 0x09	; 9
    20a8:	01 97       	sbiw	r24, 0x01	; 1
    20aa:	f1 f7       	brne	.-4      	; 0x20a8 <_Z17ST7789_InitST7789v+0x17c>
    20ac:	00 c0       	rjmp	.+0      	; 0x20ae <_Z17ST7789_InitST7789v+0x182>
    20ae:	00 00       	nop
    20b0:	08 95       	ret

000020b2 <_Z15ST7789_SetXYposcc>:
    20b2:	80 93 17 06 	sts	0x0617, r24	; 0x800617 <xpos>
    20b6:	60 93 16 06 	sts	0x0616, r22	; 0x800616 <ypos>
    20ba:	08 95       	ret

000020bc <_Z20ST7789_DrawRectangleccccccc>:
    20bc:	cf 92       	push	r12
    20be:	ef 92       	push	r14
    20c0:	0f 93       	push	r16
    20c2:	81 3f       	cpi	r24, 0xF1	; 241
    20c4:	08 f0       	brcs	.+2      	; 0x20c8 <_Z20ST7789_DrawRectangleccccccc+0xc>
    20c6:	7c c0       	rjmp	.+248    	; 0x21c0 <_Z20ST7789_DrawRectangleccccccc+0x104>
    20c8:	61 3f       	cpi	r22, 0xF1	; 241
    20ca:	08 f0       	brcs	.+2      	; 0x20ce <_Z20ST7789_DrawRectangleccccccc+0x12>
    20cc:	79 c0       	rjmp	.+242    	; 0x21c0 <_Z20ST7789_DrawRectangleccccccc+0x104>
    20ce:	95 b3       	in	r25, 0x15	; 21
    20d0:	9b 7f       	andi	r25, 0xFB	; 251
    20d2:	95 bb       	out	0x15, r25	; 21
    20d4:	9a e2       	ldi	r25, 0x2A	; 42
    20d6:	9f b9       	out	0x0f, r25	; 15
    20d8:	77 9b       	sbis	0x0e, 7	; 14
    20da:	fe cf       	rjmp	.-4      	; 0x20d8 <_Z20ST7789_DrawRectangleccccccc+0x1c>
    20dc:	95 b3       	in	r25, 0x15	; 21
    20de:	94 60       	ori	r25, 0x04	; 4
    20e0:	95 bb       	out	0x15, r25	; 21
    20e2:	a8 2f       	mov	r26, r24
    20e4:	b0 e0       	ldi	r27, 0x00	; 0
    20e6:	1f b8       	out	0x0f, r1	; 15
    20e8:	77 9b       	sbis	0x0e, 7	; 14
    20ea:	fe cf       	rjmp	.-4      	; 0x20e8 <_Z20ST7789_DrawRectangleccccccc+0x2c>
    20ec:	8f b9       	out	0x0f, r24	; 15
    20ee:	77 9b       	sbis	0x0e, 7	; 14
    20f0:	fe cf       	rjmp	.-4      	; 0x20ee <_Z20ST7789_DrawRectangleccccccc+0x32>
    20f2:	e4 2f       	mov	r30, r20
    20f4:	f0 e0       	ldi	r31, 0x00	; 0
    20f6:	ae 0f       	add	r26, r30
    20f8:	bf 1f       	adc	r27, r31
    20fa:	11 97       	sbiw	r26, 0x01	; 1
    20fc:	bf b9       	out	0x0f, r27	; 15
    20fe:	77 9b       	sbis	0x0e, 7	; 14
    2100:	fe cf       	rjmp	.-4      	; 0x20fe <_Z20ST7789_DrawRectangleccccccc+0x42>
    2102:	48 0f       	add	r20, r24
    2104:	41 50       	subi	r20, 0x01	; 1
    2106:	4f b9       	out	0x0f, r20	; 15
    2108:	77 9b       	sbis	0x0e, 7	; 14
    210a:	fe cf       	rjmp	.-4      	; 0x2108 <_Z20ST7789_DrawRectangleccccccc+0x4c>
    210c:	85 b3       	in	r24, 0x15	; 21
    210e:	8b 7f       	andi	r24, 0xFB	; 251
    2110:	85 bb       	out	0x15, r24	; 21
    2112:	8b e2       	ldi	r24, 0x2B	; 43
    2114:	8f b9       	out	0x0f, r24	; 15
    2116:	77 9b       	sbis	0x0e, 7	; 14
    2118:	fe cf       	rjmp	.-4      	; 0x2116 <_Z20ST7789_DrawRectangleccccccc+0x5a>
    211a:	85 b3       	in	r24, 0x15	; 21
    211c:	84 60       	ori	r24, 0x04	; 4
    211e:	85 bb       	out	0x15, r24	; 21
    2120:	86 2f       	mov	r24, r22
    2122:	90 e0       	ldi	r25, 0x00	; 0
    2124:	1f b8       	out	0x0f, r1	; 15
    2126:	77 9b       	sbis	0x0e, 7	; 14
    2128:	fe cf       	rjmp	.-4      	; 0x2126 <_Z20ST7789_DrawRectangleccccccc+0x6a>
    212a:	6f b9       	out	0x0f, r22	; 15
    212c:	77 9b       	sbis	0x0e, 7	; 14
    212e:	fe cf       	rjmp	.-4      	; 0x212c <_Z20ST7789_DrawRectangleccccccc+0x70>
    2130:	a2 2f       	mov	r26, r18
    2132:	b0 e0       	ldi	r27, 0x00	; 0
    2134:	8a 0f       	add	r24, r26
    2136:	9b 1f       	adc	r25, r27
    2138:	01 97       	sbiw	r24, 0x01	; 1
    213a:	9f b9       	out	0x0f, r25	; 15
    213c:	77 9b       	sbis	0x0e, 7	; 14
    213e:	fe cf       	rjmp	.-4      	; 0x213c <_Z20ST7789_DrawRectangleccccccc+0x80>
    2140:	26 0f       	add	r18, r22
    2142:	21 50       	subi	r18, 0x01	; 1
    2144:	2f b9       	out	0x0f, r18	; 15
    2146:	77 9b       	sbis	0x0e, 7	; 14
    2148:	fe cf       	rjmp	.-4      	; 0x2146 <_Z20ST7789_DrawRectangleccccccc+0x8a>
    214a:	85 b3       	in	r24, 0x15	; 21
    214c:	8b 7f       	andi	r24, 0xFB	; 251
    214e:	85 bb       	out	0x15, r24	; 21
    2150:	8c e2       	ldi	r24, 0x2C	; 44
    2152:	8f b9       	out	0x0f, r24	; 15
    2154:	77 9b       	sbis	0x0e, 7	; 14
    2156:	fe cf       	rjmp	.-4      	; 0x2154 <_Z20ST7789_DrawRectangleccccccc+0x98>
    2158:	85 b3       	in	r24, 0x15	; 21
    215a:	84 60       	ori	r24, 0x04	; 4
    215c:	85 bb       	out	0x15, r24	; 21
    215e:	60 e0       	ldi	r22, 0x00	; 0
    2160:	70 e0       	ldi	r23, 0x00	; 0
    2162:	ea 9f       	mul	r30, r26
    2164:	c0 01       	movw	r24, r0
    2166:	eb 9f       	mul	r30, r27
    2168:	90 0d       	add	r25, r0
    216a:	fa 9f       	mul	r31, r26
    216c:	90 0d       	add	r25, r0
    216e:	11 24       	eor	r1, r1
    2170:	68 17       	cp	r22, r24
    2172:	79 07       	cpc	r23, r25
    2174:	2c f5       	brge	.+74     	; 0x21c0 <_Z20ST7789_DrawRectangleccccccc+0x104>
    2176:	20 2f       	mov	r18, r16
    2178:	30 e0       	ldi	r19, 0x00	; 0
    217a:	a9 01       	movw	r20, r18
    217c:	44 0f       	add	r20, r20
    217e:	55 1f       	adc	r21, r21
    2180:	44 0f       	add	r20, r20
    2182:	55 1f       	adc	r21, r21
    2184:	44 0f       	add	r20, r20
    2186:	55 1f       	adc	r21, r21
    2188:	8e 2d       	mov	r24, r14
    218a:	90 e0       	ldi	r25, 0x00	; 0
    218c:	9c 01       	movw	r18, r24
    218e:	35 95       	asr	r19
    2190:	27 95       	ror	r18
    2192:	35 95       	asr	r19
    2194:	27 95       	ror	r18
    2196:	35 95       	asr	r19
    2198:	27 95       	ror	r18
    219a:	24 2b       	or	r18, r20
    219c:	2f b9       	out	0x0f, r18	; 15
    219e:	77 9b       	sbis	0x0e, 7	; 14
    21a0:	fe cf       	rjmp	.-4      	; 0x219e <_Z20ST7789_DrawRectangleccccccc+0xe2>
    21a2:	88 0f       	add	r24, r24
    21a4:	99 1f       	adc	r25, r25
    21a6:	82 95       	swap	r24
    21a8:	92 95       	swap	r25
    21aa:	90 7f       	andi	r25, 0xF0	; 240
    21ac:	98 27       	eor	r25, r24
    21ae:	80 7f       	andi	r24, 0xF0	; 240
    21b0:	98 27       	eor	r25, r24
    21b2:	8c 29       	or	r24, r12
    21b4:	8f b9       	out	0x0f, r24	; 15
    21b6:	77 9b       	sbis	0x0e, 7	; 14
    21b8:	fe cf       	rjmp	.-4      	; 0x21b6 <_Z20ST7789_DrawRectangleccccccc+0xfa>
    21ba:	6f 5f       	subi	r22, 0xFF	; 255
    21bc:	7f 4f       	sbci	r23, 0xFF	; 255
    21be:	d1 cf       	rjmp	.-94     	; 0x2162 <_Z20ST7789_DrawRectangleccccccc+0xa6>
    21c0:	0f 91       	pop	r16
    21c2:	ef 90       	pop	r14
    21c4:	cf 90       	pop	r12
    21c6:	08 95       	ret

000021c8 <_Z17ST7789_FillScreen6colour>:
    21c8:	cf 92       	push	r12
    21ca:	ef 92       	push	r14
    21cc:	0f 93       	push	r16
    21ce:	c8 2e       	mov	r12, r24
    21d0:	e7 2e       	mov	r14, r23
    21d2:	06 2f       	mov	r16, r22
    21d4:	20 ef       	ldi	r18, 0xF0	; 240
    21d6:	40 ef       	ldi	r20, 0xF0	; 240
    21d8:	60 e0       	ldi	r22, 0x00	; 0
    21da:	80 e0       	ldi	r24, 0x00	; 0
    21dc:	0e 94 5e 10 	call	0x20bc	; 0x20bc <_Z20ST7789_DrawRectangleccccccc>
    21e0:	0f 91       	pop	r16
    21e2:	ef 90       	pop	r14
    21e4:	cf 90       	pop	r12
    21e6:	08 95       	ret

000021e8 <_Z16ST7789_PrintCharcccccccc>:
    21e8:	7f 92       	push	r7
    21ea:	8f 92       	push	r8
    21ec:	9f 92       	push	r9
    21ee:	af 92       	push	r10
    21f0:	bf 92       	push	r11
    21f2:	cf 92       	push	r12
    21f4:	df 92       	push	r13
    21f6:	ef 92       	push	r14
    21f8:	ff 92       	push	r15
    21fa:	0f 93       	push	r16
    21fc:	1f 93       	push	r17
    21fe:	cf 93       	push	r28
    2200:	df 93       	push	r29
    2202:	18 2f       	mov	r17, r24
    2204:	f6 2e       	mov	r15, r22
    2206:	d4 2e       	mov	r13, r20
    2208:	b2 2e       	mov	r11, r18
    220a:	90 2e       	mov	r9, r16
    220c:	8e 2c       	mov	r8, r14
    220e:	7c 2c       	mov	r7, r12
    2210:	8a 2d       	mov	r24, r10
    2212:	90 e0       	ldi	r25, 0x00	; 0
    2214:	9c 01       	movw	r18, r24
    2216:	22 0f       	add	r18, r18
    2218:	33 1f       	adc	r19, r19
    221a:	82 0f       	add	r24, r18
    221c:	93 1f       	adc	r25, r19
    221e:	88 0f       	add	r24, r24
    2220:	99 1f       	adc	r25, r25
    2222:	20 91 17 06 	lds	r18, 0x0617	; 0x800617 <xpos>
    2226:	82 0f       	add	r24, r18
    2228:	91 1d       	adc	r25, r1
    222a:	81 3f       	cpi	r24, 0xF1	; 241
    222c:	91 05       	cpc	r25, r1
    222e:	5c f0       	brlt	.+22     	; 0x2246 <_Z16ST7789_PrintCharcccccccc+0x5e>
    2230:	10 92 17 06 	sts	0x0617, r1	; 0x800617 <xpos>
    2234:	90 91 16 06 	lds	r25, 0x0616	; 0x800616 <ypos>
    2238:	8a 2d       	mov	r24, r10
    223a:	88 0f       	add	r24, r24
    223c:	88 0f       	add	r24, r24
    223e:	88 0f       	add	r24, r24
    2240:	89 0f       	add	r24, r25
    2242:	80 93 16 06 	sts	0x0616, r24	; 0x800616 <ypos>
    2246:	d0 e0       	ldi	r29, 0x00	; 0
    2248:	d6 30       	cpi	r29, 0x06	; 6
    224a:	08 f0       	brcs	.+2      	; 0x224e <_Z16ST7789_PrintCharcccccccc+0x66>
    224c:	60 c0       	rjmp	.+192    	; 0x230e <_Z16ST7789_PrintCharcccccccc+0x126>
    224e:	c0 e0       	ldi	r28, 0x00	; 0
    2250:	c8 30       	cpi	r28, 0x08	; 8
    2252:	08 f0       	brcs	.+2      	; 0x2256 <_Z16ST7789_PrintCharcccccccc+0x6e>
    2254:	40 c0       	rjmp	.+128    	; 0x22d6 <_Z16ST7789_PrintCharcccccccc+0xee>
    2256:	81 2f       	mov	r24, r17
    2258:	90 e0       	ldi	r25, 0x00	; 0
    225a:	80 97       	sbiw	r24, 0x20	; 32
    225c:	fc 01       	movw	r30, r24
    225e:	ee 0f       	add	r30, r30
    2260:	ff 1f       	adc	r31, r31
    2262:	e8 0f       	add	r30, r24
    2264:	f9 1f       	adc	r31, r25
    2266:	ee 0f       	add	r30, r30
    2268:	ff 1f       	adc	r31, r31
    226a:	ef 54       	subi	r30, 0x4F	; 79
    226c:	ff 4f       	sbci	r31, 0xFF	; 255
    226e:	ed 0f       	add	r30, r29
    2270:	f1 1d       	adc	r31, r1
    2272:	40 81       	ld	r20, Z
    2274:	27 e0       	ldi	r18, 0x07	; 7
    2276:	30 e0       	ldi	r19, 0x00	; 0
    2278:	2c 1b       	sub	r18, r28
    227a:	31 09       	sbc	r19, r1
    227c:	81 e0       	ldi	r24, 0x01	; 1
    227e:	90 e0       	ldi	r25, 0x00	; 0
    2280:	bc 01       	movw	r22, r24
    2282:	02 c0       	rjmp	.+4      	; 0x2288 <_Z16ST7789_PrintCharcccccccc+0xa0>
    2284:	66 0f       	add	r22, r22
    2286:	77 1f       	adc	r23, r23
    2288:	2a 95       	dec	r18
    228a:	e2 f7       	brpl	.-8      	; 0x2284 <_Z16ST7789_PrintCharcccccccc+0x9c>
    228c:	84 2f       	mov	r24, r20
    228e:	90 e0       	ldi	r25, 0x00	; 0
    2290:	86 23       	and	r24, r22
    2292:	97 23       	and	r25, r23
    2294:	89 2b       	or	r24, r25
    2296:	79 f0       	breq	.+30     	; 0x22b6 <_Z16ST7789_PrintCharcccccccc+0xce>
    2298:	60 91 16 06 	lds	r22, 0x0616	; 0x800616 <ypos>
    229c:	ca 9d       	mul	r28, r10
    229e:	60 0d       	add	r22, r0
    22a0:	11 24       	eor	r1, r1
    22a2:	cb 2c       	mov	r12, r11
    22a4:	ed 2c       	mov	r14, r13
    22a6:	0f 2d       	mov	r16, r15
    22a8:	2a 2d       	mov	r18, r10
    22aa:	4a 2d       	mov	r20, r10
    22ac:	80 91 17 06 	lds	r24, 0x0617	; 0x800617 <xpos>
    22b0:	0e 94 5e 10 	call	0x20bc	; 0x20bc <_Z20ST7789_DrawRectangleccccccc>
    22b4:	0e c0       	rjmp	.+28     	; 0x22d2 <_Z16ST7789_PrintCharcccccccc+0xea>
    22b6:	60 91 16 06 	lds	r22, 0x0616	; 0x800616 <ypos>
    22ba:	ca 9d       	mul	r28, r10
    22bc:	60 0d       	add	r22, r0
    22be:	11 24       	eor	r1, r1
    22c0:	c7 2c       	mov	r12, r7
    22c2:	e8 2c       	mov	r14, r8
    22c4:	09 2d       	mov	r16, r9
    22c6:	2a 2d       	mov	r18, r10
    22c8:	4a 2d       	mov	r20, r10
    22ca:	80 91 17 06 	lds	r24, 0x0617	; 0x800617 <xpos>
    22ce:	0e 94 5e 10 	call	0x20bc	; 0x20bc <_Z20ST7789_DrawRectangleccccccc>
    22d2:	cf 5f       	subi	r28, 0xFF	; 255
    22d4:	bd cf       	rjmp	.-134    	; 0x2250 <_Z16ST7789_PrintCharcccccccc+0x68>
    22d6:	80 91 17 06 	lds	r24, 0x0617	; 0x800617 <xpos>
    22da:	8a 0d       	add	r24, r10
    22dc:	80 93 17 06 	sts	0x0617, r24	; 0x800617 <xpos>
    22e0:	80 3f       	cpi	r24, 0xF0	; 240
    22e2:	58 f0       	brcs	.+22     	; 0x22fa <_Z16ST7789_PrintCharcccccccc+0x112>
    22e4:	10 92 17 06 	sts	0x0617, r1	; 0x800617 <xpos>
    22e8:	90 91 16 06 	lds	r25, 0x0616	; 0x800616 <ypos>
    22ec:	8a 2d       	mov	r24, r10
    22ee:	88 0f       	add	r24, r24
    22f0:	88 0f       	add	r24, r24
    22f2:	88 0f       	add	r24, r24
    22f4:	89 0f       	add	r24, r25
    22f6:	80 93 16 06 	sts	0x0616, r24	; 0x800616 <ypos>
    22fa:	80 91 16 06 	lds	r24, 0x0616	; 0x800616 <ypos>
    22fe:	80 3f       	cpi	r24, 0xF0	; 240
    2300:	20 f0       	brcs	.+8      	; 0x230a <_Z16ST7789_PrintCharcccccccc+0x122>
    2302:	10 92 17 06 	sts	0x0617, r1	; 0x800617 <xpos>
    2306:	10 92 16 06 	sts	0x0616, r1	; 0x800616 <ypos>
    230a:	df 5f       	subi	r29, 0xFF	; 255
    230c:	9d cf       	rjmp	.-198    	; 0x2248 <_Z16ST7789_PrintCharcccccccc+0x60>
    230e:	df 91       	pop	r29
    2310:	cf 91       	pop	r28
    2312:	1f 91       	pop	r17
    2314:	0f 91       	pop	r16
    2316:	ff 90       	pop	r15
    2318:	ef 90       	pop	r14
    231a:	df 90       	pop	r13
    231c:	cf 90       	pop	r12
    231e:	bf 90       	pop	r11
    2320:	af 90       	pop	r10
    2322:	9f 90       	pop	r9
    2324:	8f 90       	pop	r8
    2326:	7f 90       	pop	r7
    2328:	08 95       	ret

0000232a <_Z18ST7789_PrintStringPcccccccc>:
    232a:	5f 92       	push	r5
    232c:	6f 92       	push	r6
    232e:	7f 92       	push	r7
    2330:	8f 92       	push	r8
    2332:	9f 92       	push	r9
    2334:	af 92       	push	r10
    2336:	bf 92       	push	r11
    2338:	cf 92       	push	r12
    233a:	df 92       	push	r13
    233c:	ef 92       	push	r14
    233e:	ff 92       	push	r15
    2340:	0f 93       	push	r16
    2342:	1f 93       	push	r17
    2344:	cf 93       	push	r28
    2346:	df 93       	push	r29
    2348:	4c 01       	movw	r8, r24
    234a:	56 2e       	mov	r5, r22
    234c:	64 2e       	mov	r6, r20
    234e:	72 2e       	mov	r7, r18
    2350:	b0 2e       	mov	r11, r16
    2352:	de 2c       	mov	r13, r14
    2354:	fc 2c       	mov	r15, r12
    2356:	1a 2d       	mov	r17, r10
    2358:	c0 e0       	ldi	r28, 0x00	; 0
    235a:	d0 e0       	ldi	r29, 0x00	; 0
    235c:	f4 01       	movw	r30, r8
    235e:	ec 0f       	add	r30, r28
    2360:	fd 1f       	adc	r31, r29
    2362:	80 81       	ld	r24, Z
    2364:	88 23       	and	r24, r24
    2366:	59 f0       	breq	.+22     	; 0x237e <_Z18ST7789_PrintStringPcccccccc+0x54>
    2368:	a1 2e       	mov	r10, r17
    236a:	cf 2c       	mov	r12, r15
    236c:	ed 2c       	mov	r14, r13
    236e:	0b 2d       	mov	r16, r11
    2370:	27 2d       	mov	r18, r7
    2372:	46 2d       	mov	r20, r6
    2374:	65 2d       	mov	r22, r5
    2376:	0e 94 f4 10 	call	0x21e8	; 0x21e8 <_Z16ST7789_PrintCharcccccccc>
    237a:	21 96       	adiw	r28, 0x01	; 1
    237c:	ef cf       	rjmp	.-34     	; 0x235c <_Z18ST7789_PrintStringPcccccccc+0x32>
    237e:	df 91       	pop	r29
    2380:	cf 91       	pop	r28
    2382:	1f 91       	pop	r17
    2384:	0f 91       	pop	r16
    2386:	ff 90       	pop	r15
    2388:	ef 90       	pop	r14
    238a:	df 90       	pop	r13
    238c:	cf 90       	pop	r12
    238e:	bf 90       	pop	r11
    2390:	af 90       	pop	r10
    2392:	9f 90       	pop	r9
    2394:	8f 90       	pop	r8
    2396:	7f 90       	pop	r7
    2398:	6f 90       	pop	r6
    239a:	5f 90       	pop	r5
    239c:	08 95       	ret

0000239e <_Z18ST7789_PrintStringPc6colourc>:

		// на дефолтном фоне цветная строка
		// по цвету и без координат
void ST7789_PrintString(char* string, colour colour_font, char size)
{
    239e:	af 92       	push	r10
    23a0:	cf 92       	push	r12
    23a2:	ef 92       	push	r14
    23a4:	0f 93       	push	r16
    23a6:	34 2f       	mov	r19, r20
    23a8:	45 2f       	mov	r20, r21
	ST7789_PrintString(string, colour_font.red, colour_font.green, colour_font.blue, RED_BACKGROUND, GREEN_BACKGROUND, BLUE_BACKGROUND, size);
    23aa:	a2 2e       	mov	r10, r18
    23ac:	c1 2c       	mov	r12, r1
    23ae:	e1 2c       	mov	r14, r1
    23b0:	00 e0       	ldi	r16, 0x00	; 0
    23b2:	26 2f       	mov	r18, r22
    23b4:	63 2f       	mov	r22, r19
    23b6:	0e 94 95 11 	call	0x232a	; 0x232a <_Z18ST7789_PrintStringPcccccccc>
}
    23ba:	0f 91       	pop	r16
    23bc:	ef 90       	pop	r14
    23be:	cf 90       	pop	r12
    23c0:	af 90       	pop	r10
    23c2:	08 95       	ret

000023c4 <__divmodhi4>:
    23c4:	97 fb       	bst	r25, 7
    23c6:	07 2e       	mov	r0, r23
    23c8:	16 f4       	brtc	.+4      	; 0x23ce <__divmodhi4+0xa>
    23ca:	00 94       	com	r0
    23cc:	07 d0       	rcall	.+14     	; 0x23dc <__divmodhi4_neg1>
    23ce:	77 fd       	sbrc	r23, 7
    23d0:	09 d0       	rcall	.+18     	; 0x23e4 <__divmodhi4_neg2>
    23d2:	0e 94 fc 11 	call	0x23f8	; 0x23f8 <__udivmodhi4>
    23d6:	07 fc       	sbrc	r0, 7
    23d8:	05 d0       	rcall	.+10     	; 0x23e4 <__divmodhi4_neg2>
    23da:	3e f4       	brtc	.+14     	; 0x23ea <__divmodhi4_exit>

000023dc <__divmodhi4_neg1>:
    23dc:	90 95       	com	r25
    23de:	81 95       	neg	r24
    23e0:	9f 4f       	sbci	r25, 0xFF	; 255
    23e2:	08 95       	ret

000023e4 <__divmodhi4_neg2>:
    23e4:	70 95       	com	r23
    23e6:	61 95       	neg	r22
    23e8:	7f 4f       	sbci	r23, 0xFF	; 255

000023ea <__divmodhi4_exit>:
    23ea:	08 95       	ret

000023ec <__tablejump2__>:
    23ec:	ee 0f       	add	r30, r30
    23ee:	ff 1f       	adc	r31, r31
    23f0:	05 90       	lpm	r0, Z+
    23f2:	f4 91       	lpm	r31, Z
    23f4:	e0 2d       	mov	r30, r0
    23f6:	09 94       	ijmp

000023f8 <__udivmodhi4>:
    23f8:	aa 1b       	sub	r26, r26
    23fa:	bb 1b       	sub	r27, r27
    23fc:	51 e1       	ldi	r21, 0x11	; 17
    23fe:	07 c0       	rjmp	.+14     	; 0x240e <__udivmodhi4_ep>

00002400 <__udivmodhi4_loop>:
    2400:	aa 1f       	adc	r26, r26
    2402:	bb 1f       	adc	r27, r27
    2404:	a6 17       	cp	r26, r22
    2406:	b7 07       	cpc	r27, r23
    2408:	10 f0       	brcs	.+4      	; 0x240e <__udivmodhi4_ep>
    240a:	a6 1b       	sub	r26, r22
    240c:	b7 0b       	sbc	r27, r23

0000240e <__udivmodhi4_ep>:
    240e:	88 1f       	adc	r24, r24
    2410:	99 1f       	adc	r25, r25
    2412:	5a 95       	dec	r21
    2414:	a9 f7       	brne	.-22     	; 0x2400 <__udivmodhi4_loop>
    2416:	80 95       	com	r24
    2418:	90 95       	com	r25
    241a:	bc 01       	movw	r22, r24
    241c:	cd 01       	movw	r24, r26
    241e:	08 95       	ret

00002420 <__subsf3>:
    2420:	50 58       	subi	r21, 0x80	; 128

00002422 <__addsf3>:
    2422:	bb 27       	eor	r27, r27
    2424:	aa 27       	eor	r26, r26
    2426:	0e 94 28 12 	call	0x2450	; 0x2450 <__addsf3x>
    242a:	0c 94 a2 13 	jmp	0x2744	; 0x2744 <__fp_round>
    242e:	0e 94 94 13 	call	0x2728	; 0x2728 <__fp_pscA>
    2432:	38 f0       	brcs	.+14     	; 0x2442 <__addsf3+0x20>
    2434:	0e 94 9b 13 	call	0x2736	; 0x2736 <__fp_pscB>
    2438:	20 f0       	brcs	.+8      	; 0x2442 <__addsf3+0x20>
    243a:	39 f4       	brne	.+14     	; 0x244a <__addsf3+0x28>
    243c:	9f 3f       	cpi	r25, 0xFF	; 255
    243e:	19 f4       	brne	.+6      	; 0x2446 <__addsf3+0x24>
    2440:	26 f4       	brtc	.+8      	; 0x244a <__addsf3+0x28>
    2442:	0c 94 91 13 	jmp	0x2722	; 0x2722 <__fp_nan>
    2446:	0e f4       	brtc	.+2      	; 0x244a <__addsf3+0x28>
    2448:	e0 95       	com	r30
    244a:	e7 fb       	bst	r30, 7
    244c:	0c 94 8b 13 	jmp	0x2716	; 0x2716 <__fp_inf>

00002450 <__addsf3x>:
    2450:	e9 2f       	mov	r30, r25
    2452:	0e 94 b3 13 	call	0x2766	; 0x2766 <__fp_split3>
    2456:	58 f3       	brcs	.-42     	; 0x242e <__addsf3+0xc>
    2458:	ba 17       	cp	r27, r26
    245a:	62 07       	cpc	r22, r18
    245c:	73 07       	cpc	r23, r19
    245e:	84 07       	cpc	r24, r20
    2460:	95 07       	cpc	r25, r21
    2462:	20 f0       	brcs	.+8      	; 0x246c <__addsf3x+0x1c>
    2464:	79 f4       	brne	.+30     	; 0x2484 <__addsf3x+0x34>
    2466:	a6 f5       	brtc	.+104    	; 0x24d0 <__addsf3x+0x80>
    2468:	0c 94 d5 13 	jmp	0x27aa	; 0x27aa <__fp_zero>
    246c:	0e f4       	brtc	.+2      	; 0x2470 <__addsf3x+0x20>
    246e:	e0 95       	com	r30
    2470:	0b 2e       	mov	r0, r27
    2472:	ba 2f       	mov	r27, r26
    2474:	a0 2d       	mov	r26, r0
    2476:	0b 01       	movw	r0, r22
    2478:	b9 01       	movw	r22, r18
    247a:	90 01       	movw	r18, r0
    247c:	0c 01       	movw	r0, r24
    247e:	ca 01       	movw	r24, r20
    2480:	a0 01       	movw	r20, r0
    2482:	11 24       	eor	r1, r1
    2484:	ff 27       	eor	r31, r31
    2486:	59 1b       	sub	r21, r25
    2488:	99 f0       	breq	.+38     	; 0x24b0 <__addsf3x+0x60>
    248a:	59 3f       	cpi	r21, 0xF9	; 249
    248c:	50 f4       	brcc	.+20     	; 0x24a2 <__addsf3x+0x52>
    248e:	50 3e       	cpi	r21, 0xE0	; 224
    2490:	68 f1       	brcs	.+90     	; 0x24ec <__addsf3x+0x9c>
    2492:	1a 16       	cp	r1, r26
    2494:	f0 40       	sbci	r31, 0x00	; 0
    2496:	a2 2f       	mov	r26, r18
    2498:	23 2f       	mov	r18, r19
    249a:	34 2f       	mov	r19, r20
    249c:	44 27       	eor	r20, r20
    249e:	58 5f       	subi	r21, 0xF8	; 248
    24a0:	f3 cf       	rjmp	.-26     	; 0x2488 <__addsf3x+0x38>
    24a2:	46 95       	lsr	r20
    24a4:	37 95       	ror	r19
    24a6:	27 95       	ror	r18
    24a8:	a7 95       	ror	r26
    24aa:	f0 40       	sbci	r31, 0x00	; 0
    24ac:	53 95       	inc	r21
    24ae:	c9 f7       	brne	.-14     	; 0x24a2 <__addsf3x+0x52>
    24b0:	7e f4       	brtc	.+30     	; 0x24d0 <__addsf3x+0x80>
    24b2:	1f 16       	cp	r1, r31
    24b4:	ba 0b       	sbc	r27, r26
    24b6:	62 0b       	sbc	r22, r18
    24b8:	73 0b       	sbc	r23, r19
    24ba:	84 0b       	sbc	r24, r20
    24bc:	ba f0       	brmi	.+46     	; 0x24ec <__addsf3x+0x9c>
    24be:	91 50       	subi	r25, 0x01	; 1
    24c0:	a1 f0       	breq	.+40     	; 0x24ea <__addsf3x+0x9a>
    24c2:	ff 0f       	add	r31, r31
    24c4:	bb 1f       	adc	r27, r27
    24c6:	66 1f       	adc	r22, r22
    24c8:	77 1f       	adc	r23, r23
    24ca:	88 1f       	adc	r24, r24
    24cc:	c2 f7       	brpl	.-16     	; 0x24be <__addsf3x+0x6e>
    24ce:	0e c0       	rjmp	.+28     	; 0x24ec <__addsf3x+0x9c>
    24d0:	ba 0f       	add	r27, r26
    24d2:	62 1f       	adc	r22, r18
    24d4:	73 1f       	adc	r23, r19
    24d6:	84 1f       	adc	r24, r20
    24d8:	48 f4       	brcc	.+18     	; 0x24ec <__addsf3x+0x9c>
    24da:	87 95       	ror	r24
    24dc:	77 95       	ror	r23
    24de:	67 95       	ror	r22
    24e0:	b7 95       	ror	r27
    24e2:	f7 95       	ror	r31
    24e4:	9e 3f       	cpi	r25, 0xFE	; 254
    24e6:	08 f0       	brcs	.+2      	; 0x24ea <__addsf3x+0x9a>
    24e8:	b0 cf       	rjmp	.-160    	; 0x244a <__addsf3+0x28>
    24ea:	93 95       	inc	r25
    24ec:	88 0f       	add	r24, r24
    24ee:	08 f0       	brcs	.+2      	; 0x24f2 <__addsf3x+0xa2>
    24f0:	99 27       	eor	r25, r25
    24f2:	ee 0f       	add	r30, r30
    24f4:	97 95       	ror	r25
    24f6:	87 95       	ror	r24
    24f8:	08 95       	ret

000024fa <__cmpsf2>:
    24fa:	0e 94 67 13 	call	0x26ce	; 0x26ce <__fp_cmp>
    24fe:	08 f4       	brcc	.+2      	; 0x2502 <__cmpsf2+0x8>
    2500:	81 e0       	ldi	r24, 0x01	; 1
    2502:	08 95       	ret

00002504 <__divsf3>:
    2504:	0e 94 96 12 	call	0x252c	; 0x252c <__divsf3x>
    2508:	0c 94 a2 13 	jmp	0x2744	; 0x2744 <__fp_round>
    250c:	0e 94 9b 13 	call	0x2736	; 0x2736 <__fp_pscB>
    2510:	58 f0       	brcs	.+22     	; 0x2528 <__divsf3+0x24>
    2512:	0e 94 94 13 	call	0x2728	; 0x2728 <__fp_pscA>
    2516:	40 f0       	brcs	.+16     	; 0x2528 <__divsf3+0x24>
    2518:	29 f4       	brne	.+10     	; 0x2524 <__divsf3+0x20>
    251a:	5f 3f       	cpi	r21, 0xFF	; 255
    251c:	29 f0       	breq	.+10     	; 0x2528 <__divsf3+0x24>
    251e:	0c 94 8b 13 	jmp	0x2716	; 0x2716 <__fp_inf>
    2522:	51 11       	cpse	r21, r1
    2524:	0c 94 d6 13 	jmp	0x27ac	; 0x27ac <__fp_szero>
    2528:	0c 94 91 13 	jmp	0x2722	; 0x2722 <__fp_nan>

0000252c <__divsf3x>:
    252c:	0e 94 b3 13 	call	0x2766	; 0x2766 <__fp_split3>
    2530:	68 f3       	brcs	.-38     	; 0x250c <__divsf3+0x8>

00002532 <__divsf3_pse>:
    2532:	99 23       	and	r25, r25
    2534:	b1 f3       	breq	.-20     	; 0x2522 <__divsf3+0x1e>
    2536:	55 23       	and	r21, r21
    2538:	91 f3       	breq	.-28     	; 0x251e <__divsf3+0x1a>
    253a:	95 1b       	sub	r25, r21
    253c:	55 0b       	sbc	r21, r21
    253e:	bb 27       	eor	r27, r27
    2540:	aa 27       	eor	r26, r26
    2542:	62 17       	cp	r22, r18
    2544:	73 07       	cpc	r23, r19
    2546:	84 07       	cpc	r24, r20
    2548:	38 f0       	brcs	.+14     	; 0x2558 <__divsf3_pse+0x26>
    254a:	9f 5f       	subi	r25, 0xFF	; 255
    254c:	5f 4f       	sbci	r21, 0xFF	; 255
    254e:	22 0f       	add	r18, r18
    2550:	33 1f       	adc	r19, r19
    2552:	44 1f       	adc	r20, r20
    2554:	aa 1f       	adc	r26, r26
    2556:	a9 f3       	breq	.-22     	; 0x2542 <__divsf3_pse+0x10>
    2558:	35 d0       	rcall	.+106    	; 0x25c4 <__divsf3_pse+0x92>
    255a:	0e 2e       	mov	r0, r30
    255c:	3a f0       	brmi	.+14     	; 0x256c <__divsf3_pse+0x3a>
    255e:	e0 e8       	ldi	r30, 0x80	; 128
    2560:	32 d0       	rcall	.+100    	; 0x25c6 <__divsf3_pse+0x94>
    2562:	91 50       	subi	r25, 0x01	; 1
    2564:	50 40       	sbci	r21, 0x00	; 0
    2566:	e6 95       	lsr	r30
    2568:	00 1c       	adc	r0, r0
    256a:	ca f7       	brpl	.-14     	; 0x255e <__divsf3_pse+0x2c>
    256c:	2b d0       	rcall	.+86     	; 0x25c4 <__divsf3_pse+0x92>
    256e:	fe 2f       	mov	r31, r30
    2570:	29 d0       	rcall	.+82     	; 0x25c4 <__divsf3_pse+0x92>
    2572:	66 0f       	add	r22, r22
    2574:	77 1f       	adc	r23, r23
    2576:	88 1f       	adc	r24, r24
    2578:	bb 1f       	adc	r27, r27
    257a:	26 17       	cp	r18, r22
    257c:	37 07       	cpc	r19, r23
    257e:	48 07       	cpc	r20, r24
    2580:	ab 07       	cpc	r26, r27
    2582:	b0 e8       	ldi	r27, 0x80	; 128
    2584:	09 f0       	breq	.+2      	; 0x2588 <__divsf3_pse+0x56>
    2586:	bb 0b       	sbc	r27, r27
    2588:	80 2d       	mov	r24, r0
    258a:	bf 01       	movw	r22, r30
    258c:	ff 27       	eor	r31, r31
    258e:	93 58       	subi	r25, 0x83	; 131
    2590:	5f 4f       	sbci	r21, 0xFF	; 255
    2592:	3a f0       	brmi	.+14     	; 0x25a2 <__divsf3_pse+0x70>
    2594:	9e 3f       	cpi	r25, 0xFE	; 254
    2596:	51 05       	cpc	r21, r1
    2598:	78 f0       	brcs	.+30     	; 0x25b8 <__divsf3_pse+0x86>
    259a:	0c 94 8b 13 	jmp	0x2716	; 0x2716 <__fp_inf>
    259e:	0c 94 d6 13 	jmp	0x27ac	; 0x27ac <__fp_szero>
    25a2:	5f 3f       	cpi	r21, 0xFF	; 255
    25a4:	e4 f3       	brlt	.-8      	; 0x259e <__divsf3_pse+0x6c>
    25a6:	98 3e       	cpi	r25, 0xE8	; 232
    25a8:	d4 f3       	brlt	.-12     	; 0x259e <__divsf3_pse+0x6c>
    25aa:	86 95       	lsr	r24
    25ac:	77 95       	ror	r23
    25ae:	67 95       	ror	r22
    25b0:	b7 95       	ror	r27
    25b2:	f7 95       	ror	r31
    25b4:	9f 5f       	subi	r25, 0xFF	; 255
    25b6:	c9 f7       	brne	.-14     	; 0x25aa <__divsf3_pse+0x78>
    25b8:	88 0f       	add	r24, r24
    25ba:	91 1d       	adc	r25, r1
    25bc:	96 95       	lsr	r25
    25be:	87 95       	ror	r24
    25c0:	97 f9       	bld	r25, 7
    25c2:	08 95       	ret
    25c4:	e1 e0       	ldi	r30, 0x01	; 1
    25c6:	66 0f       	add	r22, r22
    25c8:	77 1f       	adc	r23, r23
    25ca:	88 1f       	adc	r24, r24
    25cc:	bb 1f       	adc	r27, r27
    25ce:	62 17       	cp	r22, r18
    25d0:	73 07       	cpc	r23, r19
    25d2:	84 07       	cpc	r24, r20
    25d4:	ba 07       	cpc	r27, r26
    25d6:	20 f0       	brcs	.+8      	; 0x25e0 <__divsf3_pse+0xae>
    25d8:	62 1b       	sub	r22, r18
    25da:	73 0b       	sbc	r23, r19
    25dc:	84 0b       	sbc	r24, r20
    25de:	ba 0b       	sbc	r27, r26
    25e0:	ee 1f       	adc	r30, r30
    25e2:	88 f7       	brcc	.-30     	; 0x25c6 <__divsf3_pse+0x94>
    25e4:	e0 95       	com	r30
    25e6:	08 95       	ret

000025e8 <__fixsfsi>:
    25e8:	0e 94 fb 12 	call	0x25f6	; 0x25f6 <__fixunssfsi>
    25ec:	68 94       	set
    25ee:	b1 11       	cpse	r27, r1
    25f0:	0c 94 d6 13 	jmp	0x27ac	; 0x27ac <__fp_szero>
    25f4:	08 95       	ret

000025f6 <__fixunssfsi>:
    25f6:	0e 94 bb 13 	call	0x2776	; 0x2776 <__fp_splitA>
    25fa:	88 f0       	brcs	.+34     	; 0x261e <__fixunssfsi+0x28>
    25fc:	9f 57       	subi	r25, 0x7F	; 127
    25fe:	98 f0       	brcs	.+38     	; 0x2626 <__fixunssfsi+0x30>
    2600:	b9 2f       	mov	r27, r25
    2602:	99 27       	eor	r25, r25
    2604:	b7 51       	subi	r27, 0x17	; 23
    2606:	b0 f0       	brcs	.+44     	; 0x2634 <__fixunssfsi+0x3e>
    2608:	e1 f0       	breq	.+56     	; 0x2642 <__fixunssfsi+0x4c>
    260a:	66 0f       	add	r22, r22
    260c:	77 1f       	adc	r23, r23
    260e:	88 1f       	adc	r24, r24
    2610:	99 1f       	adc	r25, r25
    2612:	1a f0       	brmi	.+6      	; 0x261a <__fixunssfsi+0x24>
    2614:	ba 95       	dec	r27
    2616:	c9 f7       	brne	.-14     	; 0x260a <__fixunssfsi+0x14>
    2618:	14 c0       	rjmp	.+40     	; 0x2642 <__fixunssfsi+0x4c>
    261a:	b1 30       	cpi	r27, 0x01	; 1
    261c:	91 f0       	breq	.+36     	; 0x2642 <__fixunssfsi+0x4c>
    261e:	0e 94 d5 13 	call	0x27aa	; 0x27aa <__fp_zero>
    2622:	b1 e0       	ldi	r27, 0x01	; 1
    2624:	08 95       	ret
    2626:	0c 94 d5 13 	jmp	0x27aa	; 0x27aa <__fp_zero>
    262a:	67 2f       	mov	r22, r23
    262c:	78 2f       	mov	r23, r24
    262e:	88 27       	eor	r24, r24
    2630:	b8 5f       	subi	r27, 0xF8	; 248
    2632:	39 f0       	breq	.+14     	; 0x2642 <__fixunssfsi+0x4c>
    2634:	b9 3f       	cpi	r27, 0xF9	; 249
    2636:	cc f3       	brlt	.-14     	; 0x262a <__fixunssfsi+0x34>
    2638:	86 95       	lsr	r24
    263a:	77 95       	ror	r23
    263c:	67 95       	ror	r22
    263e:	b3 95       	inc	r27
    2640:	d9 f7       	brne	.-10     	; 0x2638 <__fixunssfsi+0x42>
    2642:	3e f4       	brtc	.+14     	; 0x2652 <__fixunssfsi+0x5c>
    2644:	90 95       	com	r25
    2646:	80 95       	com	r24
    2648:	70 95       	com	r23
    264a:	61 95       	neg	r22
    264c:	7f 4f       	sbci	r23, 0xFF	; 255
    264e:	8f 4f       	sbci	r24, 0xFF	; 255
    2650:	9f 4f       	sbci	r25, 0xFF	; 255
    2652:	08 95       	ret

00002654 <__floatunsisf>:
    2654:	e8 94       	clt
    2656:	09 c0       	rjmp	.+18     	; 0x266a <__floatsisf+0x12>

00002658 <__floatsisf>:
    2658:	97 fb       	bst	r25, 7
    265a:	3e f4       	brtc	.+14     	; 0x266a <__floatsisf+0x12>
    265c:	90 95       	com	r25
    265e:	80 95       	com	r24
    2660:	70 95       	com	r23
    2662:	61 95       	neg	r22
    2664:	7f 4f       	sbci	r23, 0xFF	; 255
    2666:	8f 4f       	sbci	r24, 0xFF	; 255
    2668:	9f 4f       	sbci	r25, 0xFF	; 255
    266a:	99 23       	and	r25, r25
    266c:	a9 f0       	breq	.+42     	; 0x2698 <__floatsisf+0x40>
    266e:	f9 2f       	mov	r31, r25
    2670:	96 e9       	ldi	r25, 0x96	; 150
    2672:	bb 27       	eor	r27, r27
    2674:	93 95       	inc	r25
    2676:	f6 95       	lsr	r31
    2678:	87 95       	ror	r24
    267a:	77 95       	ror	r23
    267c:	67 95       	ror	r22
    267e:	b7 95       	ror	r27
    2680:	f1 11       	cpse	r31, r1
    2682:	f8 cf       	rjmp	.-16     	; 0x2674 <__floatsisf+0x1c>
    2684:	fa f4       	brpl	.+62     	; 0x26c4 <__floatsisf+0x6c>
    2686:	bb 0f       	add	r27, r27
    2688:	11 f4       	brne	.+4      	; 0x268e <__floatsisf+0x36>
    268a:	60 ff       	sbrs	r22, 0
    268c:	1b c0       	rjmp	.+54     	; 0x26c4 <__floatsisf+0x6c>
    268e:	6f 5f       	subi	r22, 0xFF	; 255
    2690:	7f 4f       	sbci	r23, 0xFF	; 255
    2692:	8f 4f       	sbci	r24, 0xFF	; 255
    2694:	9f 4f       	sbci	r25, 0xFF	; 255
    2696:	16 c0       	rjmp	.+44     	; 0x26c4 <__floatsisf+0x6c>
    2698:	88 23       	and	r24, r24
    269a:	11 f0       	breq	.+4      	; 0x26a0 <__floatsisf+0x48>
    269c:	96 e9       	ldi	r25, 0x96	; 150
    269e:	11 c0       	rjmp	.+34     	; 0x26c2 <__floatsisf+0x6a>
    26a0:	77 23       	and	r23, r23
    26a2:	21 f0       	breq	.+8      	; 0x26ac <__floatsisf+0x54>
    26a4:	9e e8       	ldi	r25, 0x8E	; 142
    26a6:	87 2f       	mov	r24, r23
    26a8:	76 2f       	mov	r23, r22
    26aa:	05 c0       	rjmp	.+10     	; 0x26b6 <__floatsisf+0x5e>
    26ac:	66 23       	and	r22, r22
    26ae:	71 f0       	breq	.+28     	; 0x26cc <__floatsisf+0x74>
    26b0:	96 e8       	ldi	r25, 0x86	; 134
    26b2:	86 2f       	mov	r24, r22
    26b4:	70 e0       	ldi	r23, 0x00	; 0
    26b6:	60 e0       	ldi	r22, 0x00	; 0
    26b8:	2a f0       	brmi	.+10     	; 0x26c4 <__floatsisf+0x6c>
    26ba:	9a 95       	dec	r25
    26bc:	66 0f       	add	r22, r22
    26be:	77 1f       	adc	r23, r23
    26c0:	88 1f       	adc	r24, r24
    26c2:	da f7       	brpl	.-10     	; 0x26ba <__floatsisf+0x62>
    26c4:	88 0f       	add	r24, r24
    26c6:	96 95       	lsr	r25
    26c8:	87 95       	ror	r24
    26ca:	97 f9       	bld	r25, 7
    26cc:	08 95       	ret

000026ce <__fp_cmp>:
    26ce:	99 0f       	add	r25, r25
    26d0:	00 08       	sbc	r0, r0
    26d2:	55 0f       	add	r21, r21
    26d4:	aa 0b       	sbc	r26, r26
    26d6:	e0 e8       	ldi	r30, 0x80	; 128
    26d8:	fe ef       	ldi	r31, 0xFE	; 254
    26da:	16 16       	cp	r1, r22
    26dc:	17 06       	cpc	r1, r23
    26de:	e8 07       	cpc	r30, r24
    26e0:	f9 07       	cpc	r31, r25
    26e2:	c0 f0       	brcs	.+48     	; 0x2714 <__fp_cmp+0x46>
    26e4:	12 16       	cp	r1, r18
    26e6:	13 06       	cpc	r1, r19
    26e8:	e4 07       	cpc	r30, r20
    26ea:	f5 07       	cpc	r31, r21
    26ec:	98 f0       	brcs	.+38     	; 0x2714 <__fp_cmp+0x46>
    26ee:	62 1b       	sub	r22, r18
    26f0:	73 0b       	sbc	r23, r19
    26f2:	84 0b       	sbc	r24, r20
    26f4:	95 0b       	sbc	r25, r21
    26f6:	39 f4       	brne	.+14     	; 0x2706 <__fp_cmp+0x38>
    26f8:	0a 26       	eor	r0, r26
    26fa:	61 f0       	breq	.+24     	; 0x2714 <__fp_cmp+0x46>
    26fc:	23 2b       	or	r18, r19
    26fe:	24 2b       	or	r18, r20
    2700:	25 2b       	or	r18, r21
    2702:	21 f4       	brne	.+8      	; 0x270c <__fp_cmp+0x3e>
    2704:	08 95       	ret
    2706:	0a 26       	eor	r0, r26
    2708:	09 f4       	brne	.+2      	; 0x270c <__fp_cmp+0x3e>
    270a:	a1 40       	sbci	r26, 0x01	; 1
    270c:	a6 95       	lsr	r26
    270e:	8f ef       	ldi	r24, 0xFF	; 255
    2710:	81 1d       	adc	r24, r1
    2712:	81 1d       	adc	r24, r1
    2714:	08 95       	ret

00002716 <__fp_inf>:
    2716:	97 f9       	bld	r25, 7
    2718:	9f 67       	ori	r25, 0x7F	; 127
    271a:	80 e8       	ldi	r24, 0x80	; 128
    271c:	70 e0       	ldi	r23, 0x00	; 0
    271e:	60 e0       	ldi	r22, 0x00	; 0
    2720:	08 95       	ret

00002722 <__fp_nan>:
    2722:	9f ef       	ldi	r25, 0xFF	; 255
    2724:	80 ec       	ldi	r24, 0xC0	; 192
    2726:	08 95       	ret

00002728 <__fp_pscA>:
    2728:	00 24       	eor	r0, r0
    272a:	0a 94       	dec	r0
    272c:	16 16       	cp	r1, r22
    272e:	17 06       	cpc	r1, r23
    2730:	18 06       	cpc	r1, r24
    2732:	09 06       	cpc	r0, r25
    2734:	08 95       	ret

00002736 <__fp_pscB>:
    2736:	00 24       	eor	r0, r0
    2738:	0a 94       	dec	r0
    273a:	12 16       	cp	r1, r18
    273c:	13 06       	cpc	r1, r19
    273e:	14 06       	cpc	r1, r20
    2740:	05 06       	cpc	r0, r21
    2742:	08 95       	ret

00002744 <__fp_round>:
    2744:	09 2e       	mov	r0, r25
    2746:	03 94       	inc	r0
    2748:	00 0c       	add	r0, r0
    274a:	11 f4       	brne	.+4      	; 0x2750 <__fp_round+0xc>
    274c:	88 23       	and	r24, r24
    274e:	52 f0       	brmi	.+20     	; 0x2764 <__fp_round+0x20>
    2750:	bb 0f       	add	r27, r27
    2752:	40 f4       	brcc	.+16     	; 0x2764 <__fp_round+0x20>
    2754:	bf 2b       	or	r27, r31
    2756:	11 f4       	brne	.+4      	; 0x275c <__fp_round+0x18>
    2758:	60 ff       	sbrs	r22, 0
    275a:	04 c0       	rjmp	.+8      	; 0x2764 <__fp_round+0x20>
    275c:	6f 5f       	subi	r22, 0xFF	; 255
    275e:	7f 4f       	sbci	r23, 0xFF	; 255
    2760:	8f 4f       	sbci	r24, 0xFF	; 255
    2762:	9f 4f       	sbci	r25, 0xFF	; 255
    2764:	08 95       	ret

00002766 <__fp_split3>:
    2766:	57 fd       	sbrc	r21, 7
    2768:	90 58       	subi	r25, 0x80	; 128
    276a:	44 0f       	add	r20, r20
    276c:	55 1f       	adc	r21, r21
    276e:	59 f0       	breq	.+22     	; 0x2786 <__fp_splitA+0x10>
    2770:	5f 3f       	cpi	r21, 0xFF	; 255
    2772:	71 f0       	breq	.+28     	; 0x2790 <__fp_splitA+0x1a>
    2774:	47 95       	ror	r20

00002776 <__fp_splitA>:
    2776:	88 0f       	add	r24, r24
    2778:	97 fb       	bst	r25, 7
    277a:	99 1f       	adc	r25, r25
    277c:	61 f0       	breq	.+24     	; 0x2796 <__fp_splitA+0x20>
    277e:	9f 3f       	cpi	r25, 0xFF	; 255
    2780:	79 f0       	breq	.+30     	; 0x27a0 <__fp_splitA+0x2a>
    2782:	87 95       	ror	r24
    2784:	08 95       	ret
    2786:	12 16       	cp	r1, r18
    2788:	13 06       	cpc	r1, r19
    278a:	14 06       	cpc	r1, r20
    278c:	55 1f       	adc	r21, r21
    278e:	f2 cf       	rjmp	.-28     	; 0x2774 <__fp_split3+0xe>
    2790:	46 95       	lsr	r20
    2792:	f1 df       	rcall	.-30     	; 0x2776 <__fp_splitA>
    2794:	08 c0       	rjmp	.+16     	; 0x27a6 <__fp_splitA+0x30>
    2796:	16 16       	cp	r1, r22
    2798:	17 06       	cpc	r1, r23
    279a:	18 06       	cpc	r1, r24
    279c:	99 1f       	adc	r25, r25
    279e:	f1 cf       	rjmp	.-30     	; 0x2782 <__fp_splitA+0xc>
    27a0:	86 95       	lsr	r24
    27a2:	71 05       	cpc	r23, r1
    27a4:	61 05       	cpc	r22, r1
    27a6:	08 94       	sec
    27a8:	08 95       	ret

000027aa <__fp_zero>:
    27aa:	e8 94       	clt

000027ac <__fp_szero>:
    27ac:	bb 27       	eor	r27, r27
    27ae:	66 27       	eor	r22, r22
    27b0:	77 27       	eor	r23, r23
    27b2:	cb 01       	movw	r24, r22
    27b4:	97 f9       	bld	r25, 7
    27b6:	08 95       	ret

000027b8 <__gesf2>:
    27b8:	0e 94 67 13 	call	0x26ce	; 0x26ce <__fp_cmp>
    27bc:	08 f4       	brcc	.+2      	; 0x27c0 <__gesf2+0x8>
    27be:	8f ef       	ldi	r24, 0xFF	; 255
    27c0:	08 95       	ret

000027c2 <__mulsf3>:
    27c2:	0e 94 f4 13 	call	0x27e8	; 0x27e8 <__mulsf3x>
    27c6:	0c 94 a2 13 	jmp	0x2744	; 0x2744 <__fp_round>
    27ca:	0e 94 94 13 	call	0x2728	; 0x2728 <__fp_pscA>
    27ce:	38 f0       	brcs	.+14     	; 0x27de <__mulsf3+0x1c>
    27d0:	0e 94 9b 13 	call	0x2736	; 0x2736 <__fp_pscB>
    27d4:	20 f0       	brcs	.+8      	; 0x27de <__mulsf3+0x1c>
    27d6:	95 23       	and	r25, r21
    27d8:	11 f0       	breq	.+4      	; 0x27de <__mulsf3+0x1c>
    27da:	0c 94 8b 13 	jmp	0x2716	; 0x2716 <__fp_inf>
    27de:	0c 94 91 13 	jmp	0x2722	; 0x2722 <__fp_nan>
    27e2:	11 24       	eor	r1, r1
    27e4:	0c 94 d6 13 	jmp	0x27ac	; 0x27ac <__fp_szero>

000027e8 <__mulsf3x>:
    27e8:	0e 94 b3 13 	call	0x2766	; 0x2766 <__fp_split3>
    27ec:	70 f3       	brcs	.-36     	; 0x27ca <__mulsf3+0x8>

000027ee <__mulsf3_pse>:
    27ee:	95 9f       	mul	r25, r21
    27f0:	c1 f3       	breq	.-16     	; 0x27e2 <__mulsf3+0x20>
    27f2:	95 0f       	add	r25, r21
    27f4:	50 e0       	ldi	r21, 0x00	; 0
    27f6:	55 1f       	adc	r21, r21
    27f8:	62 9f       	mul	r22, r18
    27fa:	f0 01       	movw	r30, r0
    27fc:	72 9f       	mul	r23, r18
    27fe:	bb 27       	eor	r27, r27
    2800:	f0 0d       	add	r31, r0
    2802:	b1 1d       	adc	r27, r1
    2804:	63 9f       	mul	r22, r19
    2806:	aa 27       	eor	r26, r26
    2808:	f0 0d       	add	r31, r0
    280a:	b1 1d       	adc	r27, r1
    280c:	aa 1f       	adc	r26, r26
    280e:	64 9f       	mul	r22, r20
    2810:	66 27       	eor	r22, r22
    2812:	b0 0d       	add	r27, r0
    2814:	a1 1d       	adc	r26, r1
    2816:	66 1f       	adc	r22, r22
    2818:	82 9f       	mul	r24, r18
    281a:	22 27       	eor	r18, r18
    281c:	b0 0d       	add	r27, r0
    281e:	a1 1d       	adc	r26, r1
    2820:	62 1f       	adc	r22, r18
    2822:	73 9f       	mul	r23, r19
    2824:	b0 0d       	add	r27, r0
    2826:	a1 1d       	adc	r26, r1
    2828:	62 1f       	adc	r22, r18
    282a:	83 9f       	mul	r24, r19
    282c:	a0 0d       	add	r26, r0
    282e:	61 1d       	adc	r22, r1
    2830:	22 1f       	adc	r18, r18
    2832:	74 9f       	mul	r23, r20
    2834:	33 27       	eor	r19, r19
    2836:	a0 0d       	add	r26, r0
    2838:	61 1d       	adc	r22, r1
    283a:	23 1f       	adc	r18, r19
    283c:	84 9f       	mul	r24, r20
    283e:	60 0d       	add	r22, r0
    2840:	21 1d       	adc	r18, r1
    2842:	82 2f       	mov	r24, r18
    2844:	76 2f       	mov	r23, r22
    2846:	6a 2f       	mov	r22, r26
    2848:	11 24       	eor	r1, r1
    284a:	9f 57       	subi	r25, 0x7F	; 127
    284c:	50 40       	sbci	r21, 0x00	; 0
    284e:	9a f0       	brmi	.+38     	; 0x2876 <__mulsf3_pse+0x88>
    2850:	f1 f0       	breq	.+60     	; 0x288e <__mulsf3_pse+0xa0>
    2852:	88 23       	and	r24, r24
    2854:	4a f0       	brmi	.+18     	; 0x2868 <__mulsf3_pse+0x7a>
    2856:	ee 0f       	add	r30, r30
    2858:	ff 1f       	adc	r31, r31
    285a:	bb 1f       	adc	r27, r27
    285c:	66 1f       	adc	r22, r22
    285e:	77 1f       	adc	r23, r23
    2860:	88 1f       	adc	r24, r24
    2862:	91 50       	subi	r25, 0x01	; 1
    2864:	50 40       	sbci	r21, 0x00	; 0
    2866:	a9 f7       	brne	.-22     	; 0x2852 <__mulsf3_pse+0x64>
    2868:	9e 3f       	cpi	r25, 0xFE	; 254
    286a:	51 05       	cpc	r21, r1
    286c:	80 f0       	brcs	.+32     	; 0x288e <__mulsf3_pse+0xa0>
    286e:	0c 94 8b 13 	jmp	0x2716	; 0x2716 <__fp_inf>
    2872:	0c 94 d6 13 	jmp	0x27ac	; 0x27ac <__fp_szero>
    2876:	5f 3f       	cpi	r21, 0xFF	; 255
    2878:	e4 f3       	brlt	.-8      	; 0x2872 <__mulsf3_pse+0x84>
    287a:	98 3e       	cpi	r25, 0xE8	; 232
    287c:	d4 f3       	brlt	.-12     	; 0x2872 <__mulsf3_pse+0x84>
    287e:	86 95       	lsr	r24
    2880:	77 95       	ror	r23
    2882:	67 95       	ror	r22
    2884:	b7 95       	ror	r27
    2886:	f7 95       	ror	r31
    2888:	e7 95       	ror	r30
    288a:	9f 5f       	subi	r25, 0xFF	; 255
    288c:	c1 f7       	brne	.-16     	; 0x287e <__mulsf3_pse+0x90>
    288e:	fe 2b       	or	r31, r30
    2890:	88 0f       	add	r24, r24
    2892:	91 1d       	adc	r25, r1
    2894:	96 95       	lsr	r25
    2896:	87 95       	ror	r24
    2898:	97 f9       	bld	r25, 7
    289a:	08 95       	ret

0000289c <pow>:
    289c:	fa 01       	movw	r30, r20
    289e:	ee 0f       	add	r30, r30
    28a0:	ff 1f       	adc	r31, r31
    28a2:	30 96       	adiw	r30, 0x00	; 0
    28a4:	21 05       	cpc	r18, r1
    28a6:	31 05       	cpc	r19, r1
    28a8:	a1 f1       	breq	.+104    	; 0x2912 <pow+0x76>
    28aa:	61 15       	cp	r22, r1
    28ac:	71 05       	cpc	r23, r1
    28ae:	61 f4       	brne	.+24     	; 0x28c8 <pow+0x2c>
    28b0:	80 38       	cpi	r24, 0x80	; 128
    28b2:	bf e3       	ldi	r27, 0x3F	; 63
    28b4:	9b 07       	cpc	r25, r27
    28b6:	49 f1       	breq	.+82     	; 0x290a <pow+0x6e>
    28b8:	68 94       	set
    28ba:	90 38       	cpi	r25, 0x80	; 128
    28bc:	81 05       	cpc	r24, r1
    28be:	61 f0       	breq	.+24     	; 0x28d8 <pow+0x3c>
    28c0:	80 38       	cpi	r24, 0x80	; 128
    28c2:	bf ef       	ldi	r27, 0xFF	; 255
    28c4:	9b 07       	cpc	r25, r27
    28c6:	41 f0       	breq	.+16     	; 0x28d8 <pow+0x3c>
    28c8:	99 23       	and	r25, r25
    28ca:	4a f5       	brpl	.+82     	; 0x291e <pow+0x82>
    28cc:	ff 3f       	cpi	r31, 0xFF	; 255
    28ce:	e1 05       	cpc	r30, r1
    28d0:	31 05       	cpc	r19, r1
    28d2:	21 05       	cpc	r18, r1
    28d4:	19 f1       	breq	.+70     	; 0x291c <pow+0x80>
    28d6:	e8 94       	clt
    28d8:	08 94       	sec
    28da:	e7 95       	ror	r30
    28dc:	d9 01       	movw	r26, r18
    28de:	aa 23       	and	r26, r26
    28e0:	29 f4       	brne	.+10     	; 0x28ec <pow+0x50>
    28e2:	ab 2f       	mov	r26, r27
    28e4:	be 2f       	mov	r27, r30
    28e6:	f8 5f       	subi	r31, 0xF8	; 248
    28e8:	d0 f3       	brcs	.-12     	; 0x28de <pow+0x42>
    28ea:	10 c0       	rjmp	.+32     	; 0x290c <pow+0x70>
    28ec:	ff 5f       	subi	r31, 0xFF	; 255
    28ee:	70 f4       	brcc	.+28     	; 0x290c <pow+0x70>
    28f0:	a6 95       	lsr	r26
    28f2:	e0 f7       	brcc	.-8      	; 0x28ec <pow+0x50>
    28f4:	f7 39       	cpi	r31, 0x97	; 151
    28f6:	50 f0       	brcs	.+20     	; 0x290c <pow+0x70>
    28f8:	19 f0       	breq	.+6      	; 0x2900 <pow+0x64>
    28fa:	ff 3a       	cpi	r31, 0xAF	; 175
    28fc:	38 f4       	brcc	.+14     	; 0x290c <pow+0x70>
    28fe:	9f 77       	andi	r25, 0x7F	; 127
    2900:	9f 93       	push	r25
    2902:	0d d0       	rcall	.+26     	; 0x291e <pow+0x82>
    2904:	0f 90       	pop	r0
    2906:	07 fc       	sbrc	r0, 7
    2908:	90 58       	subi	r25, 0x80	; 128
    290a:	08 95       	ret
    290c:	46 f0       	brts	.+16     	; 0x291e <pow+0x82>
    290e:	0c 94 91 13 	jmp	0x2722	; 0x2722 <__fp_nan>
    2912:	60 e0       	ldi	r22, 0x00	; 0
    2914:	70 e0       	ldi	r23, 0x00	; 0
    2916:	80 e8       	ldi	r24, 0x80	; 128
    2918:	9f e3       	ldi	r25, 0x3F	; 63
    291a:	08 95       	ret
    291c:	4f e7       	ldi	r20, 0x7F	; 127
    291e:	9f 77       	andi	r25, 0x7F	; 127
    2920:	5f 93       	push	r21
    2922:	4f 93       	push	r20
    2924:	3f 93       	push	r19
    2926:	2f 93       	push	r18
    2928:	0e 94 49 15 	call	0x2a92	; 0x2a92 <log>
    292c:	2f 91       	pop	r18
    292e:	3f 91       	pop	r19
    2930:	4f 91       	pop	r20
    2932:	5f 91       	pop	r21
    2934:	0e 94 e1 13 	call	0x27c2	; 0x27c2 <__mulsf3>
    2938:	0c 94 a6 14 	jmp	0x294c	; 0x294c <exp>
    293c:	29 f4       	brne	.+10     	; 0x2948 <pow+0xac>
    293e:	16 f0       	brts	.+4      	; 0x2944 <pow+0xa8>
    2940:	0c 94 8b 13 	jmp	0x2716	; 0x2716 <__fp_inf>
    2944:	0c 94 d5 13 	jmp	0x27aa	; 0x27aa <__fp_zero>
    2948:	0c 94 91 13 	jmp	0x2722	; 0x2722 <__fp_nan>

0000294c <exp>:
    294c:	0e 94 bb 13 	call	0x2776	; 0x2776 <__fp_splitA>
    2950:	a8 f3       	brcs	.-22     	; 0x293c <pow+0xa0>
    2952:	96 38       	cpi	r25, 0x86	; 134
    2954:	a0 f7       	brcc	.-24     	; 0x293e <pow+0xa2>
    2956:	07 f8       	bld	r0, 7
    2958:	0f 92       	push	r0
    295a:	e8 94       	clt
    295c:	2b e3       	ldi	r18, 0x3B	; 59
    295e:	3a ea       	ldi	r19, 0xAA	; 170
    2960:	48 eb       	ldi	r20, 0xB8	; 184
    2962:	5f e7       	ldi	r21, 0x7F	; 127
    2964:	0e 94 f7 13 	call	0x27ee	; 0x27ee <__mulsf3_pse>
    2968:	0f 92       	push	r0
    296a:	0f 92       	push	r0
    296c:	0f 92       	push	r0
    296e:	4d b7       	in	r20, 0x3d	; 61
    2970:	5e b7       	in	r21, 0x3e	; 62
    2972:	0f 92       	push	r0
    2974:	0e 94 91 15 	call	0x2b22	; 0x2b22 <modf>
    2978:	e8 e9       	ldi	r30, 0x98	; 152
    297a:	f0 e0       	ldi	r31, 0x00	; 0
    297c:	0e 94 d8 14 	call	0x29b0	; 0x29b0 <__fp_powser>
    2980:	4f 91       	pop	r20
    2982:	5f 91       	pop	r21
    2984:	ef 91       	pop	r30
    2986:	ff 91       	pop	r31
    2988:	e5 95       	asr	r30
    298a:	ee 1f       	adc	r30, r30
    298c:	ff 1f       	adc	r31, r31
    298e:	49 f0       	breq	.+18     	; 0x29a2 <exp+0x56>
    2990:	fe 57       	subi	r31, 0x7E	; 126
    2992:	e0 68       	ori	r30, 0x80	; 128
    2994:	44 27       	eor	r20, r20
    2996:	ee 0f       	add	r30, r30
    2998:	44 1f       	adc	r20, r20
    299a:	fa 95       	dec	r31
    299c:	e1 f7       	brne	.-8      	; 0x2996 <exp+0x4a>
    299e:	41 95       	neg	r20
    29a0:	55 0b       	sbc	r21, r21
    29a2:	0e 94 0b 15 	call	0x2a16	; 0x2a16 <ldexp>
    29a6:	0f 90       	pop	r0
    29a8:	07 fe       	sbrs	r0, 7
    29aa:	0c 94 ff 14 	jmp	0x29fe	; 0x29fe <inverse>
    29ae:	08 95       	ret

000029b0 <__fp_powser>:
    29b0:	df 93       	push	r29
    29b2:	cf 93       	push	r28
    29b4:	1f 93       	push	r17
    29b6:	0f 93       	push	r16
    29b8:	ff 92       	push	r15
    29ba:	ef 92       	push	r14
    29bc:	df 92       	push	r13
    29be:	7b 01       	movw	r14, r22
    29c0:	8c 01       	movw	r16, r24
    29c2:	68 94       	set
    29c4:	06 c0       	rjmp	.+12     	; 0x29d2 <__fp_powser+0x22>
    29c6:	da 2e       	mov	r13, r26
    29c8:	ef 01       	movw	r28, r30
    29ca:	0e 94 f4 13 	call	0x27e8	; 0x27e8 <__mulsf3x>
    29ce:	fe 01       	movw	r30, r28
    29d0:	e8 94       	clt
    29d2:	a5 91       	lpm	r26, Z+
    29d4:	25 91       	lpm	r18, Z+
    29d6:	35 91       	lpm	r19, Z+
    29d8:	45 91       	lpm	r20, Z+
    29da:	55 91       	lpm	r21, Z+
    29dc:	a6 f3       	brts	.-24     	; 0x29c6 <__fp_powser+0x16>
    29de:	ef 01       	movw	r28, r30
    29e0:	0e 94 28 12 	call	0x2450	; 0x2450 <__addsf3x>
    29e4:	fe 01       	movw	r30, r28
    29e6:	97 01       	movw	r18, r14
    29e8:	a8 01       	movw	r20, r16
    29ea:	da 94       	dec	r13
    29ec:	69 f7       	brne	.-38     	; 0x29c8 <__fp_powser+0x18>
    29ee:	df 90       	pop	r13
    29f0:	ef 90       	pop	r14
    29f2:	ff 90       	pop	r15
    29f4:	0f 91       	pop	r16
    29f6:	1f 91       	pop	r17
    29f8:	cf 91       	pop	r28
    29fa:	df 91       	pop	r29
    29fc:	08 95       	ret

000029fe <inverse>:
    29fe:	9b 01       	movw	r18, r22
    2a00:	ac 01       	movw	r20, r24
    2a02:	60 e0       	ldi	r22, 0x00	; 0
    2a04:	70 e0       	ldi	r23, 0x00	; 0
    2a06:	80 e8       	ldi	r24, 0x80	; 128
    2a08:	9f e3       	ldi	r25, 0x3F	; 63
    2a0a:	0c 94 82 12 	jmp	0x2504	; 0x2504 <__divsf3>
    2a0e:	0c 94 8b 13 	jmp	0x2716	; 0x2716 <__fp_inf>
    2a12:	0c 94 c5 15 	jmp	0x2b8a	; 0x2b8a <__fp_mpack>

00002a16 <ldexp>:
    2a16:	0e 94 bb 13 	call	0x2776	; 0x2776 <__fp_splitA>
    2a1a:	d8 f3       	brcs	.-10     	; 0x2a12 <inverse+0x14>
    2a1c:	99 23       	and	r25, r25
    2a1e:	c9 f3       	breq	.-14     	; 0x2a12 <inverse+0x14>
    2a20:	94 0f       	add	r25, r20
    2a22:	51 1d       	adc	r21, r1
    2a24:	a3 f3       	brvs	.-24     	; 0x2a0e <inverse+0x10>
    2a26:	91 50       	subi	r25, 0x01	; 1
    2a28:	50 40       	sbci	r21, 0x00	; 0
    2a2a:	94 f0       	brlt	.+36     	; 0x2a50 <ldexp+0x3a>
    2a2c:	59 f0       	breq	.+22     	; 0x2a44 <ldexp+0x2e>
    2a2e:	88 23       	and	r24, r24
    2a30:	32 f0       	brmi	.+12     	; 0x2a3e <ldexp+0x28>
    2a32:	66 0f       	add	r22, r22
    2a34:	77 1f       	adc	r23, r23
    2a36:	88 1f       	adc	r24, r24
    2a38:	91 50       	subi	r25, 0x01	; 1
    2a3a:	50 40       	sbci	r21, 0x00	; 0
    2a3c:	c1 f7       	brne	.-16     	; 0x2a2e <ldexp+0x18>
    2a3e:	9e 3f       	cpi	r25, 0xFE	; 254
    2a40:	51 05       	cpc	r21, r1
    2a42:	2c f7       	brge	.-54     	; 0x2a0e <inverse+0x10>
    2a44:	88 0f       	add	r24, r24
    2a46:	91 1d       	adc	r25, r1
    2a48:	96 95       	lsr	r25
    2a4a:	87 95       	ror	r24
    2a4c:	97 f9       	bld	r25, 7
    2a4e:	08 95       	ret
    2a50:	5f 3f       	cpi	r21, 0xFF	; 255
    2a52:	ac f0       	brlt	.+42     	; 0x2a7e <ldexp+0x68>
    2a54:	98 3e       	cpi	r25, 0xE8	; 232
    2a56:	9c f0       	brlt	.+38     	; 0x2a7e <ldexp+0x68>
    2a58:	bb 27       	eor	r27, r27
    2a5a:	86 95       	lsr	r24
    2a5c:	77 95       	ror	r23
    2a5e:	67 95       	ror	r22
    2a60:	b7 95       	ror	r27
    2a62:	08 f4       	brcc	.+2      	; 0x2a66 <ldexp+0x50>
    2a64:	b1 60       	ori	r27, 0x01	; 1
    2a66:	93 95       	inc	r25
    2a68:	c1 f7       	brne	.-16     	; 0x2a5a <ldexp+0x44>
    2a6a:	bb 0f       	add	r27, r27
    2a6c:	58 f7       	brcc	.-42     	; 0x2a44 <ldexp+0x2e>
    2a6e:	11 f4       	brne	.+4      	; 0x2a74 <ldexp+0x5e>
    2a70:	60 ff       	sbrs	r22, 0
    2a72:	e8 cf       	rjmp	.-48     	; 0x2a44 <ldexp+0x2e>
    2a74:	6f 5f       	subi	r22, 0xFF	; 255
    2a76:	7f 4f       	sbci	r23, 0xFF	; 255
    2a78:	8f 4f       	sbci	r24, 0xFF	; 255
    2a7a:	9f 4f       	sbci	r25, 0xFF	; 255
    2a7c:	e3 cf       	rjmp	.-58     	; 0x2a44 <ldexp+0x2e>
    2a7e:	0c 94 d6 13 	jmp	0x27ac	; 0x27ac <__fp_szero>
    2a82:	16 f0       	brts	.+4      	; 0x2a88 <ldexp+0x72>
    2a84:	0c 94 c5 15 	jmp	0x2b8a	; 0x2b8a <__fp_mpack>
    2a88:	0c 94 91 13 	jmp	0x2722	; 0x2722 <__fp_nan>
    2a8c:	68 94       	set
    2a8e:	0c 94 8b 13 	jmp	0x2716	; 0x2716 <__fp_inf>

00002a92 <log>:
    2a92:	0e 94 bb 13 	call	0x2776	; 0x2776 <__fp_splitA>
    2a96:	a8 f3       	brcs	.-22     	; 0x2a82 <ldexp+0x6c>
    2a98:	99 23       	and	r25, r25
    2a9a:	c1 f3       	breq	.-16     	; 0x2a8c <ldexp+0x76>
    2a9c:	ae f3       	brts	.-22     	; 0x2a88 <ldexp+0x72>
    2a9e:	df 93       	push	r29
    2aa0:	cf 93       	push	r28
    2aa2:	1f 93       	push	r17
    2aa4:	0f 93       	push	r16
    2aa6:	ff 92       	push	r15
    2aa8:	c9 2f       	mov	r28, r25
    2aaa:	dd 27       	eor	r29, r29
    2aac:	88 23       	and	r24, r24
    2aae:	2a f0       	brmi	.+10     	; 0x2aba <log+0x28>
    2ab0:	21 97       	sbiw	r28, 0x01	; 1
    2ab2:	66 0f       	add	r22, r22
    2ab4:	77 1f       	adc	r23, r23
    2ab6:	88 1f       	adc	r24, r24
    2ab8:	da f7       	brpl	.-10     	; 0x2ab0 <log+0x1e>
    2aba:	20 e0       	ldi	r18, 0x00	; 0
    2abc:	30 e0       	ldi	r19, 0x00	; 0
    2abe:	40 e8       	ldi	r20, 0x80	; 128
    2ac0:	5f eb       	ldi	r21, 0xBF	; 191
    2ac2:	9f e3       	ldi	r25, 0x3F	; 63
    2ac4:	88 39       	cpi	r24, 0x98	; 152
    2ac6:	20 f0       	brcs	.+8      	; 0x2ad0 <log+0x3e>
    2ac8:	80 3e       	cpi	r24, 0xE0	; 224
    2aca:	38 f0       	brcs	.+14     	; 0x2ada <log+0x48>
    2acc:	21 96       	adiw	r28, 0x01	; 1
    2ace:	8f 77       	andi	r24, 0x7F	; 127
    2ad0:	0e 94 11 12 	call	0x2422	; 0x2422 <__addsf3>
    2ad4:	e0 ec       	ldi	r30, 0xC0	; 192
    2ad6:	f0 e0       	ldi	r31, 0x00	; 0
    2ad8:	04 c0       	rjmp	.+8      	; 0x2ae2 <log+0x50>
    2ada:	0e 94 11 12 	call	0x2422	; 0x2422 <__addsf3>
    2ade:	ed ee       	ldi	r30, 0xED	; 237
    2ae0:	f0 e0       	ldi	r31, 0x00	; 0
    2ae2:	0e 94 d8 14 	call	0x29b0	; 0x29b0 <__fp_powser>
    2ae6:	8b 01       	movw	r16, r22
    2ae8:	be 01       	movw	r22, r28
    2aea:	ec 01       	movw	r28, r24
    2aec:	fb 2e       	mov	r15, r27
    2aee:	6f 57       	subi	r22, 0x7F	; 127
    2af0:	71 09       	sbc	r23, r1
    2af2:	75 95       	asr	r23
    2af4:	77 1f       	adc	r23, r23
    2af6:	88 0b       	sbc	r24, r24
    2af8:	99 0b       	sbc	r25, r25
    2afa:	0e 94 2c 13 	call	0x2658	; 0x2658 <__floatsisf>
    2afe:	28 e1       	ldi	r18, 0x18	; 24
    2b00:	32 e7       	ldi	r19, 0x72	; 114
    2b02:	41 e3       	ldi	r20, 0x31	; 49
    2b04:	5f e3       	ldi	r21, 0x3F	; 63
    2b06:	0e 94 f4 13 	call	0x27e8	; 0x27e8 <__mulsf3x>
    2b0a:	af 2d       	mov	r26, r15
    2b0c:	98 01       	movw	r18, r16
    2b0e:	ae 01       	movw	r20, r28
    2b10:	ff 90       	pop	r15
    2b12:	0f 91       	pop	r16
    2b14:	1f 91       	pop	r17
    2b16:	cf 91       	pop	r28
    2b18:	df 91       	pop	r29
    2b1a:	0e 94 28 12 	call	0x2450	; 0x2450 <__addsf3x>
    2b1e:	0c 94 a2 13 	jmp	0x2744	; 0x2744 <__fp_round>

00002b22 <modf>:
    2b22:	fa 01       	movw	r30, r20
    2b24:	dc 01       	movw	r26, r24
    2b26:	aa 0f       	add	r26, r26
    2b28:	bb 1f       	adc	r27, r27
    2b2a:	9b 01       	movw	r18, r22
    2b2c:	ac 01       	movw	r20, r24
    2b2e:	bf 57       	subi	r27, 0x7F	; 127
    2b30:	28 f4       	brcc	.+10     	; 0x2b3c <modf+0x1a>
    2b32:	22 27       	eor	r18, r18
    2b34:	33 27       	eor	r19, r19
    2b36:	44 27       	eor	r20, r20
    2b38:	50 78       	andi	r21, 0x80	; 128
    2b3a:	20 c0       	rjmp	.+64     	; 0x2b7c <modf+0x5a>
    2b3c:	b7 51       	subi	r27, 0x17	; 23
    2b3e:	90 f4       	brcc	.+36     	; 0x2b64 <modf+0x42>
    2b40:	ab 2f       	mov	r26, r27
    2b42:	00 24       	eor	r0, r0
    2b44:	46 95       	lsr	r20
    2b46:	37 95       	ror	r19
    2b48:	27 95       	ror	r18
    2b4a:	01 1c       	adc	r0, r1
    2b4c:	a3 95       	inc	r26
    2b4e:	d2 f3       	brmi	.-12     	; 0x2b44 <modf+0x22>
    2b50:	00 20       	and	r0, r0
    2b52:	71 f0       	breq	.+28     	; 0x2b70 <modf+0x4e>
    2b54:	22 0f       	add	r18, r18
    2b56:	33 1f       	adc	r19, r19
    2b58:	44 1f       	adc	r20, r20
    2b5a:	b3 95       	inc	r27
    2b5c:	da f3       	brmi	.-10     	; 0x2b54 <modf+0x32>
    2b5e:	0e d0       	rcall	.+28     	; 0x2b7c <modf+0x5a>
    2b60:	0c 94 10 12 	jmp	0x2420	; 0x2420 <__subsf3>
    2b64:	61 30       	cpi	r22, 0x01	; 1
    2b66:	71 05       	cpc	r23, r1
    2b68:	a0 e8       	ldi	r26, 0x80	; 128
    2b6a:	8a 07       	cpc	r24, r26
    2b6c:	b9 46       	sbci	r27, 0x69	; 105
    2b6e:	30 f4       	brcc	.+12     	; 0x2b7c <modf+0x5a>
    2b70:	9b 01       	movw	r18, r22
    2b72:	ac 01       	movw	r20, r24
    2b74:	66 27       	eor	r22, r22
    2b76:	77 27       	eor	r23, r23
    2b78:	88 27       	eor	r24, r24
    2b7a:	90 78       	andi	r25, 0x80	; 128
    2b7c:	30 96       	adiw	r30, 0x00	; 0
    2b7e:	21 f0       	breq	.+8      	; 0x2b88 <modf+0x66>
    2b80:	20 83       	st	Z, r18
    2b82:	31 83       	std	Z+1, r19	; 0x01
    2b84:	42 83       	std	Z+2, r20	; 0x02
    2b86:	53 83       	std	Z+3, r21	; 0x03
    2b88:	08 95       	ret

00002b8a <__fp_mpack>:
    2b8a:	9f 3f       	cpi	r25, 0xFF	; 255
    2b8c:	31 f0       	breq	.+12     	; 0x2b9a <__fp_mpack_finite+0xc>

00002b8e <__fp_mpack_finite>:
    2b8e:	91 50       	subi	r25, 0x01	; 1
    2b90:	20 f4       	brcc	.+8      	; 0x2b9a <__fp_mpack_finite+0xc>
    2b92:	87 95       	ror	r24
    2b94:	77 95       	ror	r23
    2b96:	67 95       	ror	r22
    2b98:	b7 95       	ror	r27
    2b9a:	88 0f       	add	r24, r24
    2b9c:	91 1d       	adc	r25, r1
    2b9e:	96 95       	lsr	r25
    2ba0:	87 95       	ror	r24
    2ba2:	97 f9       	bld	r25, 7
    2ba4:	08 95       	ret

00002ba6 <__itoa_ncheck>:
    2ba6:	bb 27       	eor	r27, r27
    2ba8:	4a 30       	cpi	r20, 0x0A	; 10
    2baa:	31 f4       	brne	.+12     	; 0x2bb8 <__itoa_ncheck+0x12>
    2bac:	99 23       	and	r25, r25
    2bae:	22 f4       	brpl	.+8      	; 0x2bb8 <__itoa_ncheck+0x12>
    2bb0:	bd e2       	ldi	r27, 0x2D	; 45
    2bb2:	90 95       	com	r25
    2bb4:	81 95       	neg	r24
    2bb6:	9f 4f       	sbci	r25, 0xFF	; 255
    2bb8:	0c 94 df 15 	jmp	0x2bbe	; 0x2bbe <__utoa_common>

00002bbc <__utoa_ncheck>:
    2bbc:	bb 27       	eor	r27, r27

00002bbe <__utoa_common>:
    2bbe:	fb 01       	movw	r30, r22
    2bc0:	55 27       	eor	r21, r21
    2bc2:	aa 27       	eor	r26, r26
    2bc4:	88 0f       	add	r24, r24
    2bc6:	99 1f       	adc	r25, r25
    2bc8:	aa 1f       	adc	r26, r26
    2bca:	a4 17       	cp	r26, r20
    2bcc:	10 f0       	brcs	.+4      	; 0x2bd2 <__utoa_common+0x14>
    2bce:	a4 1b       	sub	r26, r20
    2bd0:	83 95       	inc	r24
    2bd2:	50 51       	subi	r21, 0x10	; 16
    2bd4:	b9 f7       	brne	.-18     	; 0x2bc4 <__utoa_common+0x6>
    2bd6:	a0 5d       	subi	r26, 0xD0	; 208
    2bd8:	aa 33       	cpi	r26, 0x3A	; 58
    2bda:	08 f0       	brcs	.+2      	; 0x2bde <__utoa_common+0x20>
    2bdc:	a9 5d       	subi	r26, 0xD9	; 217
    2bde:	a1 93       	st	Z+, r26
    2be0:	00 97       	sbiw	r24, 0x00	; 0
    2be2:	79 f7       	brne	.-34     	; 0x2bc2 <__utoa_common+0x4>
    2be4:	b1 11       	cpse	r27, r1
    2be6:	b1 93       	st	Z+, r27
    2be8:	11 92       	st	Z+, r1
    2bea:	cb 01       	movw	r24, r22
    2bec:	0c 94 f8 15 	jmp	0x2bf0	; 0x2bf0 <strrev>

00002bf0 <strrev>:
    2bf0:	dc 01       	movw	r26, r24
    2bf2:	fc 01       	movw	r30, r24
    2bf4:	67 2f       	mov	r22, r23
    2bf6:	71 91       	ld	r23, Z+
    2bf8:	77 23       	and	r23, r23
    2bfa:	e1 f7       	brne	.-8      	; 0x2bf4 <strrev+0x4>
    2bfc:	32 97       	sbiw	r30, 0x02	; 2
    2bfe:	04 c0       	rjmp	.+8      	; 0x2c08 <strrev+0x18>
    2c00:	7c 91       	ld	r23, X
    2c02:	6d 93       	st	X+, r22
    2c04:	70 83       	st	Z, r23
    2c06:	62 91       	ld	r22, -Z
    2c08:	ae 17       	cp	r26, r30
    2c0a:	bf 07       	cpc	r27, r31
    2c0c:	c8 f3       	brcs	.-14     	; 0x2c00 <strrev+0x10>
    2c0e:	08 95       	ret

00002c10 <_exit>:
    2c10:	f8 94       	cli

00002c12 <__stop_program>:
    2c12:	ff cf       	rjmp	.-2      	; 0x2c12 <__stop_program>
