
LED_controller.elf:     file format elf32-avr

Sections:
Idx Name          Size      VMA       LMA       File off  Algn
  0 .text         00002952  00000000  00000000  00000094  2**1
                  CONTENTS, ALLOC, LOAD, READONLY, CODE
  1 .data         00000594  00800060  00002952  000029e6  2**0
                  CONTENTS, ALLOC, LOAD, DATA
  2 .bss          00000026  008005f4  008005f4  00002f7a  2**0
                  ALLOC
  3 .comment      00000030  00000000  00000000  00002f7a  2**0
                  CONTENTS, READONLY
  4 .note.gnu.avr.deviceinfo 0000003c  00000000  00000000  00002fac  2**2
                  CONTENTS, READONLY
  5 .debug_info   000004e6  00000000  00000000  00002fe8  2**0
                  CONTENTS, READONLY, DEBUGGING
  6 .debug_abbrev 000004a3  00000000  00000000  000034ce  2**0
                  CONTENTS, READONLY, DEBUGGING
  7 .debug_line   00000116  00000000  00000000  00003971  2**0
                  CONTENTS, READONLY, DEBUGGING
  8 .debug_str    00000196  00000000  00000000  00003a87  2**0
                  CONTENTS, READONLY, DEBUGGING

Disassembly of section .text:

00000000 <__vectors>:
       0:	0c 94 8e 00 	jmp	0x11c	; 0x11c <__ctors_end>
       4:	0c 94 81 05 	jmp	0xb02	; 0xb02 <__vector_1>
       8:	0c 94 b6 00 	jmp	0x16c	; 0x16c <__bad_interrupt>
       c:	0c 94 b6 00 	jmp	0x16c	; 0x16c <__bad_interrupt>
      10:	0c 94 b6 00 	jmp	0x16c	; 0x16c <__bad_interrupt>
      14:	0c 94 b6 00 	jmp	0x16c	; 0x16c <__bad_interrupt>
      18:	0c 94 b6 00 	jmp	0x16c	; 0x16c <__bad_interrupt>
      1c:	0c 94 cb 05 	jmp	0xb96	; 0xb96 <__vector_7>
      20:	0c 94 b6 00 	jmp	0x16c	; 0x16c <__bad_interrupt>
      24:	0c 94 b6 00 	jmp	0x16c	; 0x16c <__bad_interrupt>
      28:	0c 94 b6 00 	jmp	0x16c	; 0x16c <__bad_interrupt>
      2c:	0c 94 b6 00 	jmp	0x16c	; 0x16c <__bad_interrupt>
      30:	0c 94 b6 00 	jmp	0x16c	; 0x16c <__bad_interrupt>
      34:	0c 94 b6 00 	jmp	0x16c	; 0x16c <__bad_interrupt>
      38:	0c 94 b6 00 	jmp	0x16c	; 0x16c <__bad_interrupt>
      3c:	0c 94 b6 00 	jmp	0x16c	; 0x16c <__bad_interrupt>
      40:	0c 94 b6 00 	jmp	0x16c	; 0x16c <__bad_interrupt>
      44:	0c 94 b6 00 	jmp	0x16c	; 0x16c <__bad_interrupt>
      48:	0c 94 b6 00 	jmp	0x16c	; 0x16c <__bad_interrupt>
      4c:	0c 94 b6 00 	jmp	0x16c	; 0x16c <__bad_interrupt>
      50:	0c 94 b6 00 	jmp	0x16c	; 0x16c <__bad_interrupt>
      54:	79 01       	movw	r14, r18
      56:	87 01       	movw	r16, r14
      58:	95 01       	movw	r18, r10
      5a:	a3 01       	movw	r20, r6
      5c:	e0 01       	movw	r28, r0
      5e:	0b 02       	muls	r16, r27
      60:	48 02       	muls	r20, r24
      62:	73 02       	muls	r23, r19
      64:	b0 02       	muls	r27, r16
      66:	db 02       	muls	r29, r27
      68:	f0 02       	muls	r31, r16
      6a:	10 03       	mulsu	r17, r16
      6c:	1c 03       	fmul	r17, r20
      6e:	28 03       	fmul	r18, r16
      70:	34 03       	mulsu	r19, r20
      72:	47 03       	mulsu	r20, r23
      74:	65 03       	mulsu	r22, r21
      76:	9a 03       	fmulsu	r17, r18
      78:	c1 03       	fmuls	r20, r17
      7a:	f6 03       	fmuls	r23, r22
      7c:	1d 04       	cpc	r1, r13
      7e:	52 04       	cpc	r5, r2
      80:	f6 04       	cpc	r15, r6
      82:	5a 05       	cpc	r21, r10
      84:	5a 05       	cpc	r21, r10
      86:	5a 05       	cpc	r21, r10
      88:	01 05       	cpc	r16, r1
      8a:	0a 05       	cpc	r16, r10
      8c:	13 05       	cpc	r17, r3
      8e:	1c 05       	cpc	r17, r12
      90:	25 05       	cpc	r18, r5
      92:	2e 05       	cpc	r18, r14
      94:	37 05       	cpc	r19, r7
      96:	40 05       	cpc	r20, r0
      98:	07 63       	ori	r16, 0x37	; 55
      9a:	42 36       	cpi	r20, 0x62	; 98
      9c:	b7 9b       	sbis	0x16, 7	; 22
      9e:	d8 a7       	std	Y+40, r29	; 0x28
      a0:	1a 39       	cpi	r17, 0x9A	; 154
      a2:	68 56       	subi	r22, 0x68	; 104
      a4:	18 ae       	std	Y+56, r1	; 0x38
      a6:	ba ab       	std	Y+50, r27	; 0x32
      a8:	55 8c       	ldd	r5, Z+29	; 0x1d
      aa:	1d 3c       	cpi	r17, 0xCD	; 205
      ac:	b7 cc       	rjmp	.-1682   	; 0xfffffa1c <__eeprom_end+0xff7efa1c>
      ae:	57 63       	ori	r21, 0x37	; 55
      b0:	bd 6d       	ori	r27, 0xDD	; 221
      b2:	ed fd       	.word	0xfded	; ????
      b4:	75 3e       	cpi	r23, 0xE5	; 229
      b6:	f6 17       	cp	r31, r22
      b8:	72 31       	cpi	r23, 0x12	; 18
      ba:	bf 00       	.word	0x00bf	; ????
      bc:	00 00       	nop
      be:	80 3f       	cpi	r24, 0xF0	; 240
      c0:	08 00       	.word	0x0008	; ????
      c2:	00 00       	nop
      c4:	be 92       	st	-X, r11
      c6:	24 49       	sbci	r18, 0x94	; 148
      c8:	12 3e       	cpi	r17, 0xE2	; 226
      ca:	ab aa       	std	Y+51, r10	; 0x33
      cc:	aa 2a       	or	r10, r26
      ce:	be cd       	rjmp	.-1156   	; 0xfffffc4c <__eeprom_end+0xff7efc4c>
      d0:	cc cc       	rjmp	.-1640   	; 0xfffffa6a <__eeprom_end+0xff7efa6a>
      d2:	4c 3e       	cpi	r20, 0xEC	; 236
      d4:	00 00       	nop
      d6:	00 80       	ld	r0, Z
      d8:	be ab       	std	Y+54, r27	; 0x36
      da:	aa aa       	std	Y+50, r10	; 0x32
      dc:	aa 3e       	cpi	r26, 0xEA	; 234
      de:	00 00       	nop
      e0:	00 00       	nop
      e2:	bf 00       	.word	0x00bf	; ????
      e4:	00 00       	nop
      e6:	80 3f       	cpi	r24, 0xF0	; 240
      e8:	00 00       	nop
      ea:	00 00       	nop
      ec:	00 08       	sbc	r0, r0
      ee:	41 78       	andi	r20, 0x81	; 129
      f0:	d3 bb       	out	0x13, r29	; 19
      f2:	43 87       	std	Z+11, r20	; 0x0b
      f4:	d1 13       	cpse	r29, r17
      f6:	3d 19       	sub	r19, r13
      f8:	0e 3c       	cpi	r16, 0xCE	; 206
      fa:	c3 bd       	out	0x23, r28	; 35
      fc:	42 82       	std	Z+2, r4	; 0x02
      fe:	ad 2b       	or	r26, r29
     100:	3e 68       	ori	r19, 0x8E	; 142
     102:	ec 82       	std	Y+4, r14	; 0x04
     104:	76 be       	out	0x36, r7	; 54
     106:	d9 8f       	std	Y+25, r29	; 0x19
     108:	e1 a9       	ldd	r30, Z+49	; 0x31
     10a:	3e 4c       	sbci	r19, 0xCE	; 206
     10c:	80 ef       	ldi	r24, 0xF0	; 240
     10e:	ff be       	out	0x3f, r15	; 63
     110:	01 c4       	rjmp	.+2050   	; 0x914 <__stack+0xb5>
     112:	ff 7f       	andi	r31, 0xFF	; 255
     114:	3f 00       	.word	0x003f	; ????
     116:	00 00       	nop
	...

0000011a <__ctors_start>:
     11a:	83 0d       	add	r24, r3

0000011c <__ctors_end>:
     11c:	11 24       	eor	r1, r1
     11e:	1f be       	out	0x3f, r1	; 63
     120:	cf e5       	ldi	r28, 0x5F	; 95
     122:	d8 e0       	ldi	r29, 0x08	; 8
     124:	de bf       	out	0x3e, r29	; 62
     126:	cd bf       	out	0x3d, r28	; 61

00000128 <__do_copy_data>:
     128:	15 e0       	ldi	r17, 0x05	; 5
     12a:	a0 e6       	ldi	r26, 0x60	; 96
     12c:	b0 e0       	ldi	r27, 0x00	; 0
     12e:	e2 e5       	ldi	r30, 0x52	; 82
     130:	f9 e2       	ldi	r31, 0x29	; 41
     132:	02 c0       	rjmp	.+4      	; 0x138 <__do_copy_data+0x10>
     134:	05 90       	lpm	r0, Z+
     136:	0d 92       	st	X+, r0
     138:	a4 3f       	cpi	r26, 0xF4	; 244
     13a:	b1 07       	cpc	r27, r17
     13c:	d9 f7       	brne	.-10     	; 0x134 <__do_copy_data+0xc>

0000013e <__do_clear_bss>:
     13e:	26 e0       	ldi	r18, 0x06	; 6
     140:	a4 ef       	ldi	r26, 0xF4	; 244
     142:	b5 e0       	ldi	r27, 0x05	; 5
     144:	01 c0       	rjmp	.+2      	; 0x148 <.do_clear_bss_start>

00000146 <.do_clear_bss_loop>:
     146:	1d 92       	st	X+, r1

00000148 <.do_clear_bss_start>:
     148:	aa 31       	cpi	r26, 0x1A	; 26
     14a:	b2 07       	cpc	r27, r18
     14c:	e1 f7       	brne	.-8      	; 0x146 <.do_clear_bss_loop>

0000014e <__do_global_ctors>:
     14e:	10 e0       	ldi	r17, 0x00	; 0
     150:	ce e8       	ldi	r28, 0x8E	; 142
     152:	d0 e0       	ldi	r29, 0x00	; 0
     154:	04 c0       	rjmp	.+8      	; 0x15e <__do_global_ctors+0x10>
     156:	21 97       	sbiw	r28, 0x01	; 1
     158:	fe 01       	movw	r30, r28
     15a:	0e 94 8a 10 	call	0x2114	; 0x2114 <__tablejump2__>
     15e:	cd 38       	cpi	r28, 0x8D	; 141
     160:	d1 07       	cpc	r29, r17
     162:	c9 f7       	brne	.-14     	; 0x156 <__do_global_ctors+0x8>
     164:	0e 94 f6 06 	call	0xdec	; 0xdec <main>
     168:	0c 94 a7 14 	jmp	0x294e	; 0x294e <_exit>

0000016c <__bad_interrupt>:
     16c:	0c 94 00 00 	jmp	0	; 0x0 <__vectors>

00000170 <_Z9I2CMRInitv>:
     170:	82 e4       	ldi	r24, 0x42	; 66
     172:	80 b9       	out	0x00, r24	; 0
     174:	81 b1       	in	r24, 0x01	; 1
     176:	81 b9       	out	0x01, r24	; 1
     178:	08 95       	ret

0000017a <_Z10I2CMRStartv>:
     17a:	84 ea       	ldi	r24, 0xA4	; 164
     17c:	86 bf       	out	0x36, r24	; 54
     17e:	06 b6       	in	r0, 0x36	; 54
     180:	07 fe       	sbrs	r0, 7
     182:	fd cf       	rjmp	.-6      	; 0x17e <_Z10I2CMRStartv+0x4>
     184:	81 b1       	in	r24, 0x01	; 1
     186:	08 95       	ret

00000188 <_Z12I2CMRSendSLAh>:
     188:	83 b9       	out	0x03, r24	; 3
     18a:	84 e8       	ldi	r24, 0x84	; 132
     18c:	86 bf       	out	0x36, r24	; 54
     18e:	06 b6       	in	r0, 0x36	; 54
     190:	07 fe       	sbrs	r0, 7
     192:	fd cf       	rjmp	.-6      	; 0x18e <_Z12I2CMRSendSLAh+0x6>
     194:	81 b1       	in	r24, 0x01	; 1
     196:	08 95       	ret

00000198 <_Z9I2CMRReadv>:
     198:	84 ec       	ldi	r24, 0xC4	; 196
     19a:	86 bf       	out	0x36, r24	; 54
     19c:	06 b6       	in	r0, 0x36	; 54
     19e:	07 fe       	sbrs	r0, 7
     1a0:	fd cf       	rjmp	.-6      	; 0x19c <_Z9I2CMRReadv+0x4>
     1a2:	81 b1       	in	r24, 0x01	; 1
     1a4:	83 b1       	in	r24, 0x03	; 3
     1a6:	08 95       	ret

000001a8 <_Z13I2CMRReadLastv>:
     1a8:	84 e8       	ldi	r24, 0x84	; 132
     1aa:	86 bf       	out	0x36, r24	; 54
     1ac:	06 b6       	in	r0, 0x36	; 54
     1ae:	07 fe       	sbrs	r0, 7
     1b0:	fd cf       	rjmp	.-6      	; 0x1ac <_Z13I2CMRReadLastv+0x4>
     1b2:	81 b1       	in	r24, 0x01	; 1
     1b4:	83 b1       	in	r24, 0x03	; 3
     1b6:	08 95       	ret

000001b8 <_Z8BinToDech>:
     1b8:	98 2f       	mov	r25, r24
     1ba:	96 95       	lsr	r25
     1bc:	96 95       	lsr	r25
     1be:	96 95       	lsr	r25
     1c0:	9e 71       	andi	r25, 0x1E	; 30
     1c2:	29 2f       	mov	r18, r25
     1c4:	22 0f       	add	r18, r18
     1c6:	22 0f       	add	r18, r18
     1c8:	92 0f       	add	r25, r18
     1ca:	8f 70       	andi	r24, 0x0F	; 15
     1cc:	89 0f       	add	r24, r25
     1ce:	08 95       	ret

000001d0 <_Z8DecToBinh>:
     1d0:	6a e0       	ldi	r22, 0x0A	; 10
     1d2:	0e 94 6a 10 	call	0x20d4	; 0x20d4 <__udivmodqi4>
     1d6:	29 2f       	mov	r18, r25
     1d8:	30 e1       	ldi	r19, 0x10	; 16
     1da:	83 9f       	mul	r24, r19
     1dc:	c0 01       	movw	r24, r0
     1de:	11 24       	eor	r1, r1
     1e0:	82 2b       	or	r24, r18
     1e2:	08 95       	ret

000001e4 <_Z16DS1307_WriteTimePh>:
     1e4:	cf 93       	push	r28
     1e6:	df 93       	push	r29
     1e8:	ec 01       	movw	r28, r24
     1ea:	0e 94 b8 00 	call	0x170	; 0x170 <_Z9I2CMRInitv>
     1ee:	0e 94 bd 00 	call	0x17a	; 0x17a <_Z10I2CMRStartv>
     1f2:	80 ed       	ldi	r24, 0xD0	; 208
     1f4:	0e 94 c4 00 	call	0x188	; 0x188 <_Z12I2CMRSendSLAh>
     1f8:	80 e0       	ldi	r24, 0x00	; 0
     1fa:	0e 94 c4 00 	call	0x188	; 0x188 <_Z12I2CMRSendSLAh>
     1fe:	88 81       	ld	r24, Y
     200:	0e 94 e8 00 	call	0x1d0	; 0x1d0 <_Z8DecToBinh>
     204:	0e 94 c4 00 	call	0x188	; 0x188 <_Z12I2CMRSendSLAh>
     208:	89 81       	ldd	r24, Y+1	; 0x01
     20a:	0e 94 e8 00 	call	0x1d0	; 0x1d0 <_Z8DecToBinh>
     20e:	0e 94 c4 00 	call	0x188	; 0x188 <_Z12I2CMRSendSLAh>
     212:	8a 81       	ldd	r24, Y+2	; 0x02
     214:	0e 94 e8 00 	call	0x1d0	; 0x1d0 <_Z8DecToBinh>
     218:	0e 94 c4 00 	call	0x188	; 0x188 <_Z12I2CMRSendSLAh>
     21c:	8b 81       	ldd	r24, Y+3	; 0x03
     21e:	0e 94 e8 00 	call	0x1d0	; 0x1d0 <_Z8DecToBinh>
     222:	0e 94 c4 00 	call	0x188	; 0x188 <_Z12I2CMRSendSLAh>
     226:	8c 81       	ldd	r24, Y+4	; 0x04
     228:	0e 94 e8 00 	call	0x1d0	; 0x1d0 <_Z8DecToBinh>
     22c:	0e 94 c4 00 	call	0x188	; 0x188 <_Z12I2CMRSendSLAh>
     230:	8d 81       	ldd	r24, Y+5	; 0x05
     232:	0e 94 e8 00 	call	0x1d0	; 0x1d0 <_Z8DecToBinh>
     236:	0e 94 c4 00 	call	0x188	; 0x188 <_Z12I2CMRSendSLAh>
     23a:	8e 81       	ldd	r24, Y+6	; 0x06
     23c:	0e 94 e8 00 	call	0x1d0	; 0x1d0 <_Z8DecToBinh>
     240:	0e 94 c4 00 	call	0x188	; 0x188 <_Z12I2CMRSendSLAh>
     244:	80 e1       	ldi	r24, 0x10	; 16
     246:	0e 94 c4 00 	call	0x188	; 0x188 <_Z12I2CMRSendSLAh>
     24a:	84 e9       	ldi	r24, 0x94	; 148
     24c:	86 bf       	out	0x36, r24	; 54
     24e:	df 91       	pop	r29
     250:	cf 91       	pop	r28
     252:	08 95       	ret

00000254 <_Z15DS1307_ReadTimePh>:
     254:	cf 93       	push	r28
     256:	df 93       	push	r29
     258:	ec 01       	movw	r28, r24
     25a:	0e 94 b8 00 	call	0x170	; 0x170 <_Z9I2CMRInitv>
     25e:	0e 94 bd 00 	call	0x17a	; 0x17a <_Z10I2CMRStartv>
     262:	80 ed       	ldi	r24, 0xD0	; 208
     264:	0e 94 c4 00 	call	0x188	; 0x188 <_Z12I2CMRSendSLAh>
     268:	80 e0       	ldi	r24, 0x00	; 0
     26a:	0e 94 c4 00 	call	0x188	; 0x188 <_Z12I2CMRSendSLAh>
     26e:	0e 94 bd 00 	call	0x17a	; 0x17a <_Z10I2CMRStartv>
     272:	81 ed       	ldi	r24, 0xD1	; 209
     274:	0e 94 c4 00 	call	0x188	; 0x188 <_Z12I2CMRSendSLAh>
     278:	0e 94 cc 00 	call	0x198	; 0x198 <_Z9I2CMRReadv>
     27c:	0e 94 dc 00 	call	0x1b8	; 0x1b8 <_Z8BinToDech>
     280:	88 83       	st	Y, r24
     282:	0e 94 cc 00 	call	0x198	; 0x198 <_Z9I2CMRReadv>
     286:	0e 94 dc 00 	call	0x1b8	; 0x1b8 <_Z8BinToDech>
     28a:	89 83       	std	Y+1, r24	; 0x01
     28c:	0e 94 cc 00 	call	0x198	; 0x198 <_Z9I2CMRReadv>
     290:	0e 94 dc 00 	call	0x1b8	; 0x1b8 <_Z8BinToDech>
     294:	8a 83       	std	Y+2, r24	; 0x02
     296:	0e 94 cc 00 	call	0x198	; 0x198 <_Z9I2CMRReadv>
     29a:	0e 94 dc 00 	call	0x1b8	; 0x1b8 <_Z8BinToDech>
     29e:	8b 83       	std	Y+3, r24	; 0x03
     2a0:	0e 94 cc 00 	call	0x198	; 0x198 <_Z9I2CMRReadv>
     2a4:	0e 94 dc 00 	call	0x1b8	; 0x1b8 <_Z8BinToDech>
     2a8:	8c 83       	std	Y+4, r24	; 0x04
     2aa:	0e 94 cc 00 	call	0x198	; 0x198 <_Z9I2CMRReadv>
     2ae:	0e 94 dc 00 	call	0x1b8	; 0x1b8 <_Z8BinToDech>
     2b2:	8d 83       	std	Y+5, r24	; 0x05
     2b4:	0e 94 d4 00 	call	0x1a8	; 0x1a8 <_Z13I2CMRReadLastv>
     2b8:	0e 94 dc 00 	call	0x1b8	; 0x1b8 <_Z8BinToDech>
     2bc:	8e 83       	std	Y+6, r24	; 0x06
     2be:	84 e9       	ldi	r24, 0x94	; 148
     2c0:	86 bf       	out	0x36, r24	; 54
     2c2:	df 91       	pop	r29
     2c4:	cf 91       	pop	r28
     2c6:	08 95       	ret

000002c8 <_Z15Buttons_Handlerv>:
     2c8:	80 91 0c 06 	lds	r24, 0x060C	; 0x80060c <button>
     2cc:	81 30       	cpi	r24, 0x01	; 1
     2ce:	09 f0       	breq	.+2      	; 0x2d2 <_Z15Buttons_Handlerv+0xa>
     2d0:	92 c1       	rjmp	.+804    	; 0x5f6 <__EEPROM_REGION_LENGTH__+0x1f6>
     2d2:	10 92 0c 06 	sts	0x060C, r1	; 0x80060c <button>
     2d6:	e0 91 0b 06 	lds	r30, 0x060B	; 0x80060b <mode>
     2da:	8e 2f       	mov	r24, r30
     2dc:	90 e0       	ldi	r25, 0x00	; 0
     2de:	fc 01       	movw	r30, r24
     2e0:	31 97       	sbiw	r30, 0x01	; 1
     2e2:	eb 30       	cpi	r30, 0x0B	; 11
     2e4:	f1 05       	cpc	r31, r1
     2e6:	08 f0       	brcs	.+2      	; 0x2ea <_Z15Buttons_Handlerv+0x22>
     2e8:	e5 c3       	rjmp	.+1994   	; 0xab4 <__stack+0x255>
     2ea:	e6 5d       	subi	r30, 0xD6	; 214
     2ec:	ff 4f       	sbci	r31, 0xFF	; 255
     2ee:	0c 94 8a 10 	jmp	0x2114	; 0x2114 <__tablejump2__>
     2f2:	80 91 08 06 	lds	r24, 0x0608	; 0x800608 <time_temp>
     2f6:	8f 5f       	subi	r24, 0xFF	; 255
     2f8:	8c 33       	cpi	r24, 0x3C	; 60
     2fa:	18 f4       	brcc	.+6      	; 0x302 <_Z15Buttons_Handlerv+0x3a>
     2fc:	80 93 08 06 	sts	0x0608, r24	; 0x800608 <time_temp>
     300:	02 c0       	rjmp	.+4      	; 0x306 <_Z15Buttons_Handlerv+0x3e>
     302:	10 92 08 06 	sts	0x0608, r1	; 0x800608 <time_temp>
     306:	81 e0       	ldi	r24, 0x01	; 1
     308:	80 93 79 00 	sts	0x0079, r24	; 0x800079 <update_second>
     30c:	74 c1       	rjmp	.+744    	; 0x5f6 <__EEPROM_REGION_LENGTH__+0x1f6>
     30e:	80 91 09 06 	lds	r24, 0x0609	; 0x800609 <time_temp+0x1>
     312:	8f 5f       	subi	r24, 0xFF	; 255
     314:	8c 33       	cpi	r24, 0x3C	; 60
     316:	18 f4       	brcc	.+6      	; 0x31e <_Z15Buttons_Handlerv+0x56>
     318:	80 93 09 06 	sts	0x0609, r24	; 0x800609 <time_temp+0x1>
     31c:	02 c0       	rjmp	.+4      	; 0x322 <_Z15Buttons_Handlerv+0x5a>
     31e:	10 92 09 06 	sts	0x0609, r1	; 0x800609 <time_temp+0x1>
     322:	81 e0       	ldi	r24, 0x01	; 1
     324:	80 93 78 00 	sts	0x0078, r24	; 0x800078 <update_minute>
     328:	66 c1       	rjmp	.+716    	; 0x5f6 <__EEPROM_REGION_LENGTH__+0x1f6>
     32a:	80 91 0a 06 	lds	r24, 0x060A	; 0x80060a <time_temp+0x2>
     32e:	8f 5f       	subi	r24, 0xFF	; 255
     330:	88 31       	cpi	r24, 0x18	; 24
     332:	18 f4       	brcc	.+6      	; 0x33a <_Z15Buttons_Handlerv+0x72>
     334:	80 93 0a 06 	sts	0x060A, r24	; 0x80060a <time_temp+0x2>
     338:	02 c0       	rjmp	.+4      	; 0x33e <_Z15Buttons_Handlerv+0x76>
     33a:	10 92 0a 06 	sts	0x060A, r1	; 0x80060a <time_temp+0x2>
     33e:	81 e0       	ldi	r24, 0x01	; 1
     340:	80 93 77 00 	sts	0x0077, r24	; 0x800077 <update_hour>
     344:	58 c1       	rjmp	.+688    	; 0x5f6 <__EEPROM_REGION_LENGTH__+0x1f6>
     346:	20 91 60 00 	lds	r18, 0x0060	; 0x800060 <__data_start>
     34a:	80 91 62 00 	lds	r24, 0x0062	; 0x800062 <__data_start+0x2>
     34e:	90 91 63 00 	lds	r25, 0x0063	; 0x800063 <__data_start+0x3>
     352:	42 2f       	mov	r20, r18
     354:	50 e0       	ldi	r21, 0x00	; 0
     356:	4f 5f       	subi	r20, 0xFF	; 255
     358:	5f 4f       	sbci	r21, 0xFF	; 255
     35a:	3c e3       	ldi	r19, 0x3C	; 60
     35c:	34 9f       	mul	r19, r20
     35e:	b0 01       	movw	r22, r0
     360:	35 9f       	mul	r19, r21
     362:	70 0d       	add	r23, r0
     364:	11 24       	eor	r1, r1
     366:	30 91 61 00 	lds	r19, 0x0061	; 0x800061 <__data_start+0x1>
     36a:	63 0f       	add	r22, r19
     36c:	71 1d       	adc	r23, r1
     36e:	49 2f       	mov	r20, r25
     370:	50 e0       	ldi	r21, 0x00	; 0
     372:	3c e3       	ldi	r19, 0x3C	; 60
     374:	83 9f       	mul	r24, r19
     376:	40 0d       	add	r20, r0
     378:	51 1d       	adc	r21, r1
     37a:	11 24       	eor	r1, r1
     37c:	64 17       	cp	r22, r20
     37e:	75 07       	cpc	r23, r21
     380:	24 f4       	brge	.+8      	; 0x38a <_Z15Buttons_Handlerv+0xc2>
     382:	2f 5f       	subi	r18, 0xFF	; 255
     384:	20 93 60 00 	sts	0x0060, r18	; 0x800060 <__data_start>
     388:	10 c0       	rjmp	.+32     	; 0x3aa <_Z15Buttons_Handlerv+0xe2>
     38a:	80 93 60 00 	sts	0x0060, r24	; 0x800060 <__data_start>
     38e:	91 50       	subi	r25, 0x01	; 1
     390:	90 93 61 00 	sts	0x0061, r25	; 0x800061 <__data_start+0x1>
     394:	9c 33       	cpi	r25, 0x3C	; 60
     396:	30 f0       	brcs	.+12     	; 0x3a4 <_Z15Buttons_Handlerv+0xdc>
     398:	81 50       	subi	r24, 0x01	; 1
     39a:	80 93 60 00 	sts	0x0060, r24	; 0x800060 <__data_start>
     39e:	8b e3       	ldi	r24, 0x3B	; 59
     3a0:	80 93 61 00 	sts	0x0061, r24	; 0x800061 <__data_start+0x1>
     3a4:	81 e0       	ldi	r24, 0x01	; 1
     3a6:	80 93 75 00 	sts	0x0075, r24	; 0x800075 <update_minute_sunrise>
     3aa:	80 91 60 00 	lds	r24, 0x0060	; 0x800060 <__data_start>
     3ae:	88 31       	cpi	r24, 0x18	; 24
     3b0:	18 f0       	brcs	.+6      	; 0x3b8 <_Z15Buttons_Handlerv+0xf0>
     3b2:	87 e1       	ldi	r24, 0x17	; 23
     3b4:	80 93 60 00 	sts	0x0060, r24	; 0x800060 <__data_start>
     3b8:	81 e0       	ldi	r24, 0x01	; 1
     3ba:	80 93 76 00 	sts	0x0076, r24	; 0x800076 <update_hour_sunrise>
     3be:	1b c1       	rjmp	.+566    	; 0x5f6 <__EEPROM_REGION_LENGTH__+0x1f6>
     3c0:	80 91 60 00 	lds	r24, 0x0060	; 0x800060 <__data_start>
     3c4:	40 91 61 00 	lds	r20, 0x0061	; 0x800061 <__data_start+0x1>
     3c8:	50 91 62 00 	lds	r21, 0x0062	; 0x800062 <__data_start+0x2>
     3cc:	24 2f       	mov	r18, r20
     3ce:	30 e0       	ldi	r19, 0x00	; 0
     3d0:	6c e3       	ldi	r22, 0x3C	; 60
     3d2:	86 9f       	mul	r24, r22
     3d4:	20 0d       	add	r18, r0
     3d6:	31 1d       	adc	r19, r1
     3d8:	11 24       	eor	r1, r1
     3da:	2f 5f       	subi	r18, 0xFF	; 255
     3dc:	3f 4f       	sbci	r19, 0xFF	; 255
     3de:	80 91 63 00 	lds	r24, 0x0063	; 0x800063 <__data_start+0x3>
     3e2:	90 e0       	ldi	r25, 0x00	; 0
     3e4:	6c e3       	ldi	r22, 0x3C	; 60
     3e6:	56 9f       	mul	r21, r22
     3e8:	80 0d       	add	r24, r0
     3ea:	91 1d       	adc	r25, r1
     3ec:	11 24       	eor	r1, r1
     3ee:	28 17       	cp	r18, r24
     3f0:	39 07       	cpc	r19, r25
     3f2:	1c f4       	brge	.+6      	; 0x3fa <_Z15Buttons_Handlerv+0x132>
     3f4:	4f 5f       	subi	r20, 0xFF	; 255
     3f6:	40 93 61 00 	sts	0x0061, r20	; 0x800061 <__data_start+0x1>
     3fa:	80 91 61 00 	lds	r24, 0x0061	; 0x800061 <__data_start+0x1>
     3fe:	8c 33       	cpi	r24, 0x3C	; 60
     400:	30 f0       	brcs	.+12     	; 0x40e <__EEPROM_REGION_LENGTH__+0xe>
     402:	8b e3       	ldi	r24, 0x3B	; 59
     404:	80 93 61 00 	sts	0x0061, r24	; 0x800061 <__data_start+0x1>
     408:	81 e0       	ldi	r24, 0x01	; 1
     40a:	80 93 76 00 	sts	0x0076, r24	; 0x800076 <update_hour_sunrise>
     40e:	81 e0       	ldi	r24, 0x01	; 1
     410:	80 93 75 00 	sts	0x0075, r24	; 0x800075 <update_minute_sunrise>
     414:	f0 c0       	rjmp	.+480    	; 0x5f6 <__EEPROM_REGION_LENGTH__+0x1f6>
     416:	20 91 62 00 	lds	r18, 0x0062	; 0x800062 <__data_start+0x2>
     41a:	80 91 64 00 	lds	r24, 0x0064	; 0x800064 <__data_start+0x4>
     41e:	90 91 65 00 	lds	r25, 0x0065	; 0x800065 <__data_start+0x5>
     422:	42 2f       	mov	r20, r18
     424:	50 e0       	ldi	r21, 0x00	; 0
     426:	4f 5f       	subi	r20, 0xFF	; 255
     428:	5f 4f       	sbci	r21, 0xFF	; 255
     42a:	3c e3       	ldi	r19, 0x3C	; 60
     42c:	34 9f       	mul	r19, r20
     42e:	b0 01       	movw	r22, r0
     430:	35 9f       	mul	r19, r21
     432:	70 0d       	add	r23, r0
     434:	11 24       	eor	r1, r1
     436:	30 91 63 00 	lds	r19, 0x0063	; 0x800063 <__data_start+0x3>
     43a:	63 0f       	add	r22, r19
     43c:	71 1d       	adc	r23, r1
     43e:	49 2f       	mov	r20, r25
     440:	50 e0       	ldi	r21, 0x00	; 0
     442:	3c e3       	ldi	r19, 0x3C	; 60
     444:	83 9f       	mul	r24, r19
     446:	40 0d       	add	r20, r0
     448:	51 1d       	adc	r21, r1
     44a:	11 24       	eor	r1, r1
     44c:	64 17       	cp	r22, r20
     44e:	75 07       	cpc	r23, r21
     450:	24 f4       	brge	.+8      	; 0x45a <__EEPROM_REGION_LENGTH__+0x5a>
     452:	2f 5f       	subi	r18, 0xFF	; 255
     454:	20 93 62 00 	sts	0x0062, r18	; 0x800062 <__data_start+0x2>
     458:	10 c0       	rjmp	.+32     	; 0x47a <__EEPROM_REGION_LENGTH__+0x7a>
     45a:	80 93 62 00 	sts	0x0062, r24	; 0x800062 <__data_start+0x2>
     45e:	91 50       	subi	r25, 0x01	; 1
     460:	90 93 63 00 	sts	0x0063, r25	; 0x800063 <__data_start+0x3>
     464:	9c 33       	cpi	r25, 0x3C	; 60
     466:	30 f0       	brcs	.+12     	; 0x474 <__EEPROM_REGION_LENGTH__+0x74>
     468:	81 50       	subi	r24, 0x01	; 1
     46a:	80 93 62 00 	sts	0x0062, r24	; 0x800062 <__data_start+0x2>
     46e:	8b e3       	ldi	r24, 0x3B	; 59
     470:	80 93 63 00 	sts	0x0063, r24	; 0x800063 <__data_start+0x3>
     474:	81 e0       	ldi	r24, 0x01	; 1
     476:	80 93 73 00 	sts	0x0073, r24	; 0x800073 <update_minute_day>
     47a:	80 91 62 00 	lds	r24, 0x0062	; 0x800062 <__data_start+0x2>
     47e:	88 31       	cpi	r24, 0x18	; 24
     480:	18 f0       	brcs	.+6      	; 0x488 <__EEPROM_REGION_LENGTH__+0x88>
     482:	87 e1       	ldi	r24, 0x17	; 23
     484:	80 93 62 00 	sts	0x0062, r24	; 0x800062 <__data_start+0x2>
     488:	81 e0       	ldi	r24, 0x01	; 1
     48a:	80 93 74 00 	sts	0x0074, r24	; 0x800074 <update_hour_day>
     48e:	b3 c0       	rjmp	.+358    	; 0x5f6 <__EEPROM_REGION_LENGTH__+0x1f6>
     490:	80 91 62 00 	lds	r24, 0x0062	; 0x800062 <__data_start+0x2>
     494:	40 91 63 00 	lds	r20, 0x0063	; 0x800063 <__data_start+0x3>
     498:	50 91 64 00 	lds	r21, 0x0064	; 0x800064 <__data_start+0x4>
     49c:	24 2f       	mov	r18, r20
     49e:	30 e0       	ldi	r19, 0x00	; 0
     4a0:	6c e3       	ldi	r22, 0x3C	; 60
     4a2:	86 9f       	mul	r24, r22
     4a4:	20 0d       	add	r18, r0
     4a6:	31 1d       	adc	r19, r1
     4a8:	11 24       	eor	r1, r1
     4aa:	2f 5f       	subi	r18, 0xFF	; 255
     4ac:	3f 4f       	sbci	r19, 0xFF	; 255
     4ae:	80 91 65 00 	lds	r24, 0x0065	; 0x800065 <__data_start+0x5>
     4b2:	90 e0       	ldi	r25, 0x00	; 0
     4b4:	6c e3       	ldi	r22, 0x3C	; 60
     4b6:	56 9f       	mul	r21, r22
     4b8:	80 0d       	add	r24, r0
     4ba:	91 1d       	adc	r25, r1
     4bc:	11 24       	eor	r1, r1
     4be:	28 17       	cp	r18, r24
     4c0:	39 07       	cpc	r19, r25
     4c2:	1c f4       	brge	.+6      	; 0x4ca <__EEPROM_REGION_LENGTH__+0xca>
     4c4:	4f 5f       	subi	r20, 0xFF	; 255
     4c6:	40 93 63 00 	sts	0x0063, r20	; 0x800063 <__data_start+0x3>
     4ca:	80 91 63 00 	lds	r24, 0x0063	; 0x800063 <__data_start+0x3>
     4ce:	8c 33       	cpi	r24, 0x3C	; 60
     4d0:	30 f0       	brcs	.+12     	; 0x4de <__EEPROM_REGION_LENGTH__+0xde>
     4d2:	8b e3       	ldi	r24, 0x3B	; 59
     4d4:	80 93 63 00 	sts	0x0063, r24	; 0x800063 <__data_start+0x3>
     4d8:	81 e0       	ldi	r24, 0x01	; 1
     4da:	80 93 74 00 	sts	0x0074, r24	; 0x800074 <update_hour_day>
     4de:	81 e0       	ldi	r24, 0x01	; 1
     4e0:	80 93 73 00 	sts	0x0073, r24	; 0x800073 <update_minute_day>
     4e4:	88 c0       	rjmp	.+272    	; 0x5f6 <__EEPROM_REGION_LENGTH__+0x1f6>
     4e6:	20 91 64 00 	lds	r18, 0x0064	; 0x800064 <__data_start+0x4>
     4ea:	80 91 66 00 	lds	r24, 0x0066	; 0x800066 <__data_start+0x6>
     4ee:	90 91 67 00 	lds	r25, 0x0067	; 0x800067 <__data_start+0x7>
     4f2:	42 2f       	mov	r20, r18
     4f4:	50 e0       	ldi	r21, 0x00	; 0
     4f6:	4f 5f       	subi	r20, 0xFF	; 255
     4f8:	5f 4f       	sbci	r21, 0xFF	; 255
     4fa:	3c e3       	ldi	r19, 0x3C	; 60
     4fc:	34 9f       	mul	r19, r20
     4fe:	b0 01       	movw	r22, r0
     500:	35 9f       	mul	r19, r21
     502:	70 0d       	add	r23, r0
     504:	11 24       	eor	r1, r1
     506:	30 91 65 00 	lds	r19, 0x0065	; 0x800065 <__data_start+0x5>
     50a:	63 0f       	add	r22, r19
     50c:	71 1d       	adc	r23, r1
     50e:	49 2f       	mov	r20, r25
     510:	50 e0       	ldi	r21, 0x00	; 0
     512:	3c e3       	ldi	r19, 0x3C	; 60
     514:	83 9f       	mul	r24, r19
     516:	40 0d       	add	r20, r0
     518:	51 1d       	adc	r21, r1
     51a:	11 24       	eor	r1, r1
     51c:	64 17       	cp	r22, r20
     51e:	75 07       	cpc	r23, r21
     520:	24 f4       	brge	.+8      	; 0x52a <__EEPROM_REGION_LENGTH__+0x12a>
     522:	2f 5f       	subi	r18, 0xFF	; 255
     524:	20 93 64 00 	sts	0x0064, r18	; 0x800064 <__data_start+0x4>
     528:	10 c0       	rjmp	.+32     	; 0x54a <__EEPROM_REGION_LENGTH__+0x14a>
     52a:	80 93 64 00 	sts	0x0064, r24	; 0x800064 <__data_start+0x4>
     52e:	91 50       	subi	r25, 0x01	; 1
     530:	90 93 65 00 	sts	0x0065, r25	; 0x800065 <__data_start+0x5>
     534:	9c 33       	cpi	r25, 0x3C	; 60
     536:	30 f0       	brcs	.+12     	; 0x544 <__EEPROM_REGION_LENGTH__+0x144>
     538:	81 50       	subi	r24, 0x01	; 1
     53a:	80 93 64 00 	sts	0x0064, r24	; 0x800064 <__data_start+0x4>
     53e:	8b e3       	ldi	r24, 0x3B	; 59
     540:	80 93 65 00 	sts	0x0065, r24	; 0x800065 <__data_start+0x5>
     544:	81 e0       	ldi	r24, 0x01	; 1
     546:	80 93 71 00 	sts	0x0071, r24	; 0x800071 <update_minute_sunset>
     54a:	80 91 64 00 	lds	r24, 0x0064	; 0x800064 <__data_start+0x4>
     54e:	88 31       	cpi	r24, 0x18	; 24
     550:	18 f0       	brcs	.+6      	; 0x558 <__EEPROM_REGION_LENGTH__+0x158>
     552:	87 e1       	ldi	r24, 0x17	; 23
     554:	80 93 64 00 	sts	0x0064, r24	; 0x800064 <__data_start+0x4>
     558:	81 e0       	ldi	r24, 0x01	; 1
     55a:	80 93 72 00 	sts	0x0072, r24	; 0x800072 <update_hour_sunset>
     55e:	4b c0       	rjmp	.+150    	; 0x5f6 <__EEPROM_REGION_LENGTH__+0x1f6>
     560:	80 91 64 00 	lds	r24, 0x0064	; 0x800064 <__data_start+0x4>
     564:	40 91 65 00 	lds	r20, 0x0065	; 0x800065 <__data_start+0x5>
     568:	50 91 66 00 	lds	r21, 0x0066	; 0x800066 <__data_start+0x6>
     56c:	24 2f       	mov	r18, r20
     56e:	30 e0       	ldi	r19, 0x00	; 0
     570:	6c e3       	ldi	r22, 0x3C	; 60
     572:	86 9f       	mul	r24, r22
     574:	20 0d       	add	r18, r0
     576:	31 1d       	adc	r19, r1
     578:	11 24       	eor	r1, r1
     57a:	2f 5f       	subi	r18, 0xFF	; 255
     57c:	3f 4f       	sbci	r19, 0xFF	; 255
     57e:	80 91 67 00 	lds	r24, 0x0067	; 0x800067 <__data_start+0x7>
     582:	90 e0       	ldi	r25, 0x00	; 0
     584:	6c e3       	ldi	r22, 0x3C	; 60
     586:	56 9f       	mul	r21, r22
     588:	80 0d       	add	r24, r0
     58a:	91 1d       	adc	r25, r1
     58c:	11 24       	eor	r1, r1
     58e:	28 17       	cp	r18, r24
     590:	39 07       	cpc	r19, r25
     592:	1c f4       	brge	.+6      	; 0x59a <__EEPROM_REGION_LENGTH__+0x19a>
     594:	4f 5f       	subi	r20, 0xFF	; 255
     596:	40 93 65 00 	sts	0x0065, r20	; 0x800065 <__data_start+0x5>
     59a:	80 91 65 00 	lds	r24, 0x0065	; 0x800065 <__data_start+0x5>
     59e:	8c 33       	cpi	r24, 0x3C	; 60
     5a0:	30 f0       	brcs	.+12     	; 0x5ae <__EEPROM_REGION_LENGTH__+0x1ae>
     5a2:	8b e3       	ldi	r24, 0x3B	; 59
     5a4:	80 93 65 00 	sts	0x0065, r24	; 0x800065 <__data_start+0x5>
     5a8:	81 e0       	ldi	r24, 0x01	; 1
     5aa:	80 93 72 00 	sts	0x0072, r24	; 0x800072 <update_hour_sunset>
     5ae:	81 e0       	ldi	r24, 0x01	; 1
     5b0:	80 93 71 00 	sts	0x0071, r24	; 0x800071 <update_minute_sunset>
     5b4:	20 c0       	rjmp	.+64     	; 0x5f6 <__EEPROM_REGION_LENGTH__+0x1f6>
     5b6:	80 91 66 00 	lds	r24, 0x0066	; 0x800066 <__data_start+0x6>
     5ba:	8f 5f       	subi	r24, 0xFF	; 255
     5bc:	88 31       	cpi	r24, 0x18	; 24
     5be:	18 f4       	brcc	.+6      	; 0x5c6 <__EEPROM_REGION_LENGTH__+0x1c6>
     5c0:	80 93 66 00 	sts	0x0066, r24	; 0x800066 <__data_start+0x6>
     5c4:	09 c0       	rjmp	.+18     	; 0x5d8 <__EEPROM_REGION_LENGTH__+0x1d8>
     5c6:	87 e1       	ldi	r24, 0x17	; 23
     5c8:	80 93 66 00 	sts	0x0066, r24	; 0x800066 <__data_start+0x6>
     5cc:	8b e3       	ldi	r24, 0x3B	; 59
     5ce:	80 93 67 00 	sts	0x0067, r24	; 0x800067 <__data_start+0x7>
     5d2:	81 e0       	ldi	r24, 0x01	; 1
     5d4:	80 93 6f 00 	sts	0x006F, r24	; 0x80006f <update_minute_night>
     5d8:	81 e0       	ldi	r24, 0x01	; 1
     5da:	80 93 70 00 	sts	0x0070, r24	; 0x800070 <update_hour_night>
     5de:	0b c0       	rjmp	.+22     	; 0x5f6 <__EEPROM_REGION_LENGTH__+0x1f6>
     5e0:	80 91 67 00 	lds	r24, 0x0067	; 0x800067 <__data_start+0x7>
     5e4:	8f 5f       	subi	r24, 0xFF	; 255
     5e6:	8c 33       	cpi	r24, 0x3C	; 60
     5e8:	08 f0       	brcs	.+2      	; 0x5ec <__EEPROM_REGION_LENGTH__+0x1ec>
     5ea:	8b e3       	ldi	r24, 0x3B	; 59
     5ec:	80 93 67 00 	sts	0x0067, r24	; 0x800067 <__data_start+0x7>
     5f0:	81 e0       	ldi	r24, 0x01	; 1
     5f2:	80 93 6f 00 	sts	0x006F, r24	; 0x80006f <update_minute_night>
     5f6:	80 91 0c 06 	lds	r24, 0x060C	; 0x80060c <button>
     5fa:	82 30       	cpi	r24, 0x02	; 2
     5fc:	09 f0       	breq	.+2      	; 0x600 <__EEPROM_REGION_LENGTH__+0x200>
     5fe:	78 c1       	rjmp	.+752    	; 0x8f0 <__stack+0x91>
     600:	10 92 0c 06 	sts	0x060C, r1	; 0x80060c <button>
     604:	e0 91 0b 06 	lds	r30, 0x060B	; 0x80060b <mode>
     608:	8e 2f       	mov	r24, r30
     60a:	90 e0       	ldi	r25, 0x00	; 0
     60c:	fc 01       	movw	r30, r24
     60e:	31 97       	sbiw	r30, 0x01	; 1
     610:	eb 30       	cpi	r30, 0x0B	; 11
     612:	f1 05       	cpc	r31, r1
     614:	08 f0       	brcs	.+2      	; 0x618 <__EEPROM_REGION_LENGTH__+0x218>
     616:	4e c2       	rjmp	.+1180   	; 0xab4 <__stack+0x255>
     618:	eb 5c       	subi	r30, 0xCB	; 203
     61a:	ff 4f       	sbci	r31, 0xFF	; 255
     61c:	0c 94 8a 10 	jmp	0x2114	; 0x2114 <__tablejump2__>
     620:	80 91 08 06 	lds	r24, 0x0608	; 0x800608 <time_temp>
     624:	81 50       	subi	r24, 0x01	; 1
     626:	8c 33       	cpi	r24, 0x3C	; 60
     628:	08 f0       	brcs	.+2      	; 0x62c <__EEPROM_REGION_LENGTH__+0x22c>
     62a:	8b e3       	ldi	r24, 0x3B	; 59
     62c:	80 93 08 06 	sts	0x0608, r24	; 0x800608 <time_temp>
     630:	81 e0       	ldi	r24, 0x01	; 1
     632:	80 93 79 00 	sts	0x0079, r24	; 0x800079 <update_second>
     636:	5c c1       	rjmp	.+696    	; 0x8f0 <__stack+0x91>
     638:	80 91 09 06 	lds	r24, 0x0609	; 0x800609 <time_temp+0x1>
     63c:	81 50       	subi	r24, 0x01	; 1
     63e:	8c 33       	cpi	r24, 0x3C	; 60
     640:	08 f0       	brcs	.+2      	; 0x644 <__EEPROM_REGION_LENGTH__+0x244>
     642:	8b e3       	ldi	r24, 0x3B	; 59
     644:	80 93 09 06 	sts	0x0609, r24	; 0x800609 <time_temp+0x1>
     648:	81 e0       	ldi	r24, 0x01	; 1
     64a:	80 93 78 00 	sts	0x0078, r24	; 0x800078 <update_minute>
     64e:	50 c1       	rjmp	.+672    	; 0x8f0 <__stack+0x91>
     650:	80 91 0a 06 	lds	r24, 0x060A	; 0x80060a <time_temp+0x2>
     654:	81 50       	subi	r24, 0x01	; 1
     656:	88 31       	cpi	r24, 0x18	; 24
     658:	08 f0       	brcs	.+2      	; 0x65c <__EEPROM_REGION_LENGTH__+0x25c>
     65a:	87 e1       	ldi	r24, 0x17	; 23
     65c:	80 93 0a 06 	sts	0x060A, r24	; 0x80060a <time_temp+0x2>
     660:	81 e0       	ldi	r24, 0x01	; 1
     662:	80 93 77 00 	sts	0x0077, r24	; 0x800077 <update_hour>
     666:	44 c1       	rjmp	.+648    	; 0x8f0 <__stack+0x91>
     668:	80 91 60 00 	lds	r24, 0x0060	; 0x800060 <__data_start>
     66c:	81 50       	subi	r24, 0x01	; 1
     66e:	88 31       	cpi	r24, 0x18	; 24
     670:	18 f4       	brcc	.+6      	; 0x678 <__EEPROM_REGION_LENGTH__+0x278>
     672:	80 93 60 00 	sts	0x0060, r24	; 0x800060 <__data_start>
     676:	07 c0       	rjmp	.+14     	; 0x686 <__EEPROM_REGION_LENGTH__+0x286>
     678:	10 92 60 00 	sts	0x0060, r1	; 0x800060 <__data_start>
     67c:	10 92 61 00 	sts	0x0061, r1	; 0x800061 <__data_start+0x1>
     680:	81 e0       	ldi	r24, 0x01	; 1
     682:	80 93 75 00 	sts	0x0075, r24	; 0x800075 <update_minute_sunrise>
     686:	81 e0       	ldi	r24, 0x01	; 1
     688:	80 93 76 00 	sts	0x0076, r24	; 0x800076 <update_hour_sunrise>
     68c:	31 c1       	rjmp	.+610    	; 0x8f0 <__stack+0x91>
     68e:	80 91 61 00 	lds	r24, 0x0061	; 0x800061 <__data_start+0x1>
     692:	88 23       	and	r24, r24
     694:	19 f0       	breq	.+6      	; 0x69c <__EEPROM_REGION_LENGTH__+0x29c>
     696:	81 50       	subi	r24, 0x01	; 1
     698:	80 93 61 00 	sts	0x0061, r24	; 0x800061 <__data_start+0x1>
     69c:	80 91 61 00 	lds	r24, 0x0061	; 0x800061 <__data_start+0x1>
     6a0:	8c 33       	cpi	r24, 0x3C	; 60
     6a2:	78 f0       	brcs	.+30     	; 0x6c2 <__EEPROM_REGION_LENGTH__+0x2c2>
     6a4:	8b e3       	ldi	r24, 0x3B	; 59
     6a6:	80 93 61 00 	sts	0x0061, r24	; 0x800061 <__data_start+0x1>
     6aa:	80 91 60 00 	lds	r24, 0x0060	; 0x800060 <__data_start>
     6ae:	88 23       	and	r24, r24
     6b0:	41 f0       	breq	.+16     	; 0x6c2 <__EEPROM_REGION_LENGTH__+0x2c2>
     6b2:	10 92 61 00 	sts	0x0061, r1	; 0x800061 <__data_start+0x1>
     6b6:	81 50       	subi	r24, 0x01	; 1
     6b8:	80 93 60 00 	sts	0x0060, r24	; 0x800060 <__data_start>
     6bc:	81 e0       	ldi	r24, 0x01	; 1
     6be:	80 93 76 00 	sts	0x0076, r24	; 0x800076 <update_hour_sunrise>
     6c2:	81 e0       	ldi	r24, 0x01	; 1
     6c4:	80 93 75 00 	sts	0x0075, r24	; 0x800075 <update_minute_sunrise>
     6c8:	13 c1       	rjmp	.+550    	; 0x8f0 <__stack+0x91>
     6ca:	20 91 62 00 	lds	r18, 0x0062	; 0x800062 <__data_start+0x2>
     6ce:	80 91 60 00 	lds	r24, 0x0060	; 0x800060 <__data_start>
     6d2:	90 91 61 00 	lds	r25, 0x0061	; 0x800061 <__data_start+0x1>
     6d6:	42 2f       	mov	r20, r18
     6d8:	50 e0       	ldi	r21, 0x00	; 0
     6da:	41 50       	subi	r20, 0x01	; 1
     6dc:	51 09       	sbc	r21, r1
     6de:	3c e3       	ldi	r19, 0x3C	; 60
     6e0:	34 9f       	mul	r19, r20
     6e2:	b0 01       	movw	r22, r0
     6e4:	35 9f       	mul	r19, r21
     6e6:	70 0d       	add	r23, r0
     6e8:	11 24       	eor	r1, r1
     6ea:	30 91 63 00 	lds	r19, 0x0063	; 0x800063 <__data_start+0x3>
     6ee:	63 0f       	add	r22, r19
     6f0:	71 1d       	adc	r23, r1
     6f2:	49 2f       	mov	r20, r25
     6f4:	50 e0       	ldi	r21, 0x00	; 0
     6f6:	3c e3       	ldi	r19, 0x3C	; 60
     6f8:	83 9f       	mul	r24, r19
     6fa:	40 0d       	add	r20, r0
     6fc:	51 1d       	adc	r21, r1
     6fe:	11 24       	eor	r1, r1
     700:	46 17       	cp	r20, r22
     702:	57 07       	cpc	r21, r23
     704:	24 f4       	brge	.+8      	; 0x70e <__EEPROM_REGION_LENGTH__+0x30e>
     706:	21 50       	subi	r18, 0x01	; 1
     708:	20 93 62 00 	sts	0x0062, r18	; 0x800062 <__data_start+0x2>
     70c:	0f c0       	rjmp	.+30     	; 0x72c <__EEPROM_REGION_LENGTH__+0x32c>
     70e:	80 93 62 00 	sts	0x0062, r24	; 0x800062 <__data_start+0x2>
     712:	9f 5f       	subi	r25, 0xFF	; 255
     714:	90 93 63 00 	sts	0x0063, r25	; 0x800063 <__data_start+0x3>
     718:	9c 33       	cpi	r25, 0x3C	; 60
     71a:	28 f0       	brcs	.+10     	; 0x726 <__EEPROM_REGION_LENGTH__+0x326>
     71c:	8f 5f       	subi	r24, 0xFF	; 255
     71e:	80 93 62 00 	sts	0x0062, r24	; 0x800062 <__data_start+0x2>
     722:	10 92 63 00 	sts	0x0063, r1	; 0x800063 <__data_start+0x3>
     726:	81 e0       	ldi	r24, 0x01	; 1
     728:	80 93 73 00 	sts	0x0073, r24	; 0x800073 <update_minute_day>
     72c:	81 e0       	ldi	r24, 0x01	; 1
     72e:	80 93 74 00 	sts	0x0074, r24	; 0x800074 <update_hour_day>
     732:	de c0       	rjmp	.+444    	; 0x8f0 <__stack+0x91>
     734:	80 91 62 00 	lds	r24, 0x0062	; 0x800062 <__data_start+0x2>
     738:	40 91 63 00 	lds	r20, 0x0063	; 0x800063 <__data_start+0x3>
     73c:	50 91 60 00 	lds	r21, 0x0060	; 0x800060 <__data_start>
     740:	24 2f       	mov	r18, r20
     742:	30 e0       	ldi	r19, 0x00	; 0
     744:	6c e3       	ldi	r22, 0x3C	; 60
     746:	86 9f       	mul	r24, r22
     748:	20 0d       	add	r18, r0
     74a:	31 1d       	adc	r19, r1
     74c:	11 24       	eor	r1, r1
     74e:	21 50       	subi	r18, 0x01	; 1
     750:	31 09       	sbc	r19, r1
     752:	80 91 61 00 	lds	r24, 0x0061	; 0x800061 <__data_start+0x1>
     756:	90 e0       	ldi	r25, 0x00	; 0
     758:	6c e3       	ldi	r22, 0x3C	; 60
     75a:	56 9f       	mul	r21, r22
     75c:	80 0d       	add	r24, r0
     75e:	91 1d       	adc	r25, r1
     760:	11 24       	eor	r1, r1
     762:	82 17       	cp	r24, r18
     764:	93 07       	cpc	r25, r19
     766:	1c f4       	brge	.+6      	; 0x76e <__EEPROM_REGION_LENGTH__+0x36e>
     768:	41 50       	subi	r20, 0x01	; 1
     76a:	40 93 63 00 	sts	0x0063, r20	; 0x800063 <__data_start+0x3>
     76e:	80 91 63 00 	lds	r24, 0x0063	; 0x800063 <__data_start+0x3>
     772:	8c 33       	cpi	r24, 0x3C	; 60
     774:	10 f0       	brcs	.+4      	; 0x77a <__EEPROM_REGION_LENGTH__+0x37a>
     776:	10 92 63 00 	sts	0x0063, r1	; 0x800063 <__data_start+0x3>
     77a:	81 e0       	ldi	r24, 0x01	; 1
     77c:	80 93 73 00 	sts	0x0073, r24	; 0x800073 <update_minute_day>
     780:	b7 c0       	rjmp	.+366    	; 0x8f0 <__stack+0x91>
     782:	20 91 64 00 	lds	r18, 0x0064	; 0x800064 <__data_start+0x4>
     786:	80 91 62 00 	lds	r24, 0x0062	; 0x800062 <__data_start+0x2>
     78a:	90 91 63 00 	lds	r25, 0x0063	; 0x800063 <__data_start+0x3>
     78e:	42 2f       	mov	r20, r18
     790:	50 e0       	ldi	r21, 0x00	; 0
     792:	41 50       	subi	r20, 0x01	; 1
     794:	51 09       	sbc	r21, r1
     796:	3c e3       	ldi	r19, 0x3C	; 60
     798:	34 9f       	mul	r19, r20
     79a:	b0 01       	movw	r22, r0
     79c:	35 9f       	mul	r19, r21
     79e:	70 0d       	add	r23, r0
     7a0:	11 24       	eor	r1, r1
     7a2:	30 91 65 00 	lds	r19, 0x0065	; 0x800065 <__data_start+0x5>
     7a6:	63 0f       	add	r22, r19
     7a8:	71 1d       	adc	r23, r1
     7aa:	49 2f       	mov	r20, r25
     7ac:	50 e0       	ldi	r21, 0x00	; 0
     7ae:	3c e3       	ldi	r19, 0x3C	; 60
     7b0:	83 9f       	mul	r24, r19
     7b2:	40 0d       	add	r20, r0
     7b4:	51 1d       	adc	r21, r1
     7b6:	11 24       	eor	r1, r1
     7b8:	46 17       	cp	r20, r22
     7ba:	57 07       	cpc	r21, r23
     7bc:	24 f4       	brge	.+8      	; 0x7c6 <__EEPROM_REGION_LENGTH__+0x3c6>
     7be:	21 50       	subi	r18, 0x01	; 1
     7c0:	20 93 64 00 	sts	0x0064, r18	; 0x800064 <__data_start+0x4>
     7c4:	0f c0       	rjmp	.+30     	; 0x7e4 <__EEPROM_REGION_LENGTH__+0x3e4>
     7c6:	80 93 64 00 	sts	0x0064, r24	; 0x800064 <__data_start+0x4>
     7ca:	9f 5f       	subi	r25, 0xFF	; 255
     7cc:	90 93 65 00 	sts	0x0065, r25	; 0x800065 <__data_start+0x5>
     7d0:	9c 33       	cpi	r25, 0x3C	; 60
     7d2:	28 f0       	brcs	.+10     	; 0x7de <__EEPROM_REGION_LENGTH__+0x3de>
     7d4:	8f 5f       	subi	r24, 0xFF	; 255
     7d6:	80 93 64 00 	sts	0x0064, r24	; 0x800064 <__data_start+0x4>
     7da:	10 92 65 00 	sts	0x0065, r1	; 0x800065 <__data_start+0x5>
     7de:	81 e0       	ldi	r24, 0x01	; 1
     7e0:	80 93 71 00 	sts	0x0071, r24	; 0x800071 <update_minute_sunset>
     7e4:	81 e0       	ldi	r24, 0x01	; 1
     7e6:	80 93 72 00 	sts	0x0072, r24	; 0x800072 <update_hour_sunset>
     7ea:	82 c0       	rjmp	.+260    	; 0x8f0 <__stack+0x91>
     7ec:	80 91 64 00 	lds	r24, 0x0064	; 0x800064 <__data_start+0x4>
     7f0:	40 91 65 00 	lds	r20, 0x0065	; 0x800065 <__data_start+0x5>
     7f4:	50 91 62 00 	lds	r21, 0x0062	; 0x800062 <__data_start+0x2>
     7f8:	24 2f       	mov	r18, r20
     7fa:	30 e0       	ldi	r19, 0x00	; 0
     7fc:	6c e3       	ldi	r22, 0x3C	; 60
     7fe:	86 9f       	mul	r24, r22
     800:	20 0d       	add	r18, r0
     802:	31 1d       	adc	r19, r1
     804:	11 24       	eor	r1, r1
     806:	21 50       	subi	r18, 0x01	; 1
     808:	31 09       	sbc	r19, r1
     80a:	80 91 63 00 	lds	r24, 0x0063	; 0x800063 <__data_start+0x3>
     80e:	90 e0       	ldi	r25, 0x00	; 0
     810:	6c e3       	ldi	r22, 0x3C	; 60
     812:	56 9f       	mul	r21, r22
     814:	80 0d       	add	r24, r0
     816:	91 1d       	adc	r25, r1
     818:	11 24       	eor	r1, r1
     81a:	82 17       	cp	r24, r18
     81c:	93 07       	cpc	r25, r19
     81e:	1c f4       	brge	.+6      	; 0x826 <__DATA_REGION_LENGTH__+0x26>
     820:	41 50       	subi	r20, 0x01	; 1
     822:	40 93 65 00 	sts	0x0065, r20	; 0x800065 <__data_start+0x5>
     826:	80 91 65 00 	lds	r24, 0x0065	; 0x800065 <__data_start+0x5>
     82a:	8c 33       	cpi	r24, 0x3C	; 60
     82c:	10 f0       	brcs	.+4      	; 0x832 <__DATA_REGION_LENGTH__+0x32>
     82e:	10 92 65 00 	sts	0x0065, r1	; 0x800065 <__data_start+0x5>
     832:	81 e0       	ldi	r24, 0x01	; 1
     834:	80 93 71 00 	sts	0x0071, r24	; 0x800071 <update_minute_sunset>
     838:	5b c0       	rjmp	.+182    	; 0x8f0 <__stack+0x91>
     83a:	20 91 66 00 	lds	r18, 0x0066	; 0x800066 <__data_start+0x6>
     83e:	80 91 64 00 	lds	r24, 0x0064	; 0x800064 <__data_start+0x4>
     842:	90 91 65 00 	lds	r25, 0x0065	; 0x800065 <__data_start+0x5>
     846:	42 2f       	mov	r20, r18
     848:	50 e0       	ldi	r21, 0x00	; 0
     84a:	41 50       	subi	r20, 0x01	; 1
     84c:	51 09       	sbc	r21, r1
     84e:	3c e3       	ldi	r19, 0x3C	; 60
     850:	34 9f       	mul	r19, r20
     852:	b0 01       	movw	r22, r0
     854:	35 9f       	mul	r19, r21
     856:	70 0d       	add	r23, r0
     858:	11 24       	eor	r1, r1
     85a:	30 91 67 00 	lds	r19, 0x0067	; 0x800067 <__data_start+0x7>
     85e:	63 0f       	add	r22, r19
     860:	71 1d       	adc	r23, r1
     862:	49 2f       	mov	r20, r25
     864:	50 e0       	ldi	r21, 0x00	; 0
     866:	3c e3       	ldi	r19, 0x3C	; 60
     868:	83 9f       	mul	r24, r19
     86a:	40 0d       	add	r20, r0
     86c:	51 1d       	adc	r21, r1
     86e:	11 24       	eor	r1, r1
     870:	46 17       	cp	r20, r22
     872:	57 07       	cpc	r21, r23
     874:	24 f4       	brge	.+8      	; 0x87e <__stack+0x1f>
     876:	21 50       	subi	r18, 0x01	; 1
     878:	20 93 66 00 	sts	0x0066, r18	; 0x800066 <__data_start+0x6>
     87c:	0f c0       	rjmp	.+30     	; 0x89c <__stack+0x3d>
     87e:	80 93 66 00 	sts	0x0066, r24	; 0x800066 <__data_start+0x6>
     882:	9f 5f       	subi	r25, 0xFF	; 255
     884:	90 93 67 00 	sts	0x0067, r25	; 0x800067 <__data_start+0x7>
     888:	9c 33       	cpi	r25, 0x3C	; 60
     88a:	28 f0       	brcs	.+10     	; 0x896 <__stack+0x37>
     88c:	8f 5f       	subi	r24, 0xFF	; 255
     88e:	80 93 66 00 	sts	0x0066, r24	; 0x800066 <__data_start+0x6>
     892:	10 92 67 00 	sts	0x0067, r1	; 0x800067 <__data_start+0x7>
     896:	81 e0       	ldi	r24, 0x01	; 1
     898:	80 93 6f 00 	sts	0x006F, r24	; 0x80006f <update_minute_night>
     89c:	81 e0       	ldi	r24, 0x01	; 1
     89e:	80 93 70 00 	sts	0x0070, r24	; 0x800070 <update_hour_night>
     8a2:	26 c0       	rjmp	.+76     	; 0x8f0 <__stack+0x91>
     8a4:	80 91 66 00 	lds	r24, 0x0066	; 0x800066 <__data_start+0x6>
     8a8:	40 91 67 00 	lds	r20, 0x0067	; 0x800067 <__data_start+0x7>
     8ac:	50 91 64 00 	lds	r21, 0x0064	; 0x800064 <__data_start+0x4>
     8b0:	24 2f       	mov	r18, r20
     8b2:	30 e0       	ldi	r19, 0x00	; 0
     8b4:	6c e3       	ldi	r22, 0x3C	; 60
     8b6:	86 9f       	mul	r24, r22
     8b8:	20 0d       	add	r18, r0
     8ba:	31 1d       	adc	r19, r1
     8bc:	11 24       	eor	r1, r1
     8be:	21 50       	subi	r18, 0x01	; 1
     8c0:	31 09       	sbc	r19, r1
     8c2:	80 91 65 00 	lds	r24, 0x0065	; 0x800065 <__data_start+0x5>
     8c6:	90 e0       	ldi	r25, 0x00	; 0
     8c8:	6c e3       	ldi	r22, 0x3C	; 60
     8ca:	56 9f       	mul	r21, r22
     8cc:	80 0d       	add	r24, r0
     8ce:	91 1d       	adc	r25, r1
     8d0:	11 24       	eor	r1, r1
     8d2:	82 17       	cp	r24, r18
     8d4:	93 07       	cpc	r25, r19
     8d6:	1c f4       	brge	.+6      	; 0x8de <__stack+0x7f>
     8d8:	41 50       	subi	r20, 0x01	; 1
     8da:	40 93 67 00 	sts	0x0067, r20	; 0x800067 <__data_start+0x7>
     8de:	80 91 67 00 	lds	r24, 0x0067	; 0x800067 <__data_start+0x7>
     8e2:	8c 33       	cpi	r24, 0x3C	; 60
     8e4:	10 f0       	brcs	.+4      	; 0x8ea <__stack+0x8b>
     8e6:	10 92 67 00 	sts	0x0067, r1	; 0x800067 <__data_start+0x7>
     8ea:	81 e0       	ldi	r24, 0x01	; 1
     8ec:	80 93 6f 00 	sts	0x006F, r24	; 0x80006f <update_minute_night>
     8f0:	90 91 0c 06 	lds	r25, 0x060C	; 0x80060c <button>
     8f4:	93 30       	cpi	r25, 0x03	; 3
     8f6:	09 f0       	breq	.+2      	; 0x8fa <__stack+0x9b>
     8f8:	60 c0       	rjmp	.+192    	; 0x9ba <__stack+0x15b>
     8fa:	80 91 0b 06 	lds	r24, 0x060B	; 0x80060b <mode>
     8fe:	2c ef       	ldi	r18, 0xFC	; 252
     900:	28 0f       	add	r18, r24
     902:	28 30       	cpi	r18, 0x08	; 8
     904:	08 f4       	brcc	.+2      	; 0x908 <__stack+0xa9>
     906:	d8 c0       	rjmp	.+432    	; 0xab8 <__stack+0x259>
     908:	10 92 0c 06 	sts	0x060C, r1	; 0x80060c <button>
     90c:	81 30       	cpi	r24, 0x01	; 1
     90e:	09 f4       	brne	.+2      	; 0x912 <__stack+0xb3>
     910:	47 c0       	rjmp	.+142    	; 0x9a0 <__stack+0x141>
     912:	80 f1       	brcs	.+96     	; 0x974 <__stack+0x115>
     914:	82 30       	cpi	r24, 0x02	; 2
     916:	09 f4       	brne	.+2      	; 0x91a <__stack+0xbb>
     918:	49 c0       	rjmp	.+146    	; 0x9ac <__stack+0x14d>
     91a:	83 30       	cpi	r24, 0x03	; 3
     91c:	09 f0       	breq	.+2      	; 0x920 <__stack+0xc1>
     91e:	ca c0       	rjmp	.+404    	; 0xab4 <__stack+0x255>
     920:	10 92 0b 06 	sts	0x060B, r1	; 0x80060b <mode>
     924:	81 e0       	ldi	r24, 0x01	; 1
     926:	80 93 0d 06 	sts	0x060D, r24	; 0x80060d <update_schedule>
     92a:	80 93 76 00 	sts	0x0076, r24	; 0x800076 <update_hour_sunrise>
     92e:	80 93 74 00 	sts	0x0074, r24	; 0x800074 <update_hour_day>
     932:	80 93 72 00 	sts	0x0072, r24	; 0x800072 <update_hour_sunset>
     936:	80 93 70 00 	sts	0x0070, r24	; 0x800070 <update_hour_night>
     93a:	80 93 75 00 	sts	0x0075, r24	; 0x800075 <update_minute_sunrise>
     93e:	80 93 73 00 	sts	0x0073, r24	; 0x800073 <update_minute_day>
     942:	80 93 71 00 	sts	0x0071, r24	; 0x800071 <update_minute_sunset>
     946:	80 93 6f 00 	sts	0x006F, r24	; 0x80006f <update_minute_night>
     94a:	80 93 7a 00 	sts	0x007A, r24	; 0x80007a <update_word>
     94e:	80 93 7b 00 	sts	0x007B, r24	; 0x80007b <update_all>
     952:	80 91 08 06 	lds	r24, 0x0608	; 0x800608 <time_temp>
     956:	80 93 68 00 	sts	0x0068, r24	; 0x800068 <time>
     95a:	80 91 09 06 	lds	r24, 0x0609	; 0x800609 <time_temp+0x1>
     95e:	80 93 69 00 	sts	0x0069, r24	; 0x800069 <time+0x1>
     962:	80 91 0a 06 	lds	r24, 0x060A	; 0x80060a <time_temp+0x2>
     966:	80 93 6a 00 	sts	0x006A, r24	; 0x80006a <time+0x2>
     96a:	88 e6       	ldi	r24, 0x68	; 104
     96c:	90 e0       	ldi	r25, 0x00	; 0
     96e:	0e 94 f2 00 	call	0x1e4	; 0x1e4 <_Z16DS1307_WriteTimePh>
     972:	23 c0       	rjmp	.+70     	; 0x9ba <__stack+0x15b>
     974:	81 e0       	ldi	r24, 0x01	; 1
     976:	80 93 0b 06 	sts	0x060B, r24	; 0x80060b <mode>
     97a:	80 93 79 00 	sts	0x0079, r24	; 0x800079 <update_second>
     97e:	80 93 0e 06 	sts	0x060E, r24	; 0x80060e <update_clock>
     982:	80 93 7a 00 	sts	0x007A, r24	; 0x80007a <update_word>
     986:	80 91 68 00 	lds	r24, 0x0068	; 0x800068 <time>
     98a:	80 93 08 06 	sts	0x0608, r24	; 0x800608 <time_temp>
     98e:	80 91 69 00 	lds	r24, 0x0069	; 0x800069 <time+0x1>
     992:	80 93 09 06 	sts	0x0609, r24	; 0x800609 <time_temp+0x1>
     996:	80 91 6a 00 	lds	r24, 0x006A	; 0x80006a <time+0x2>
     99a:	80 93 0a 06 	sts	0x060A, r24	; 0x80060a <time_temp+0x2>
     99e:	0d c0       	rjmp	.+26     	; 0x9ba <__stack+0x15b>
     9a0:	92 e0       	ldi	r25, 0x02	; 2
     9a2:	90 93 0b 06 	sts	0x060B, r25	; 0x80060b <mode>
     9a6:	80 93 78 00 	sts	0x0078, r24	; 0x800078 <update_minute>
     9aa:	05 c0       	rjmp	.+10     	; 0x9b6 <__stack+0x157>
     9ac:	90 93 0b 06 	sts	0x060B, r25	; 0x80060b <mode>
     9b0:	81 e0       	ldi	r24, 0x01	; 1
     9b2:	80 93 77 00 	sts	0x0077, r24	; 0x800077 <update_hour>
     9b6:	80 93 0e 06 	sts	0x060E, r24	; 0x80060e <update_clock>
     9ba:	80 91 0c 06 	lds	r24, 0x060C	; 0x80060c <button>
     9be:	84 30       	cpi	r24, 0x04	; 4
     9c0:	09 f0       	breq	.+2      	; 0x9c4 <__stack+0x165>
     9c2:	7a c0       	rjmp	.+244    	; 0xab8 <__stack+0x259>
     9c4:	e0 91 0b 06 	lds	r30, 0x060B	; 0x80060b <mode>
     9c8:	8f ef       	ldi	r24, 0xFF	; 255
     9ca:	8e 0f       	add	r24, r30
     9cc:	83 30       	cpi	r24, 0x03	; 3
     9ce:	08 f4       	brcc	.+2      	; 0x9d2 <__stack+0x173>
     9d0:	73 c0       	rjmp	.+230    	; 0xab8 <__stack+0x259>
     9d2:	10 92 0c 06 	sts	0x060C, r1	; 0x80060c <button>
     9d6:	8e 2f       	mov	r24, r30
     9d8:	90 e0       	ldi	r25, 0x00	; 0
     9da:	8c 30       	cpi	r24, 0x0C	; 12
     9dc:	91 05       	cpc	r25, r1
     9de:	08 f0       	brcs	.+2      	; 0x9e2 <__stack+0x183>
     9e0:	69 c0       	rjmp	.+210    	; 0xab4 <__stack+0x255>
     9e2:	fc 01       	movw	r30, r24
     9e4:	e0 5c       	subi	r30, 0xC0	; 192
     9e6:	ff 4f       	sbci	r31, 0xFF	; 255
     9e8:	0c 94 8a 10 	jmp	0x2114	; 0x2114 <__tablejump2__>
     9ec:	84 e0       	ldi	r24, 0x04	; 4
     9ee:	80 93 0b 06 	sts	0x060B, r24	; 0x80060b <mode>
     9f2:	81 e0       	ldi	r24, 0x01	; 1
     9f4:	80 93 0d 06 	sts	0x060D, r24	; 0x80060d <update_schedule>
     9f8:	80 93 76 00 	sts	0x0076, r24	; 0x800076 <update_hour_sunrise>
     9fc:	80 93 7a 00 	sts	0x007A, r24	; 0x80007a <update_word>
     a00:	08 95       	ret
     a02:	85 e0       	ldi	r24, 0x05	; 5
     a04:	80 93 0b 06 	sts	0x060B, r24	; 0x80060b <mode>
     a08:	81 e0       	ldi	r24, 0x01	; 1
     a0a:	80 93 0d 06 	sts	0x060D, r24	; 0x80060d <update_schedule>
     a0e:	80 93 75 00 	sts	0x0075, r24	; 0x800075 <update_minute_sunrise>
     a12:	08 95       	ret
     a14:	86 e0       	ldi	r24, 0x06	; 6
     a16:	80 93 0b 06 	sts	0x060B, r24	; 0x80060b <mode>
     a1a:	81 e0       	ldi	r24, 0x01	; 1
     a1c:	80 93 0d 06 	sts	0x060D, r24	; 0x80060d <update_schedule>
     a20:	80 93 74 00 	sts	0x0074, r24	; 0x800074 <update_hour_day>
     a24:	08 95       	ret
     a26:	87 e0       	ldi	r24, 0x07	; 7
     a28:	80 93 0b 06 	sts	0x060B, r24	; 0x80060b <mode>
     a2c:	81 e0       	ldi	r24, 0x01	; 1
     a2e:	80 93 0d 06 	sts	0x060D, r24	; 0x80060d <update_schedule>
     a32:	80 93 73 00 	sts	0x0073, r24	; 0x800073 <update_minute_day>
     a36:	08 95       	ret
     a38:	88 e0       	ldi	r24, 0x08	; 8
     a3a:	80 93 0b 06 	sts	0x060B, r24	; 0x80060b <mode>
     a3e:	81 e0       	ldi	r24, 0x01	; 1
     a40:	80 93 0d 06 	sts	0x060D, r24	; 0x80060d <update_schedule>
     a44:	80 93 72 00 	sts	0x0072, r24	; 0x800072 <update_hour_sunset>
     a48:	08 95       	ret
     a4a:	89 e0       	ldi	r24, 0x09	; 9
     a4c:	80 93 0b 06 	sts	0x060B, r24	; 0x80060b <mode>
     a50:	81 e0       	ldi	r24, 0x01	; 1
     a52:	80 93 0d 06 	sts	0x060D, r24	; 0x80060d <update_schedule>
     a56:	80 93 71 00 	sts	0x0071, r24	; 0x800071 <update_minute_sunset>
     a5a:	08 95       	ret
     a5c:	8a e0       	ldi	r24, 0x0A	; 10
     a5e:	80 93 0b 06 	sts	0x060B, r24	; 0x80060b <mode>
     a62:	81 e0       	ldi	r24, 0x01	; 1
     a64:	80 93 0d 06 	sts	0x060D, r24	; 0x80060d <update_schedule>
     a68:	80 93 70 00 	sts	0x0070, r24	; 0x800070 <update_hour_night>
     a6c:	08 95       	ret
     a6e:	8b e0       	ldi	r24, 0x0B	; 11
     a70:	80 93 0b 06 	sts	0x060B, r24	; 0x80060b <mode>
     a74:	81 e0       	ldi	r24, 0x01	; 1
     a76:	80 93 0d 06 	sts	0x060D, r24	; 0x80060d <update_schedule>
     a7a:	80 93 6f 00 	sts	0x006F, r24	; 0x80006f <update_minute_night>
     a7e:	08 95       	ret
     a80:	10 92 0b 06 	sts	0x060B, r1	; 0x80060b <mode>
     a84:	81 e0       	ldi	r24, 0x01	; 1
     a86:	80 93 0d 06 	sts	0x060D, r24	; 0x80060d <update_schedule>
     a8a:	80 93 76 00 	sts	0x0076, r24	; 0x800076 <update_hour_sunrise>
     a8e:	80 93 74 00 	sts	0x0074, r24	; 0x800074 <update_hour_day>
     a92:	80 93 72 00 	sts	0x0072, r24	; 0x800072 <update_hour_sunset>
     a96:	80 93 70 00 	sts	0x0070, r24	; 0x800070 <update_hour_night>
     a9a:	80 93 75 00 	sts	0x0075, r24	; 0x800075 <update_minute_sunrise>
     a9e:	80 93 73 00 	sts	0x0073, r24	; 0x800073 <update_minute_day>
     aa2:	80 93 71 00 	sts	0x0071, r24	; 0x800071 <update_minute_sunset>
     aa6:	80 93 6f 00 	sts	0x006F, r24	; 0x80006f <update_minute_night>
     aaa:	80 93 7a 00 	sts	0x007A, r24	; 0x80007a <update_word>
     aae:	80 93 7b 00 	sts	0x007B, r24	; 0x80007b <update_all>
     ab2:	08 95       	ret
     ab4:	10 92 0b 06 	sts	0x060B, r1	; 0x80060b <mode>
     ab8:	08 95       	ret

00000aba <_Z10Setup_TIM0v>:
     aba:	8c b7       	in	r24, 0x3c	; 60
     abc:	8c bf       	out	0x3c, r24	; 60
     abe:	83 b7       	in	r24, 0x33	; 51
     ac0:	89 66       	ori	r24, 0x69	; 105
     ac2:	83 bf       	out	0x33, r24	; 51
     ac4:	bb 9a       	sbi	0x17, 3	; 23
     ac6:	78 94       	sei
     ac8:	08 95       	ret

00000aca <_Z10Setup_TIM1v>:
     aca:	8e e3       	ldi	r24, 0x3E	; 62
     acc:	98 e3       	ldi	r25, 0x38	; 56
     ace:	9b bd       	out	0x2b, r25	; 43
     ad0:	8a bd       	out	0x2a, r24	; 42
     ad2:	8f b5       	in	r24, 0x2f	; 47
     ad4:	8f bd       	out	0x2f, r24	; 47
     ad6:	8e b5       	in	r24, 0x2e	; 46
     ad8:	8d 60       	ori	r24, 0x0D	; 13
     ada:	8e bd       	out	0x2e, r24	; 46
     adc:	89 b7       	in	r24, 0x39	; 57
     ade:	80 61       	ori	r24, 0x10	; 16
     ae0:	89 bf       	out	0x39, r24	; 57
     ae2:	78 94       	sei
     ae4:	08 95       	ret

00000ae6 <_Z9Setup_INTv>:
     ae6:	8b b7       	in	r24, 0x3b	; 59
     ae8:	80 64       	ori	r24, 0x40	; 64
     aea:	8b bf       	out	0x3b, r24	; 59
     aec:	85 b7       	in	r24, 0x35	; 53
     aee:	8a 60       	ori	r24, 0x0A	; 10
     af0:	85 bf       	out	0x35, r24	; 53
     af2:	84 b7       	in	r24, 0x34	; 52
     af4:	84 bf       	out	0x34, r24	; 52
     af6:	78 94       	sei
     af8:	08 95       	ret

00000afa <_Z10Setup_GPIOv>:
     afa:	8f ef       	ldi	r24, 0xFF	; 255
     afc:	8b bb       	out	0x1b, r24	; 27
     afe:	1a ba       	out	0x1a, r1	; 26
     b00:	08 95       	ret

00000b02 <__vector_1>:
     b02:	1f 92       	push	r1
     b04:	0f 92       	push	r0
     b06:	0f b6       	in	r0, 0x3f	; 63
     b08:	0f 92       	push	r0
     b0a:	11 24       	eor	r1, r1
     b0c:	2f 93       	push	r18
     b0e:	8f 93       	push	r24
     b10:	9f 93       	push	r25
     b12:	ef 93       	push	r30
     b14:	ff 93       	push	r31
     b16:	f8 94       	cli
     b18:	2f ef       	ldi	r18, 0xFF	; 255
     b1a:	8f e3       	ldi	r24, 0x3F	; 63
     b1c:	92 e0       	ldi	r25, 0x02	; 2
     b1e:	21 50       	subi	r18, 0x01	; 1
     b20:	80 40       	sbci	r24, 0x00	; 0
     b22:	90 40       	sbci	r25, 0x00	; 0
     b24:	e1 f7       	brne	.-8      	; 0xb1e <__vector_1+0x1c>
     b26:	00 c0       	rjmp	.+0      	; 0xb28 <__vector_1+0x26>
     b28:	00 00       	nop
     b2a:	8b e0       	ldi	r24, 0x0B	; 11
     b2c:	99 b3       	in	r25, 0x19	; 25
     b2e:	9e 3f       	cpi	r25, 0xFE	; 254
     b30:	91 f0       	breq	.+36     	; 0xb56 <__vector_1+0x54>
     b32:	99 b3       	in	r25, 0x19	; 25
     b34:	9d 3f       	cpi	r25, 0xFD	; 253
     b36:	79 f0       	breq	.+30     	; 0xb56 <__vector_1+0x54>
     b38:	99 b3       	in	r25, 0x19	; 25
     b3a:	9b 3f       	cpi	r25, 0xFB	; 251
     b3c:	61 f0       	breq	.+24     	; 0xb56 <__vector_1+0x54>
     b3e:	99 b3       	in	r25, 0x19	; 25
     b40:	97 3f       	cpi	r25, 0xF7	; 247
     b42:	49 f0       	breq	.+18     	; 0xb56 <__vector_1+0x54>
     b44:	ef ef       	ldi	r30, 0xFF	; 255
     b46:	f7 e4       	ldi	r31, 0x47	; 71
     b48:	31 97       	sbiw	r30, 0x01	; 1
     b4a:	f1 f7       	brne	.-4      	; 0xb48 <__vector_1+0x46>
     b4c:	00 c0       	rjmp	.+0      	; 0xb4e <__vector_1+0x4c>
     b4e:	00 00       	nop
     b50:	81 50       	subi	r24, 0x01	; 1
     b52:	61 f7       	brne	.-40     	; 0xb2c <__vector_1+0x2a>
     b54:	16 c0       	rjmp	.+44     	; 0xb82 <__vector_1+0x80>
     b56:	89 b3       	in	r24, 0x19	; 25
     b58:	8b 3f       	cpi	r24, 0xFB	; 251
     b5a:	49 f4       	brne	.+18     	; 0xb6e <__vector_1+0x6c>
     b5c:	83 e0       	ldi	r24, 0x03	; 3
     b5e:	03 c0       	rjmp	.+6      	; 0xb66 <__vector_1+0x64>
     b60:	8e 3f       	cpi	r24, 0xFE	; 254
     b62:	79 f4       	brne	.+30     	; 0xb82 <__vector_1+0x80>
     b64:	81 e0       	ldi	r24, 0x01	; 1
     b66:	80 93 0c 06 	sts	0x060C, r24	; 0x80060c <button>
     b6a:	78 94       	sei
     b6c:	0a c0       	rjmp	.+20     	; 0xb82 <__vector_1+0x80>
     b6e:	8c 3f       	cpi	r24, 0xFC	; 252
     b70:	20 f4       	brcc	.+8      	; 0xb7a <__vector_1+0x78>
     b72:	87 3f       	cpi	r24, 0xF7	; 247
     b74:	31 f4       	brne	.+12     	; 0xb82 <__vector_1+0x80>
     b76:	84 e0       	ldi	r24, 0x04	; 4
     b78:	f6 cf       	rjmp	.-20     	; 0xb66 <__vector_1+0x64>
     b7a:	8d 3f       	cpi	r24, 0xFD	; 253
     b7c:	89 f7       	brne	.-30     	; 0xb60 <__vector_1+0x5e>
     b7e:	82 e0       	ldi	r24, 0x02	; 2
     b80:	f2 cf       	rjmp	.-28     	; 0xb66 <__vector_1+0x64>
     b82:	ff 91       	pop	r31
     b84:	ef 91       	pop	r30
     b86:	9f 91       	pop	r25
     b88:	8f 91       	pop	r24
     b8a:	2f 91       	pop	r18
     b8c:	0f 90       	pop	r0
     b8e:	0f be       	out	0x3f, r0	; 63
     b90:	0f 90       	pop	r0
     b92:	1f 90       	pop	r1
     b94:	18 95       	reti

00000b96 <__vector_7>:
     b96:	1f 92       	push	r1
     b98:	0f 92       	push	r0
     b9a:	0f b6       	in	r0, 0x3f	; 63
     b9c:	0f 92       	push	r0
     b9e:	11 24       	eor	r1, r1
     ba0:	2f 93       	push	r18
     ba2:	3f 93       	push	r19
     ba4:	4f 93       	push	r20
     ba6:	5f 93       	push	r21
     ba8:	6f 93       	push	r22
     baa:	7f 93       	push	r23
     bac:	8f 93       	push	r24
     bae:	9f 93       	push	r25
     bb0:	af 93       	push	r26
     bb2:	bf 93       	push	r27
     bb4:	ef 93       	push	r30
     bb6:	ff 93       	push	r31
     bb8:	f8 94       	cli
     bba:	80 91 68 00 	lds	r24, 0x0068	; 0x800068 <time>
     bbe:	8f 5f       	subi	r24, 0xFF	; 255
     bc0:	80 93 68 00 	sts	0x0068, r24	; 0x800068 <time>
     bc4:	90 91 0b 06 	lds	r25, 0x060B	; 0x80060b <mode>
     bc8:	91 50       	subi	r25, 0x01	; 1
     bca:	93 30       	cpi	r25, 0x03	; 3
     bcc:	30 f0       	brcs	.+12     	; 0xbda <__vector_7+0x44>
     bce:	91 e0       	ldi	r25, 0x01	; 1
     bd0:	90 93 79 00 	sts	0x0079, r25	; 0x800079 <update_second>
     bd4:	8c 33       	cpi	r24, 0x3C	; 60
     bd6:	70 f4       	brcc	.+28     	; 0xbf4 <__vector_7+0x5e>
     bd8:	25 c0       	rjmp	.+74     	; 0xc24 <__vector_7+0x8e>
     bda:	8c 33       	cpi	r24, 0x3C	; 60
     bdc:	18 f1       	brcs	.+70     	; 0xc24 <__vector_7+0x8e>
     bde:	10 92 68 00 	sts	0x0068, r1	; 0x800068 <time>
     be2:	80 91 69 00 	lds	r24, 0x0069	; 0x800069 <time+0x1>
     be6:	8f 5f       	subi	r24, 0xFF	; 255
     be8:	80 93 69 00 	sts	0x0069, r24	; 0x800069 <time+0x1>
     bec:	8c 33       	cpi	r24, 0x3C	; 60
     bee:	08 f0       	brcs	.+2      	; 0xbf2 <__vector_7+0x5c>
     bf0:	4a c0       	rjmp	.+148    	; 0xc86 <__vector_7+0xf0>
     bf2:	1c c0       	rjmp	.+56     	; 0xc2c <__vector_7+0x96>
     bf4:	10 92 68 00 	sts	0x0068, r1	; 0x800068 <time>
     bf8:	80 91 69 00 	lds	r24, 0x0069	; 0x800069 <time+0x1>
     bfc:	8f 5f       	subi	r24, 0xFF	; 255
     bfe:	80 93 69 00 	sts	0x0069, r24	; 0x800069 <time+0x1>
     c02:	90 93 78 00 	sts	0x0078, r25	; 0x800078 <update_minute>
     c06:	8c 33       	cpi	r24, 0x3C	; 60
     c08:	68 f0       	brcs	.+26     	; 0xc24 <__vector_7+0x8e>
     c0a:	10 92 69 00 	sts	0x0069, r1	; 0x800069 <time+0x1>
     c0e:	80 91 6a 00 	lds	r24, 0x006A	; 0x80006a <time+0x2>
     c12:	8f 5f       	subi	r24, 0xFF	; 255
     c14:	80 93 6a 00 	sts	0x006A, r24	; 0x80006a <time+0x2>
     c18:	90 93 77 00 	sts	0x0077, r25	; 0x800077 <update_hour>
     c1c:	88 31       	cpi	r24, 0x18	; 24
     c1e:	10 f0       	brcs	.+4      	; 0xc24 <__vector_7+0x8e>
     c20:	10 92 6a 00 	sts	0x006A, r1	; 0x80006a <time+0x2>
     c24:	80 91 68 00 	lds	r24, 0x0068	; 0x800068 <time>
     c28:	81 11       	cpse	r24, r1
     c2a:	0e c0       	rjmp	.+28     	; 0xc48 <__vector_7+0xb2>
     c2c:	80 91 69 00 	lds	r24, 0x0069	; 0x800069 <time+0x1>
     c30:	81 11       	cpse	r24, r1
     c32:	0a c0       	rjmp	.+20     	; 0xc48 <__vector_7+0xb2>
     c34:	80 91 7c 00 	lds	r24, 0x007C	; 0x80007c <update_sync_DS1307>
     c38:	88 23       	and	r24, r24
     c3a:	31 f0       	breq	.+12     	; 0xc48 <__vector_7+0xb2>
     c3c:	10 92 7c 00 	sts	0x007C, r1	; 0x80007c <update_sync_DS1307>
     c40:	88 e6       	ldi	r24, 0x68	; 104
     c42:	90 e0       	ldi	r25, 0x00	; 0
     c44:	0e 94 2a 01 	call	0x254	; 0x254 <_Z15DS1307_ReadTimePh>
     c48:	80 91 68 00 	lds	r24, 0x0068	; 0x800068 <time>
     c4c:	81 11       	cpse	r24, r1
     c4e:	06 c0       	rjmp	.+12     	; 0xc5c <__vector_7+0xc6>
     c50:	80 91 69 00 	lds	r24, 0x0069	; 0x800069 <time+0x1>
     c54:	81 30       	cpi	r24, 0x01	; 1
     c56:	11 f4       	brne	.+4      	; 0xc5c <__vector_7+0xc6>
     c58:	80 93 7c 00 	sts	0x007C, r24	; 0x80007c <update_sync_DS1307>
     c5c:	81 e0       	ldi	r24, 0x01	; 1
     c5e:	80 93 7a 00 	sts	0x007A, r24	; 0x80007a <update_word>
     c62:	78 94       	sei
     c64:	ff 91       	pop	r31
     c66:	ef 91       	pop	r30
     c68:	bf 91       	pop	r27
     c6a:	af 91       	pop	r26
     c6c:	9f 91       	pop	r25
     c6e:	8f 91       	pop	r24
     c70:	7f 91       	pop	r23
     c72:	6f 91       	pop	r22
     c74:	5f 91       	pop	r21
     c76:	4f 91       	pop	r20
     c78:	3f 91       	pop	r19
     c7a:	2f 91       	pop	r18
     c7c:	0f 90       	pop	r0
     c7e:	0f be       	out	0x3f, r0	; 63
     c80:	0f 90       	pop	r0
     c82:	1f 90       	pop	r1
     c84:	18 95       	reti
     c86:	10 92 69 00 	sts	0x0069, r1	; 0x800069 <time+0x1>
     c8a:	80 91 6a 00 	lds	r24, 0x006A	; 0x80006a <time+0x2>
     c8e:	8f 5f       	subi	r24, 0xFF	; 255
     c90:	80 93 6a 00 	sts	0x006A, r24	; 0x80006a <time+0x2>
     c94:	c3 cf       	rjmp	.-122    	; 0xc1c <__vector_7+0x86>

00000c96 <_Z8intToStriPci>:
     c96:	ef 92       	push	r14
     c98:	ff 92       	push	r15
     c9a:	0f 93       	push	r16
     c9c:	1f 93       	push	r17
     c9e:	cf 93       	push	r28
     ca0:	df 93       	push	r29
     ca2:	fb 01       	movw	r30, r22
     ca4:	8a 01       	movw	r16, r20
     ca6:	eb 01       	movw	r28, r22
     ca8:	2a e0       	ldi	r18, 0x0A	; 10
     caa:	e2 2e       	mov	r14, r18
     cac:	f1 2c       	mov	r15, r1
     cae:	9e 01       	movw	r18, r28
     cb0:	2e 1b       	sub	r18, r30
     cb2:	3f 0b       	sbc	r19, r31
     cb4:	00 97       	sbiw	r24, 0x00	; 0
     cb6:	39 f0       	breq	.+14     	; 0xcc6 <_Z8intToStriPci+0x30>
     cb8:	b7 01       	movw	r22, r14
     cba:	0e 94 76 10 	call	0x20ec	; 0x20ec <__divmodhi4>
     cbe:	80 5d       	subi	r24, 0xD0	; 208
     cc0:	89 93       	st	Y+, r24
     cc2:	cb 01       	movw	r24, r22
     cc4:	f4 cf       	rjmp	.-24     	; 0xcae <_Z8intToStriPci+0x18>
     cc6:	df 01       	movw	r26, r30
     cc8:	a2 0f       	add	r26, r18
     cca:	b3 1f       	adc	r27, r19
     ccc:	80 e3       	ldi	r24, 0x30	; 48
     cce:	20 17       	cp	r18, r16
     cd0:	31 07       	cpc	r19, r17
     cd2:	24 f4       	brge	.+8      	; 0xcdc <_Z8intToStriPci+0x46>
     cd4:	2f 5f       	subi	r18, 0xFF	; 255
     cd6:	3f 4f       	sbci	r19, 0xFF	; 255
     cd8:	8d 93       	st	X+, r24
     cda:	f9 cf       	rjmp	.-14     	; 0xcce <_Z8intToStriPci+0x38>
     cdc:	c9 01       	movw	r24, r18
     cde:	01 97       	sbiw	r24, 0x01	; 1
     ce0:	af 01       	movw	r20, r30
     ce2:	42 0f       	add	r20, r18
     ce4:	53 1f       	adc	r21, r19
     ce6:	ea 01       	movw	r28, r20
     ce8:	df 01       	movw	r26, r30
     cea:	bd 01       	movw	r22, r26
     cec:	6e 1b       	sub	r22, r30
     cee:	7f 0b       	sbc	r23, r31
     cf0:	68 17       	cp	r22, r24
     cf2:	79 07       	cpc	r23, r25
     cf4:	34 f4       	brge	.+12     	; 0xd02 <_Z8intToStriPci+0x6c>
     cf6:	6c 91       	ld	r22, X
     cf8:	7a 91       	ld	r23, -Y
     cfa:	7d 93       	st	X+, r23
     cfc:	68 83       	st	Y, r22
     cfe:	01 97       	sbiw	r24, 0x01	; 1
     d00:	f4 cf       	rjmp	.-24     	; 0xcea <_Z8intToStriPci+0x54>
     d02:	fa 01       	movw	r30, r20
     d04:	10 82       	st	Z, r1
     d06:	c9 01       	movw	r24, r18
     d08:	df 91       	pop	r29
     d0a:	cf 91       	pop	r28
     d0c:	1f 91       	pop	r17
     d0e:	0f 91       	pop	r16
     d10:	ff 90       	pop	r15
     d12:	ef 90       	pop	r14
     d14:	08 95       	ret

00000d16 <_Z4ftoafPci>:
     d16:	2f 92       	push	r2
     d18:	3f 92       	push	r3
     d1a:	4f 92       	push	r4
     d1c:	5f 92       	push	r5
     d1e:	6f 92       	push	r6
     d20:	7f 92       	push	r7
     d22:	8f 92       	push	r8
     d24:	9f 92       	push	r9
     d26:	af 92       	push	r10
     d28:	bf 92       	push	r11
     d2a:	cf 92       	push	r12
     d2c:	df 92       	push	r13
     d2e:	ef 92       	push	r14
     d30:	ff 92       	push	r15
     d32:	0f 93       	push	r16
     d34:	1f 93       	push	r17
     d36:	cf 93       	push	r28
     d38:	df 93       	push	r29
     d3a:	4b 01       	movw	r8, r22
     d3c:	5c 01       	movw	r10, r24
     d3e:	ea 01       	movw	r28, r20
     d40:	89 01       	movw	r16, r18
     d42:	0e 94 88 11 	call	0x2310	; 0x2310 <__fixsfsi>
     d46:	6b 01       	movw	r12, r22
     d48:	7c 01       	movw	r14, r24
     d4a:	40 e0       	ldi	r20, 0x00	; 0
     d4c:	50 e0       	ldi	r21, 0x00	; 0
     d4e:	be 01       	movw	r22, r28
     d50:	c6 01       	movw	r24, r12
     d52:	0e 94 4b 06 	call	0xc96	; 0xc96 <_Z8intToStriPci>
     d56:	1c 01       	movw	r2, r24
     d58:	01 15       	cp	r16, r1
     d5a:	11 05       	cpc	r17, r1
     d5c:	99 f1       	breq	.+102    	; 0xdc4 <_Z4ftoafPci+0xae>
     d5e:	fe 01       	movw	r30, r28
     d60:	e8 0f       	add	r30, r24
     d62:	f9 1f       	adc	r31, r25
     d64:	8e e2       	ldi	r24, 0x2E	; 46
     d66:	80 83       	st	Z, r24
     d68:	b8 01       	movw	r22, r16
     d6a:	01 2e       	mov	r0, r17
     d6c:	00 0c       	add	r0, r0
     d6e:	88 0b       	sbc	r24, r24
     d70:	99 0b       	sbc	r25, r25
     d72:	0e 94 c0 11 	call	0x2380	; 0x2380 <__floatsisf>
     d76:	9b 01       	movw	r18, r22
     d78:	ac 01       	movw	r20, r24
     d7a:	60 e0       	ldi	r22, 0x00	; 0
     d7c:	70 e0       	ldi	r23, 0x00	; 0
     d7e:	80 e2       	ldi	r24, 0x20	; 32
     d80:	91 e4       	ldi	r25, 0x41	; 65
     d82:	0e 94 e2 12 	call	0x25c4	; 0x25c4 <pow>
     d86:	2b 01       	movw	r4, r22
     d88:	3c 01       	movw	r6, r24
     d8a:	b6 01       	movw	r22, r12
     d8c:	dd 0c       	add	r13, r13
     d8e:	88 0b       	sbc	r24, r24
     d90:	99 0b       	sbc	r25, r25
     d92:	0e 94 c0 11 	call	0x2380	; 0x2380 <__floatsisf>
     d96:	9b 01       	movw	r18, r22
     d98:	ac 01       	movw	r20, r24
     d9a:	c5 01       	movw	r24, r10
     d9c:	b4 01       	movw	r22, r8
     d9e:	0e 94 a4 10 	call	0x2148	; 0x2148 <__subsf3>
     da2:	2f ef       	ldi	r18, 0xFF	; 255
     da4:	22 1a       	sub	r2, r18
     da6:	32 0a       	sbc	r3, r18
     da8:	2c 0e       	add	r2, r28
     daa:	3d 1e       	adc	r3, r29
     dac:	a3 01       	movw	r20, r6
     dae:	92 01       	movw	r18, r4
     db0:	0e 94 75 12 	call	0x24ea	; 0x24ea <__mulsf3>
     db4:	0e 94 88 11 	call	0x2310	; 0x2310 <__fixsfsi>
     db8:	dc 01       	movw	r26, r24
     dba:	cb 01       	movw	r24, r22
     dbc:	a8 01       	movw	r20, r16
     dbe:	b1 01       	movw	r22, r2
     dc0:	0e 94 4b 06 	call	0xc96	; 0xc96 <_Z8intToStriPci>
     dc4:	ce 01       	movw	r24, r28
     dc6:	df 91       	pop	r29
     dc8:	cf 91       	pop	r28
     dca:	1f 91       	pop	r17
     dcc:	0f 91       	pop	r16
     dce:	ff 90       	pop	r15
     dd0:	ef 90       	pop	r14
     dd2:	df 90       	pop	r13
     dd4:	cf 90       	pop	r12
     dd6:	bf 90       	pop	r11
     dd8:	af 90       	pop	r10
     dda:	9f 90       	pop	r9
     ddc:	8f 90       	pop	r8
     dde:	7f 90       	pop	r7
     de0:	6f 90       	pop	r6
     de2:	5f 90       	pop	r5
     de4:	4f 90       	pop	r4
     de6:	3f 90       	pop	r3
     de8:	2f 90       	pop	r2
     dea:	08 95       	ret

00000dec <main>:
     dec:	2f ef       	ldi	r18, 0xFF	; 255
     dee:	8f ef       	ldi	r24, 0xFF	; 255
     df0:	98 e0       	ldi	r25, 0x08	; 8
     df2:	21 50       	subi	r18, 0x01	; 1
     df4:	80 40       	sbci	r24, 0x00	; 0
     df6:	90 40       	sbci	r25, 0x00	; 0
     df8:	e1 f7       	brne	.-8      	; 0xdf2 <main+0x6>
     dfa:	00 c0       	rjmp	.+0      	; 0xdfc <main+0x10>
     dfc:	00 00       	nop
     dfe:	0e 94 73 05 	call	0xae6	; 0xae6 <_Z9Setup_INTv>
     e02:	0e 94 7d 05 	call	0xafa	; 0xafa <_Z10Setup_GPIOv>
     e06:	0e 94 5d 05 	call	0xaba	; 0xaba <_Z10Setup_TIM0v>
     e0a:	0e 94 65 05 	call	0xaca	; 0xaca <_Z10Setup_TIM1v>
     e0e:	88 e6       	ldi	r24, 0x68	; 104
     e10:	90 e0       	ldi	r25, 0x00	; 0
     e12:	0e 94 2a 01 	call	0x254	; 0x254 <_Z15DS1307_ReadTimePh>
     e16:	0e 94 d2 0e 	call	0x1da4	; 0x1da4 <_Z14ST7789_InitSPIv>
     e1a:	0e 94 e0 0e 	call	0x1dc0	; 0x1dc0 <_Z17ST7789_InitST7789v>
     e1e:	60 91 ae 00 	lds	r22, 0x00AE	; 0x8000ae <_ZL5BLACK>
     e22:	70 91 af 00 	lds	r23, 0x00AF	; 0x8000af <_ZL5BLACK+0x1>
     e26:	80 91 b0 00 	lds	r24, 0x00B0	; 0x8000b0 <_ZL5BLACK+0x2>
     e2a:	0e 94 6e 0f 	call	0x1edc	; 0x1edc <_Z17ST7789_FillScreen6colour>
     e2e:	60 e0       	ldi	r22, 0x00	; 0
     e30:	80 e0       	ldi	r24, 0x00	; 0
     e32:	0e 94 5c 0f 	call	0x1eb8	; 0x1eb8 <_Z15ST7789_SetXYposcc>
     e36:	60 90 b1 00 	lds	r6, 0x00B1	; 0x8000b1 <_ZL5WHITE>
     e3a:	70 90 b2 00 	lds	r7, 0x00B2	; 0x8000b2 <_ZL5WHITE+0x1>
     e3e:	80 90 b3 00 	lds	r8, 0x00B3	; 0x8000b3 <_ZL5WHITE+0x2>
     e42:	0e 94 64 01 	call	0x2c8	; 0x2c8 <_Z15Buttons_Handlerv>
     e46:	90 91 0b 06 	lds	r25, 0x060B	; 0x80060b <mode>
     e4a:	80 91 7a 00 	lds	r24, 0x007A	; 0x80007a <update_word>
     e4e:	99 23       	and	r25, r25
     e50:	31 f0       	breq	.+12     	; 0xe5e <main+0x72>
     e52:	88 23       	and	r24, r24
     e54:	09 f4       	brne	.+2      	; 0xe58 <main+0x6c>
     e56:	77 c1       	rjmp	.+750    	; 0x1146 <main+0x35a>
     e58:	10 92 7a 00 	sts	0x007A, r1	; 0x80007a <update_word>
     e5c:	74 c1       	rjmp	.+744    	; 0x1146 <main+0x35a>
     e5e:	88 23       	and	r24, r24
     e60:	09 f4       	brne	.+2      	; 0xe64 <main+0x78>
     e62:	71 c1       	rjmp	.+738    	; 0x1146 <main+0x35a>
     e64:	10 92 7a 00 	sts	0x007A, r1	; 0x80007a <update_word>
     e68:	60 91 69 00 	lds	r22, 0x0069	; 0x800069 <time+0x1>
     e6c:	70 e0       	ldi	r23, 0x00	; 0
     e6e:	80 e0       	ldi	r24, 0x00	; 0
     e70:	90 e0       	ldi	r25, 0x00	; 0
     e72:	0e 94 be 11 	call	0x237c	; 0x237c <__floatunsisf>
     e76:	20 e0       	ldi	r18, 0x00	; 0
     e78:	30 e0       	ldi	r19, 0x00	; 0
     e7a:	40 e7       	ldi	r20, 0x70	; 112
     e7c:	52 e4       	ldi	r21, 0x42	; 66
     e7e:	0e 94 16 11 	call	0x222c	; 0x222c <__divsf3>
     e82:	6b 01       	movw	r12, r22
     e84:	7c 01       	movw	r14, r24
     e86:	60 91 6a 00 	lds	r22, 0x006A	; 0x80006a <time+0x2>
     e8a:	70 e0       	ldi	r23, 0x00	; 0
     e8c:	80 e0       	ldi	r24, 0x00	; 0
     e8e:	90 e0       	ldi	r25, 0x00	; 0
     e90:	0e 94 be 11 	call	0x237c	; 0x237c <__floatunsisf>
     e94:	9b 01       	movw	r18, r22
     e96:	ac 01       	movw	r20, r24
     e98:	c7 01       	movw	r24, r14
     e9a:	b6 01       	movw	r22, r12
     e9c:	0e 94 a5 10 	call	0x214a	; 0x214a <__addsf3>
     ea0:	6b 01       	movw	r12, r22
     ea2:	7c 01       	movw	r14, r24
     ea4:	60 91 68 00 	lds	r22, 0x0068	; 0x800068 <time>
     ea8:	70 e0       	ldi	r23, 0x00	; 0
     eaa:	80 e0       	ldi	r24, 0x00	; 0
     eac:	90 e0       	ldi	r25, 0x00	; 0
     eae:	0e 94 be 11 	call	0x237c	; 0x237c <__floatunsisf>
     eb2:	20 e0       	ldi	r18, 0x00	; 0
     eb4:	30 e0       	ldi	r19, 0x00	; 0
     eb6:	41 e6       	ldi	r20, 0x61	; 97
     eb8:	55 e4       	ldi	r21, 0x45	; 69
     eba:	0e 94 16 11 	call	0x222c	; 0x222c <__divsf3>
     ebe:	9b 01       	movw	r18, r22
     ec0:	ac 01       	movw	r20, r24
     ec2:	c7 01       	movw	r24, r14
     ec4:	b6 01       	movw	r22, r12
     ec6:	0e 94 a5 10 	call	0x214a	; 0x214a <__addsf3>
     eca:	60 93 04 06 	sts	0x0604, r22	; 0x800604 <time_Dec>
     ece:	70 93 05 06 	sts	0x0605, r23	; 0x800605 <time_Dec+0x1>
     ed2:	80 93 06 06 	sts	0x0606, r24	; 0x800606 <time_Dec+0x2>
     ed6:	90 93 07 06 	sts	0x0607, r25	; 0x800607 <time_Dec+0x3>
     eda:	c0 e6       	ldi	r28, 0x60	; 96
     edc:	d0 e0       	ldi	r29, 0x00	; 0
     ede:	04 ef       	ldi	r16, 0xF4	; 244
     ee0:	15 e0       	ldi	r17, 0x05	; 5
     ee2:	69 81       	ldd	r22, Y+1	; 0x01
     ee4:	70 e0       	ldi	r23, 0x00	; 0
     ee6:	80 e0       	ldi	r24, 0x00	; 0
     ee8:	90 e0       	ldi	r25, 0x00	; 0
     eea:	0e 94 be 11 	call	0x237c	; 0x237c <__floatunsisf>
     eee:	20 e0       	ldi	r18, 0x00	; 0
     ef0:	30 e0       	ldi	r19, 0x00	; 0
     ef2:	40 e7       	ldi	r20, 0x70	; 112
     ef4:	52 e4       	ldi	r21, 0x42	; 66
     ef6:	0e 94 16 11 	call	0x222c	; 0x222c <__divsf3>
     efa:	6b 01       	movw	r12, r22
     efc:	7c 01       	movw	r14, r24
     efe:	68 81       	ld	r22, Y
     f00:	70 e0       	ldi	r23, 0x00	; 0
     f02:	80 e0       	ldi	r24, 0x00	; 0
     f04:	90 e0       	ldi	r25, 0x00	; 0
     f06:	0e 94 be 11 	call	0x237c	; 0x237c <__floatunsisf>
     f0a:	9b 01       	movw	r18, r22
     f0c:	ac 01       	movw	r20, r24
     f0e:	c7 01       	movw	r24, r14
     f10:	b6 01       	movw	r22, r12
     f12:	0e 94 a5 10 	call	0x214a	; 0x214a <__addsf3>
     f16:	f8 01       	movw	r30, r16
     f18:	61 93       	st	Z+, r22
     f1a:	71 93       	st	Z+, r23
     f1c:	81 93       	st	Z+, r24
     f1e:	91 93       	st	Z+, r25
     f20:	8f 01       	movw	r16, r30
     f22:	22 96       	adiw	r28, 0x02	; 2
     f24:	88 e6       	ldi	r24, 0x68	; 104
     f26:	90 e0       	ldi	r25, 0x00	; 0
     f28:	8c 17       	cp	r24, r28
     f2a:	9d 07       	cpc	r25, r29
     f2c:	d1 f6       	brne	.-76     	; 0xee2 <main+0xf6>
     f2e:	68 e2       	ldi	r22, 0x28	; 40
     f30:	80 e0       	ldi	r24, 0x00	; 0
     f32:	0e 94 5c 0f 	call	0x1eb8	; 0x1eb8 <_Z15ST7789_SetXYposcc>
     f36:	c0 90 04 06 	lds	r12, 0x0604	; 0x800604 <time_Dec>
     f3a:	d0 90 05 06 	lds	r13, 0x0605	; 0x800605 <time_Dec+0x1>
     f3e:	e0 90 06 06 	lds	r14, 0x0606	; 0x800606 <time_Dec+0x2>
     f42:	f0 90 07 06 	lds	r15, 0x0607	; 0x800607 <time_Dec+0x3>
     f46:	a7 01       	movw	r20, r14
     f48:	96 01       	movw	r18, r12
     f4a:	60 91 f4 05 	lds	r22, 0x05F4	; 0x8005f4 <__data_end>
     f4e:	70 91 f5 05 	lds	r23, 0x05F5	; 0x8005f5 <__data_end+0x1>
     f52:	80 91 f6 05 	lds	r24, 0x05F6	; 0x8005f6 <__data_end+0x2>
     f56:	90 91 f7 05 	lds	r25, 0x05F7	; 0x8005f7 <__data_end+0x3>
     f5a:	0e 94 70 12 	call	0x24e0	; 0x24e0 <__gesf2>
     f5e:	18 16       	cp	r1, r24
     f60:	24 f4       	brge	.+8      	; 0xf6a <main+0x17e>
     f62:	25 e0       	ldi	r18, 0x05	; 5
     f64:	68 2d       	mov	r22, r8
     f66:	a3 01       	movw	r20, r6
     f68:	a5 c0       	rjmp	.+330    	; 0x10b4 <main+0x2c8>
     f6a:	20 91 f8 05 	lds	r18, 0x05F8	; 0x8005f8 <__data_end+0x4>
     f6e:	30 91 f9 05 	lds	r19, 0x05F9	; 0x8005f9 <__data_end+0x5>
     f72:	40 91 fa 05 	lds	r20, 0x05FA	; 0x8005fa <__data_end+0x6>
     f76:	50 91 fb 05 	lds	r21, 0x05FB	; 0x8005fb <__data_end+0x7>
     f7a:	c7 01       	movw	r24, r14
     f7c:	b6 01       	movw	r22, r12
     f7e:	0e 94 11 11 	call	0x2222	; 0x2222 <__cmpsf2>
     f82:	87 ff       	sbrs	r24, 7
     f84:	30 c0       	rjmp	.+96     	; 0xfe6 <main+0x1fa>
     f86:	25 e0       	ldi	r18, 0x05	; 5
     f88:	68 2d       	mov	r22, r8
     f8a:	a3 01       	movw	r20, r6
     f8c:	8b e8       	ldi	r24, 0x8B	; 139
     f8e:	90 e0       	ldi	r25, 0x00	; 0
     f90:	0e 94 57 10 	call	0x20ae	; 0x20ae <_Z18ST7789_PrintStringPc6colourc>
     f94:	20 90 f4 05 	lds	r2, 0x05F4	; 0x8005f4 <__data_end>
     f98:	30 90 f5 05 	lds	r3, 0x05F5	; 0x8005f5 <__data_end+0x1>
     f9c:	40 90 f6 05 	lds	r4, 0x05F6	; 0x8005f6 <__data_end+0x2>
     fa0:	50 90 f7 05 	lds	r5, 0x05F7	; 0x8005f7 <__data_end+0x3>
     fa4:	a2 01       	movw	r20, r4
     fa6:	91 01       	movw	r18, r2
     fa8:	60 91 04 06 	lds	r22, 0x0604	; 0x800604 <time_Dec>
     fac:	70 91 05 06 	lds	r23, 0x0605	; 0x800605 <time_Dec+0x1>
     fb0:	80 91 06 06 	lds	r24, 0x0606	; 0x800606 <time_Dec+0x2>
     fb4:	90 91 07 06 	lds	r25, 0x0607	; 0x800607 <time_Dec+0x3>
     fb8:	0e 94 a4 10 	call	0x2148	; 0x2148 <__subsf3>
     fbc:	6b 01       	movw	r12, r22
     fbe:	7c 01       	movw	r14, r24
     fc0:	a2 01       	movw	r20, r4
     fc2:	91 01       	movw	r18, r2
     fc4:	60 91 f8 05 	lds	r22, 0x05F8	; 0x8005f8 <__data_end+0x4>
     fc8:	70 91 f9 05 	lds	r23, 0x05F9	; 0x8005f9 <__data_end+0x5>
     fcc:	80 91 fa 05 	lds	r24, 0x05FA	; 0x8005fa <__data_end+0x6>
     fd0:	90 91 fb 05 	lds	r25, 0x05FB	; 0x8005fb <__data_end+0x7>
     fd4:	0e 94 a4 10 	call	0x2148	; 0x2148 <__subsf3>
     fd8:	9b 01       	movw	r18, r22
     fda:	ac 01       	movw	r20, r24
     fdc:	c7 01       	movw	r24, r14
     fde:	b6 01       	movw	r22, r12
     fe0:	0e 94 16 11 	call	0x222c	; 0x222c <__divsf3>
     fe4:	5d c0       	rjmp	.+186    	; 0x10a0 <main+0x2b4>
     fe6:	20 91 fc 05 	lds	r18, 0x05FC	; 0x8005fc <__data_end+0x8>
     fea:	30 91 fd 05 	lds	r19, 0x05FD	; 0x8005fd <__data_end+0x9>
     fee:	40 91 fe 05 	lds	r20, 0x05FE	; 0x8005fe <__data_end+0xa>
     ff2:	50 91 ff 05 	lds	r21, 0x05FF	; 0x8005ff <__data_end+0xb>
     ff6:	c7 01       	movw	r24, r14
     ff8:	b6 01       	movw	r22, r12
     ffa:	0e 94 11 11 	call	0x2222	; 0x2222 <__cmpsf2>
     ffe:	87 ff       	sbrs	r24, 7
    1000:	0a c0       	rjmp	.+20     	; 0x1016 <main+0x22a>
    1002:	25 e0       	ldi	r18, 0x05	; 5
    1004:	68 2d       	mov	r22, r8
    1006:	a3 01       	movw	r20, r6
    1008:	84 e9       	ldi	r24, 0x94	; 148
    100a:	90 e0       	ldi	r25, 0x00	; 0
    100c:	0e 94 57 10 	call	0x20ae	; 0x20ae <_Z18ST7789_PrintStringPc6colourc>
    1010:	9f ef       	ldi	r25, 0xFF	; 255
    1012:	9c bf       	out	0x3c, r25	; 60
    1014:	54 c0       	rjmp	.+168    	; 0x10be <main+0x2d2>
    1016:	20 91 00 06 	lds	r18, 0x0600	; 0x800600 <__data_end+0xc>
    101a:	30 91 01 06 	lds	r19, 0x0601	; 0x800601 <__data_end+0xd>
    101e:	40 91 02 06 	lds	r20, 0x0602	; 0x800602 <__data_end+0xe>
    1022:	50 91 03 06 	lds	r21, 0x0603	; 0x800603 <__data_end+0xf>
    1026:	c7 01       	movw	r24, r14
    1028:	b6 01       	movw	r22, r12
    102a:	0e 94 11 11 	call	0x2222	; 0x2222 <__cmpsf2>
    102e:	25 e0       	ldi	r18, 0x05	; 5
    1030:	68 2d       	mov	r22, r8
    1032:	a3 01       	movw	r20, r6
    1034:	87 ff       	sbrs	r24, 7
    1036:	3e c0       	rjmp	.+124    	; 0x10b4 <main+0x2c8>
    1038:	8d e9       	ldi	r24, 0x9D	; 157
    103a:	90 e0       	ldi	r25, 0x00	; 0
    103c:	0e 94 57 10 	call	0x20ae	; 0x20ae <_Z18ST7789_PrintStringPc6colourc>
    1040:	c0 90 fc 05 	lds	r12, 0x05FC	; 0x8005fc <__data_end+0x8>
    1044:	d0 90 fd 05 	lds	r13, 0x05FD	; 0x8005fd <__data_end+0x9>
    1048:	e0 90 fe 05 	lds	r14, 0x05FE	; 0x8005fe <__data_end+0xa>
    104c:	f0 90 ff 05 	lds	r15, 0x05FF	; 0x8005ff <__data_end+0xb>
    1050:	a7 01       	movw	r20, r14
    1052:	96 01       	movw	r18, r12
    1054:	60 91 04 06 	lds	r22, 0x0604	; 0x800604 <time_Dec>
    1058:	70 91 05 06 	lds	r23, 0x0605	; 0x800605 <time_Dec+0x1>
    105c:	80 91 06 06 	lds	r24, 0x0606	; 0x800606 <time_Dec+0x2>
    1060:	90 91 07 06 	lds	r25, 0x0607	; 0x800607 <time_Dec+0x3>
    1064:	0e 94 a4 10 	call	0x2148	; 0x2148 <__subsf3>
    1068:	1b 01       	movw	r2, r22
    106a:	2c 01       	movw	r4, r24
    106c:	a7 01       	movw	r20, r14
    106e:	96 01       	movw	r18, r12
    1070:	60 91 00 06 	lds	r22, 0x0600	; 0x800600 <__data_end+0xc>
    1074:	70 91 01 06 	lds	r23, 0x0601	; 0x800601 <__data_end+0xd>
    1078:	80 91 02 06 	lds	r24, 0x0602	; 0x800602 <__data_end+0xe>
    107c:	90 91 03 06 	lds	r25, 0x0603	; 0x800603 <__data_end+0xf>
    1080:	0e 94 a4 10 	call	0x2148	; 0x2148 <__subsf3>
    1084:	9b 01       	movw	r18, r22
    1086:	ac 01       	movw	r20, r24
    1088:	c2 01       	movw	r24, r4
    108a:	b1 01       	movw	r22, r2
    108c:	0e 94 16 11 	call	0x222c	; 0x222c <__divsf3>
    1090:	9b 01       	movw	r18, r22
    1092:	ac 01       	movw	r20, r24
    1094:	60 e0       	ldi	r22, 0x00	; 0
    1096:	70 e0       	ldi	r23, 0x00	; 0
    1098:	80 e8       	ldi	r24, 0x80	; 128
    109a:	9f e3       	ldi	r25, 0x3F	; 63
    109c:	0e 94 a4 10 	call	0x2148	; 0x2148 <__subsf3>
    10a0:	20 e0       	ldi	r18, 0x00	; 0
    10a2:	30 e0       	ldi	r19, 0x00	; 0
    10a4:	4f e7       	ldi	r20, 0x7F	; 127
    10a6:	53 e4       	ldi	r21, 0x43	; 67
    10a8:	0e 94 75 12 	call	0x24ea	; 0x24ea <__mulsf3>
    10ac:	0e 94 8f 11 	call	0x231e	; 0x231e <__fixunssfsi>
    10b0:	6c bf       	out	0x3c, r22	; 60
    10b2:	05 c0       	rjmp	.+10     	; 0x10be <main+0x2d2>
    10b4:	86 ea       	ldi	r24, 0xA6	; 166
    10b6:	90 e0       	ldi	r25, 0x00	; 0
    10b8:	0e 94 57 10 	call	0x20ae	; 0x20ae <_Z18ST7789_PrintStringPc6colourc>
    10bc:	1c be       	out	0x3c, r1	; 60
    10be:	6a e5       	ldi	r22, 0x5A	; 90
    10c0:	80 e0       	ldi	r24, 0x00	; 0
    10c2:	0e 94 5c 0f 	call	0x1eb8	; 0x1eb8 <_Z15ST7789_SetXYposcc>
    10c6:	23 e0       	ldi	r18, 0x03	; 3
    10c8:	68 2d       	mov	r22, r8
    10ca:	a3 01       	movw	r20, r6
    10cc:	8d e7       	ldi	r24, 0x7D	; 125
    10ce:	90 e0       	ldi	r25, 0x00	; 0
    10d0:	0e 94 57 10 	call	0x20ae	; 0x20ae <_Z18ST7789_PrintStringPc6colourc>
    10d4:	6c b7       	in	r22, 0x3c	; 60
    10d6:	70 e0       	ldi	r23, 0x00	; 0
    10d8:	80 e0       	ldi	r24, 0x00	; 0
    10da:	90 e0       	ldi	r25, 0x00	; 0
    10dc:	0e 94 be 11 	call	0x237c	; 0x237c <__floatunsisf>
    10e0:	23 e3       	ldi	r18, 0x33	; 51
    10e2:	33 e3       	ldi	r19, 0x33	; 51
    10e4:	43 e2       	ldi	r20, 0x23	; 35
    10e6:	50 e4       	ldi	r21, 0x40	; 64
    10e8:	0e 94 16 11 	call	0x222c	; 0x222c <__divsf3>
    10ec:	20 e0       	ldi	r18, 0x00	; 0
    10ee:	30 e0       	ldi	r19, 0x00	; 0
    10f0:	40 e2       	ldi	r20, 0x20	; 32
    10f2:	51 e4       	ldi	r21, 0x41	; 65
    10f4:	0e 94 11 11 	call	0x2222	; 0x2222 <__cmpsf2>
    10f8:	87 ff       	sbrs	r24, 7
    10fa:	07 c0       	rjmp	.+14     	; 0x110a <main+0x31e>
    10fc:	23 e0       	ldi	r18, 0x03	; 3
    10fe:	68 2d       	mov	r22, r8
    1100:	a3 01       	movw	r20, r6
    1102:	82 e8       	ldi	r24, 0x82	; 130
    1104:	90 e0       	ldi	r25, 0x00	; 0
    1106:	0e 94 57 10 	call	0x20ae	; 0x20ae <_Z18ST7789_PrintStringPc6colourc>
    110a:	6c b7       	in	r22, 0x3c	; 60
    110c:	70 e0       	ldi	r23, 0x00	; 0
    110e:	80 e0       	ldi	r24, 0x00	; 0
    1110:	90 e0       	ldi	r25, 0x00	; 0
    1112:	0e 94 be 11 	call	0x237c	; 0x237c <__floatunsisf>
    1116:	23 e3       	ldi	r18, 0x33	; 51
    1118:	33 e3       	ldi	r19, 0x33	; 51
    111a:	43 e2       	ldi	r20, 0x23	; 35
    111c:	50 e4       	ldi	r21, 0x40	; 64
    111e:	0e 94 16 11 	call	0x222c	; 0x222c <__divsf3>
    1122:	22 e0       	ldi	r18, 0x02	; 2
    1124:	30 e0       	ldi	r19, 0x00	; 0
    1126:	4f e0       	ldi	r20, 0x0F	; 15
    1128:	56 e0       	ldi	r21, 0x06	; 6
    112a:	0e 94 8b 06 	call	0xd16	; 0xd16 <_Z4ftoafPci>
    112e:	23 e0       	ldi	r18, 0x03	; 3
    1130:	68 2d       	mov	r22, r8
    1132:	a3 01       	movw	r20, r6
    1134:	0e 94 57 10 	call	0x20ae	; 0x20ae <_Z18ST7789_PrintStringPc6colourc>
    1138:	23 e0       	ldi	r18, 0x03	; 3
    113a:	68 2d       	mov	r22, r8
    113c:	a3 01       	movw	r20, r6
    113e:	84 e8       	ldi	r24, 0x84	; 132
    1140:	90 e0       	ldi	r25, 0x00	; 0
    1142:	0e 94 57 10 	call	0x20ae	; 0x20ae <_Z18ST7789_PrintStringPc6colourc>
    1146:	90 91 0b 06 	lds	r25, 0x060B	; 0x80060b <mode>
    114a:	80 91 7b 00 	lds	r24, 0x007B	; 0x80007b <update_all>
    114e:	99 23       	and	r25, r25
    1150:	31 f0       	breq	.+12     	; 0x115e <main+0x372>
    1152:	88 23       	and	r24, r24
    1154:	09 f4       	brne	.+2      	; 0x1158 <main+0x36c>
    1156:	a2 c0       	rjmp	.+324    	; 0x129c <main+0x4b0>
    1158:	10 92 7b 00 	sts	0x007B, r1	; 0x80007b <update_all>
    115c:	9f c0       	rjmp	.+318    	; 0x129c <main+0x4b0>
    115e:	88 23       	and	r24, r24
    1160:	09 f4       	brne	.+2      	; 0x1164 <main+0x378>
    1162:	a0 c0       	rjmp	.+320    	; 0x12a4 <main+0x4b8>
    1164:	10 92 7b 00 	sts	0x007B, r1	; 0x80007b <update_all>
    1168:	60 e0       	ldi	r22, 0x00	; 0
    116a:	8c e3       	ldi	r24, 0x3C	; 60
    116c:	0e 94 5c 0f 	call	0x1eb8	; 0x1eb8 <_Z15ST7789_SetXYposcc>
    1170:	25 e0       	ldi	r18, 0x05	; 5
    1172:	68 2d       	mov	r22, r8
    1174:	a3 01       	movw	r20, r6
    1176:	88 e8       	ldi	r24, 0x88	; 136
    1178:	90 e0       	ldi	r25, 0x00	; 0
    117a:	0e 94 57 10 	call	0x20ae	; 0x20ae <_Z18ST7789_PrintStringPc6colourc>
    117e:	60 e0       	ldi	r22, 0x00	; 0
    1180:	86 e9       	ldi	r24, 0x96	; 150
    1182:	0e 94 5c 0f 	call	0x1eb8	; 0x1eb8 <_Z15ST7789_SetXYposcc>
    1186:	25 e0       	ldi	r18, 0x05	; 5
    1188:	68 2d       	mov	r22, r8
    118a:	a3 01       	movw	r20, r6
    118c:	88 e8       	ldi	r24, 0x88	; 136
    118e:	90 e0       	ldi	r25, 0x00	; 0
    1190:	0e 94 57 10 	call	0x20ae	; 0x20ae <_Z18ST7789_PrintStringPc6colourc>
    1194:	0b e6       	ldi	r16, 0x6B	; 107
    1196:	10 e0       	ldi	r17, 0x00	; 0
    1198:	c0 e0       	ldi	r28, 0x00	; 0
    119a:	60 e0       	ldi	r22, 0x00	; 0
    119c:	8c 2f       	mov	r24, r28
    119e:	0e 94 5c 0f 	call	0x1eb8	; 0x1eb8 <_Z15ST7789_SetXYposcc>
    11a2:	f8 01       	movw	r30, r16
    11a4:	82 91       	ld	r24, -Z
    11a6:	8f 01       	movw	r16, r30
    11a8:	8a 30       	cpi	r24, 0x0A	; 10
    11aa:	38 f4       	brcc	.+14     	; 0x11ba <main+0x3ce>
    11ac:	25 e0       	ldi	r18, 0x05	; 5
    11ae:	68 2d       	mov	r22, r8
    11b0:	a3 01       	movw	r20, r6
    11b2:	82 e8       	ldi	r24, 0x82	; 130
    11b4:	90 e0       	ldi	r25, 0x00	; 0
    11b6:	0e 94 57 10 	call	0x20ae	; 0x20ae <_Z18ST7789_PrintStringPc6colourc>
    11ba:	f8 01       	movw	r30, r16
    11bc:	80 81       	ld	r24, Z
    11be:	4a e0       	ldi	r20, 0x0A	; 10
    11c0:	50 e0       	ldi	r21, 0x00	; 0
    11c2:	6f e0       	ldi	r22, 0x0F	; 15
    11c4:	76 e0       	ldi	r23, 0x06	; 6
    11c6:	90 e0       	ldi	r25, 0x00	; 0
    11c8:	0e 94 67 14 	call	0x28ce	; 0x28ce <itoa>
    11cc:	25 e0       	ldi	r18, 0x05	; 5
    11ce:	68 2d       	mov	r22, r8
    11d0:	a3 01       	movw	r20, r6
    11d2:	0e 94 57 10 	call	0x20ae	; 0x20ae <_Z18ST7789_PrintStringPc6colourc>
    11d6:	c6 5a       	subi	r28, 0xA6	; 166
    11d8:	ce 30       	cpi	r28, 0x0E	; 14
    11da:	f9 f6       	brne	.-66     	; 0x119a <main+0x3ae>
    11dc:	c8 e8       	ldi	r28, 0x88	; 136
    11de:	6c 2f       	mov	r22, r28
    11e0:	84 e2       	ldi	r24, 0x24	; 36
    11e2:	0e 94 5c 0f 	call	0x1eb8	; 0x1eb8 <_Z15ST7789_SetXYposcc>
    11e6:	23 e0       	ldi	r18, 0x03	; 3
    11e8:	68 2d       	mov	r22, r8
    11ea:	a3 01       	movw	r20, r6
    11ec:	88 e8       	ldi	r24, 0x88	; 136
    11ee:	90 e0       	ldi	r25, 0x00	; 0
    11f0:	0e 94 57 10 	call	0x20ae	; 0x20ae <_Z18ST7789_PrintStringPc6colourc>
    11f4:	c6 5e       	subi	r28, 0xE6	; 230
    11f6:	c0 3f       	cpi	r28, 0xF0	; 240
    11f8:	91 f7       	brne	.-28     	; 0x11de <main+0x3f2>
    11fa:	80 e6       	ldi	r24, 0x60	; 96
    11fc:	e8 2e       	mov	r14, r24
    11fe:	80 e0       	ldi	r24, 0x00	; 0
    1200:	f8 2e       	mov	r15, r24
    1202:	98 e8       	ldi	r25, 0x88	; 136
    1204:	99 2e       	mov	r9, r25
    1206:	c0 e0       	ldi	r28, 0x00	; 0
    1208:	d0 e0       	ldi	r29, 0x00	; 0
    120a:	87 01       	movw	r16, r14
    120c:	51 2c       	mov	r5, r1
    120e:	69 2d       	mov	r22, r9
    1210:	85 2d       	mov	r24, r5
    1212:	0e 94 5c 0f 	call	0x1eb8	; 0x1eb8 <_Z15ST7789_SetXYposcc>
    1216:	58 01       	movw	r10, r16
    1218:	f8 01       	movw	r30, r16
    121a:	80 81       	ld	r24, Z
    121c:	8a 30       	cpi	r24, 0x0A	; 10
    121e:	38 f4       	brcc	.+14     	; 0x122e <main+0x442>
    1220:	23 e0       	ldi	r18, 0x03	; 3
    1222:	68 2d       	mov	r22, r8
    1224:	a3 01       	movw	r20, r6
    1226:	82 e8       	ldi	r24, 0x82	; 130
    1228:	90 e0       	ldi	r25, 0x00	; 0
    122a:	0e 94 57 10 	call	0x20ae	; 0x20ae <_Z18ST7789_PrintStringPc6colourc>
    122e:	0f 5f       	subi	r16, 0xFF	; 255
    1230:	1f 4f       	sbci	r17, 0xFF	; 255
    1232:	f5 01       	movw	r30, r10
    1234:	80 81       	ld	r24, Z
    1236:	4a e0       	ldi	r20, 0x0A	; 10
    1238:	50 e0       	ldi	r21, 0x00	; 0
    123a:	6f e0       	ldi	r22, 0x0F	; 15
    123c:	76 e0       	ldi	r23, 0x06	; 6
    123e:	90 e0       	ldi	r25, 0x00	; 0
    1240:	0e 94 67 14 	call	0x28ce	; 0x28ce <itoa>
    1244:	23 e0       	ldi	r18, 0x03	; 3
    1246:	68 2d       	mov	r22, r8
    1248:	a3 01       	movw	r20, r6
    124a:	0e 94 57 10 	call	0x20ae	; 0x20ae <_Z18ST7789_PrintStringPc6colourc>
    124e:	f6 e3       	ldi	r31, 0x36	; 54
    1250:	5f 0e       	add	r5, r31
    1252:	2c e6       	ldi	r18, 0x6C	; 108
    1254:	52 12       	cpse	r5, r18
    1256:	db cf       	rjmp	.-74     	; 0x120e <main+0x422>
    1258:	23 e0       	ldi	r18, 0x03	; 3
    125a:	68 2d       	mov	r22, r8
    125c:	a3 01       	movw	r20, r6
    125e:	c2 30       	cpi	r28, 0x02	; 2
    1260:	d1 05       	cpc	r29, r1
    1262:	61 f0       	breq	.+24     	; 0x127c <main+0x490>
    1264:	c3 30       	cpi	r28, 0x03	; 3
    1266:	d1 05       	cpc	r29, r1
    1268:	61 f0       	breq	.+24     	; 0x1282 <main+0x496>
    126a:	c1 30       	cpi	r28, 0x01	; 1
    126c:	d1 05       	cpc	r29, r1
    126e:	19 f0       	breq	.+6      	; 0x1276 <main+0x48a>
    1270:	8a e8       	ldi	r24, 0x8A	; 138
    1272:	90 e0       	ldi	r25, 0x00	; 0
    1274:	08 c0       	rjmp	.+16     	; 0x1286 <main+0x49a>
    1276:	83 e9       	ldi	r24, 0x93	; 147
    1278:	90 e0       	ldi	r25, 0x00	; 0
    127a:	05 c0       	rjmp	.+10     	; 0x1286 <main+0x49a>
    127c:	8c e9       	ldi	r24, 0x9C	; 156
    127e:	90 e0       	ldi	r25, 0x00	; 0
    1280:	02 c0       	rjmp	.+4      	; 0x1286 <main+0x49a>
    1282:	85 ea       	ldi	r24, 0xA5	; 165
    1284:	90 e0       	ldi	r25, 0x00	; 0
    1286:	0e 94 57 10 	call	0x20ae	; 0x20ae <_Z18ST7789_PrintStringPc6colourc>
    128a:	21 96       	adiw	r28, 0x01	; 1
    128c:	82 e0       	ldi	r24, 0x02	; 2
    128e:	e8 0e       	add	r14, r24
    1290:	f1 1c       	adc	r15, r1
    1292:	9a e1       	ldi	r25, 0x1A	; 26
    1294:	99 0e       	add	r9, r25
    1296:	e0 ef       	ldi	r30, 0xF0	; 240
    1298:	9e 12       	cpse	r9, r30
    129a:	b7 cf       	rjmp	.-146    	; 0x120a <main+0x41e>
    129c:	80 91 0b 06 	lds	r24, 0x060B	; 0x80060b <mode>
    12a0:	81 30       	cpi	r24, 0x01	; 1
    12a2:	29 f1       	breq	.+74     	; 0x12ee <main+0x502>
    12a4:	80 91 79 00 	lds	r24, 0x0079	; 0x800079 <update_second>
    12a8:	88 23       	and	r24, r24
    12aa:	09 f4       	brne	.+2      	; 0x12ae <main+0x4c2>
    12ac:	4a c0       	rjmp	.+148    	; 0x1342 <main+0x556>
    12ae:	10 92 79 00 	sts	0x0079, r1	; 0x800079 <update_second>
    12b2:	60 e0       	ldi	r22, 0x00	; 0
    12b4:	84 eb       	ldi	r24, 0xB4	; 180
    12b6:	0e 94 5c 0f 	call	0x1eb8	; 0x1eb8 <_Z15ST7789_SetXYposcc>
    12ba:	80 91 68 00 	lds	r24, 0x0068	; 0x800068 <time>
    12be:	8a 30       	cpi	r24, 0x0A	; 10
    12c0:	38 f4       	brcc	.+14     	; 0x12d0 <main+0x4e4>
    12c2:	25 e0       	ldi	r18, 0x05	; 5
    12c4:	68 2d       	mov	r22, r8
    12c6:	a3 01       	movw	r20, r6
    12c8:	82 e8       	ldi	r24, 0x82	; 130
    12ca:	90 e0       	ldi	r25, 0x00	; 0
    12cc:	0e 94 57 10 	call	0x20ae	; 0x20ae <_Z18ST7789_PrintStringPc6colourc>
    12d0:	80 91 68 00 	lds	r24, 0x0068	; 0x800068 <time>
    12d4:	4a e0       	ldi	r20, 0x0A	; 10
    12d6:	50 e0       	ldi	r21, 0x00	; 0
    12d8:	6f e0       	ldi	r22, 0x0F	; 15
    12da:	76 e0       	ldi	r23, 0x06	; 6
    12dc:	90 e0       	ldi	r25, 0x00	; 0
    12de:	0e 94 67 14 	call	0x28ce	; 0x28ce <itoa>
    12e2:	25 e0       	ldi	r18, 0x05	; 5
    12e4:	68 2d       	mov	r22, r8
    12e6:	a3 01       	movw	r20, r6
    12e8:	0e 94 57 10 	call	0x20ae	; 0x20ae <_Z18ST7789_PrintStringPc6colourc>
    12ec:	2a c0       	rjmp	.+84     	; 0x1342 <main+0x556>
    12ee:	80 91 79 00 	lds	r24, 0x0079	; 0x800079 <update_second>
    12f2:	88 23       	and	r24, r24
    12f4:	51 f1       	breq	.+84     	; 0x134a <main+0x55e>
    12f6:	10 92 79 00 	sts	0x0079, r1	; 0x800079 <update_second>
    12fa:	60 e0       	ldi	r22, 0x00	; 0
    12fc:	84 eb       	ldi	r24, 0xB4	; 180
    12fe:	0e 94 5c 0f 	call	0x1eb8	; 0x1eb8 <_Z15ST7789_SetXYposcc>
    1302:	80 91 08 06 	lds	r24, 0x0608	; 0x800608 <time_temp>
    1306:	8a 30       	cpi	r24, 0x0A	; 10
    1308:	40 f4       	brcc	.+16     	; 0x131a <main+0x52e>
    130a:	25 e0       	ldi	r18, 0x05	; 5
    130c:	4f e1       	ldi	r20, 0x1F	; 31
    130e:	50 e0       	ldi	r21, 0x00	; 0
    1310:	60 e0       	ldi	r22, 0x00	; 0
    1312:	82 e8       	ldi	r24, 0x82	; 130
    1314:	90 e0       	ldi	r25, 0x00	; 0
    1316:	0e 94 57 10 	call	0x20ae	; 0x20ae <_Z18ST7789_PrintStringPc6colourc>
    131a:	80 91 08 06 	lds	r24, 0x0608	; 0x800608 <time_temp>
    131e:	4a e0       	ldi	r20, 0x0A	; 10
    1320:	50 e0       	ldi	r21, 0x00	; 0
    1322:	6f e0       	ldi	r22, 0x0F	; 15
    1324:	76 e0       	ldi	r23, 0x06	; 6
    1326:	90 e0       	ldi	r25, 0x00	; 0
    1328:	0e 94 67 14 	call	0x28ce	; 0x28ce <itoa>
    132c:	25 e0       	ldi	r18, 0x05	; 5
    132e:	4f e1       	ldi	r20, 0x1F	; 31
    1330:	50 e0       	ldi	r21, 0x00	; 0
    1332:	60 e0       	ldi	r22, 0x00	; 0
    1334:	0e 94 57 10 	call	0x20ae	; 0x20ae <_Z18ST7789_PrintStringPc6colourc>
    1338:	80 91 0e 06 	lds	r24, 0x060E	; 0x80060e <update_clock>
    133c:	81 11       	cpse	r24, r1
    133e:	10 92 0e 06 	sts	0x060E, r1	; 0x80060e <update_clock>
    1342:	80 91 0b 06 	lds	r24, 0x060B	; 0x80060b <mode>
    1346:	82 30       	cpi	r24, 0x02	; 2
    1348:	c9 f0       	breq	.+50     	; 0x137c <main+0x590>
    134a:	80 91 78 00 	lds	r24, 0x0078	; 0x800078 <update_minute>
    134e:	88 23       	and	r24, r24
    1350:	09 f4       	brne	.+2      	; 0x1354 <main+0x568>
    1352:	5d c0       	rjmp	.+186    	; 0x140e <main+0x622>
    1354:	10 92 78 00 	sts	0x0078, r1	; 0x800078 <update_minute>
    1358:	60 e0       	ldi	r22, 0x00	; 0
    135a:	8a e5       	ldi	r24, 0x5A	; 90
    135c:	0e 94 5c 0f 	call	0x1eb8	; 0x1eb8 <_Z15ST7789_SetXYposcc>
    1360:	80 91 69 00 	lds	r24, 0x0069	; 0x800069 <time+0x1>
    1364:	8a 30       	cpi	r24, 0x0A	; 10
    1366:	38 f4       	brcc	.+14     	; 0x1376 <main+0x58a>
    1368:	25 e0       	ldi	r18, 0x05	; 5
    136a:	68 2d       	mov	r22, r8
    136c:	a3 01       	movw	r20, r6
    136e:	82 e8       	ldi	r24, 0x82	; 130
    1370:	90 e0       	ldi	r25, 0x00	; 0
    1372:	0e 94 57 10 	call	0x20ae	; 0x20ae <_Z18ST7789_PrintStringPc6colourc>
    1376:	80 91 69 00 	lds	r24, 0x0069	; 0x800069 <time+0x1>
    137a:	3d c0       	rjmp	.+122    	; 0x13f6 <main+0x60a>
    137c:	80 91 78 00 	lds	r24, 0x0078	; 0x800078 <update_minute>
    1380:	88 23       	and	r24, r24
    1382:	09 f4       	brne	.+2      	; 0x1386 <main+0x59a>
    1384:	48 c0       	rjmp	.+144    	; 0x1416 <main+0x62a>
    1386:	10 92 78 00 	sts	0x0078, r1	; 0x800078 <update_minute>
    138a:	60 e0       	ldi	r22, 0x00	; 0
    138c:	8a e5       	ldi	r24, 0x5A	; 90
    138e:	0e 94 5c 0f 	call	0x1eb8	; 0x1eb8 <_Z15ST7789_SetXYposcc>
    1392:	80 91 09 06 	lds	r24, 0x0609	; 0x800609 <time_temp+0x1>
    1396:	8a 30       	cpi	r24, 0x0A	; 10
    1398:	40 f4       	brcc	.+16     	; 0x13aa <main+0x5be>
    139a:	25 e0       	ldi	r18, 0x05	; 5
    139c:	4f e1       	ldi	r20, 0x1F	; 31
    139e:	50 e0       	ldi	r21, 0x00	; 0
    13a0:	60 e0       	ldi	r22, 0x00	; 0
    13a2:	82 e8       	ldi	r24, 0x82	; 130
    13a4:	90 e0       	ldi	r25, 0x00	; 0
    13a6:	0e 94 57 10 	call	0x20ae	; 0x20ae <_Z18ST7789_PrintStringPc6colourc>
    13aa:	80 91 09 06 	lds	r24, 0x0609	; 0x800609 <time_temp+0x1>
    13ae:	4a e0       	ldi	r20, 0x0A	; 10
    13b0:	50 e0       	ldi	r21, 0x00	; 0
    13b2:	6f e0       	ldi	r22, 0x0F	; 15
    13b4:	76 e0       	ldi	r23, 0x06	; 6
    13b6:	90 e0       	ldi	r25, 0x00	; 0
    13b8:	0e 94 67 14 	call	0x28ce	; 0x28ce <itoa>
    13bc:	25 e0       	ldi	r18, 0x05	; 5
    13be:	4f e1       	ldi	r20, 0x1F	; 31
    13c0:	50 e0       	ldi	r21, 0x00	; 0
    13c2:	60 e0       	ldi	r22, 0x00	; 0
    13c4:	0e 94 57 10 	call	0x20ae	; 0x20ae <_Z18ST7789_PrintStringPc6colourc>
    13c8:	80 91 0e 06 	lds	r24, 0x060E	; 0x80060e <update_clock>
    13cc:	88 23       	and	r24, r24
    13ce:	f9 f0       	breq	.+62     	; 0x140e <main+0x622>
    13d0:	10 92 0e 06 	sts	0x060E, r1	; 0x80060e <update_clock>
    13d4:	60 e0       	ldi	r22, 0x00	; 0
    13d6:	84 eb       	ldi	r24, 0xB4	; 180
    13d8:	0e 94 5c 0f 	call	0x1eb8	; 0x1eb8 <_Z15ST7789_SetXYposcc>
    13dc:	80 91 08 06 	lds	r24, 0x0608	; 0x800608 <time_temp>
    13e0:	8a 30       	cpi	r24, 0x0A	; 10
    13e2:	38 f4       	brcc	.+14     	; 0x13f2 <main+0x606>
    13e4:	25 e0       	ldi	r18, 0x05	; 5
    13e6:	68 2d       	mov	r22, r8
    13e8:	a3 01       	movw	r20, r6
    13ea:	82 e8       	ldi	r24, 0x82	; 130
    13ec:	90 e0       	ldi	r25, 0x00	; 0
    13ee:	0e 94 57 10 	call	0x20ae	; 0x20ae <_Z18ST7789_PrintStringPc6colourc>
    13f2:	80 91 08 06 	lds	r24, 0x0608	; 0x800608 <time_temp>
    13f6:	4a e0       	ldi	r20, 0x0A	; 10
    13f8:	50 e0       	ldi	r21, 0x00	; 0
    13fa:	6f e0       	ldi	r22, 0x0F	; 15
    13fc:	76 e0       	ldi	r23, 0x06	; 6
    13fe:	90 e0       	ldi	r25, 0x00	; 0
    1400:	0e 94 67 14 	call	0x28ce	; 0x28ce <itoa>
    1404:	25 e0       	ldi	r18, 0x05	; 5
    1406:	68 2d       	mov	r22, r8
    1408:	a3 01       	movw	r20, r6
    140a:	0e 94 57 10 	call	0x20ae	; 0x20ae <_Z18ST7789_PrintStringPc6colourc>
    140e:	80 91 0b 06 	lds	r24, 0x060B	; 0x80060b <mode>
    1412:	83 30       	cpi	r24, 0x03	; 3
    1414:	c9 f0       	breq	.+50     	; 0x1448 <main+0x65c>
    1416:	80 91 77 00 	lds	r24, 0x0077	; 0x800077 <update_hour>
    141a:	88 23       	and	r24, r24
    141c:	09 f4       	brne	.+2      	; 0x1420 <main+0x634>
    141e:	5d c0       	rjmp	.+186    	; 0x14da <main+0x6ee>
    1420:	10 92 77 00 	sts	0x0077, r1	; 0x800077 <update_hour>
    1424:	60 e0       	ldi	r22, 0x00	; 0
    1426:	80 e0       	ldi	r24, 0x00	; 0
    1428:	0e 94 5c 0f 	call	0x1eb8	; 0x1eb8 <_Z15ST7789_SetXYposcc>
    142c:	80 91 6a 00 	lds	r24, 0x006A	; 0x80006a <time+0x2>
    1430:	8a 30       	cpi	r24, 0x0A	; 10
    1432:	38 f4       	brcc	.+14     	; 0x1442 <main+0x656>
    1434:	25 e0       	ldi	r18, 0x05	; 5
    1436:	68 2d       	mov	r22, r8
    1438:	a3 01       	movw	r20, r6
    143a:	82 e8       	ldi	r24, 0x82	; 130
    143c:	90 e0       	ldi	r25, 0x00	; 0
    143e:	0e 94 57 10 	call	0x20ae	; 0x20ae <_Z18ST7789_PrintStringPc6colourc>
    1442:	80 91 6a 00 	lds	r24, 0x006A	; 0x80006a <time+0x2>
    1446:	3d c0       	rjmp	.+122    	; 0x14c2 <main+0x6d6>
    1448:	80 91 77 00 	lds	r24, 0x0077	; 0x800077 <update_hour>
    144c:	88 23       	and	r24, r24
    144e:	09 f4       	brne	.+2      	; 0x1452 <main+0x666>
    1450:	48 c0       	rjmp	.+144    	; 0x14e2 <main+0x6f6>
    1452:	10 92 77 00 	sts	0x0077, r1	; 0x800077 <update_hour>
    1456:	60 e0       	ldi	r22, 0x00	; 0
    1458:	80 e0       	ldi	r24, 0x00	; 0
    145a:	0e 94 5c 0f 	call	0x1eb8	; 0x1eb8 <_Z15ST7789_SetXYposcc>
    145e:	80 91 0a 06 	lds	r24, 0x060A	; 0x80060a <time_temp+0x2>
    1462:	8a 30       	cpi	r24, 0x0A	; 10
    1464:	40 f4       	brcc	.+16     	; 0x1476 <main+0x68a>
    1466:	25 e0       	ldi	r18, 0x05	; 5
    1468:	4f e1       	ldi	r20, 0x1F	; 31
    146a:	50 e0       	ldi	r21, 0x00	; 0
    146c:	60 e0       	ldi	r22, 0x00	; 0
    146e:	82 e8       	ldi	r24, 0x82	; 130
    1470:	90 e0       	ldi	r25, 0x00	; 0
    1472:	0e 94 57 10 	call	0x20ae	; 0x20ae <_Z18ST7789_PrintStringPc6colourc>
    1476:	80 91 0a 06 	lds	r24, 0x060A	; 0x80060a <time_temp+0x2>
    147a:	4a e0       	ldi	r20, 0x0A	; 10
    147c:	50 e0       	ldi	r21, 0x00	; 0
    147e:	6f e0       	ldi	r22, 0x0F	; 15
    1480:	76 e0       	ldi	r23, 0x06	; 6
    1482:	90 e0       	ldi	r25, 0x00	; 0
    1484:	0e 94 67 14 	call	0x28ce	; 0x28ce <itoa>
    1488:	25 e0       	ldi	r18, 0x05	; 5
    148a:	4f e1       	ldi	r20, 0x1F	; 31
    148c:	50 e0       	ldi	r21, 0x00	; 0
    148e:	60 e0       	ldi	r22, 0x00	; 0
    1490:	0e 94 57 10 	call	0x20ae	; 0x20ae <_Z18ST7789_PrintStringPc6colourc>
    1494:	80 91 0e 06 	lds	r24, 0x060E	; 0x80060e <update_clock>
    1498:	88 23       	and	r24, r24
    149a:	f9 f0       	breq	.+62     	; 0x14da <main+0x6ee>
    149c:	10 92 0e 06 	sts	0x060E, r1	; 0x80060e <update_clock>
    14a0:	60 e0       	ldi	r22, 0x00	; 0
    14a2:	8a e5       	ldi	r24, 0x5A	; 90
    14a4:	0e 94 5c 0f 	call	0x1eb8	; 0x1eb8 <_Z15ST7789_SetXYposcc>
    14a8:	80 91 09 06 	lds	r24, 0x0609	; 0x800609 <time_temp+0x1>
    14ac:	8a 30       	cpi	r24, 0x0A	; 10
    14ae:	38 f4       	brcc	.+14     	; 0x14be <main+0x6d2>
    14b0:	25 e0       	ldi	r18, 0x05	; 5
    14b2:	68 2d       	mov	r22, r8
    14b4:	a3 01       	movw	r20, r6
    14b6:	82 e8       	ldi	r24, 0x82	; 130
    14b8:	90 e0       	ldi	r25, 0x00	; 0
    14ba:	0e 94 57 10 	call	0x20ae	; 0x20ae <_Z18ST7789_PrintStringPc6colourc>
    14be:	80 91 09 06 	lds	r24, 0x0609	; 0x800609 <time_temp+0x1>
    14c2:	4a e0       	ldi	r20, 0x0A	; 10
    14c4:	50 e0       	ldi	r21, 0x00	; 0
    14c6:	6f e0       	ldi	r22, 0x0F	; 15
    14c8:	76 e0       	ldi	r23, 0x06	; 6
    14ca:	90 e0       	ldi	r25, 0x00	; 0
    14cc:	0e 94 67 14 	call	0x28ce	; 0x28ce <itoa>
    14d0:	25 e0       	ldi	r18, 0x05	; 5
    14d2:	68 2d       	mov	r22, r8
    14d4:	a3 01       	movw	r20, r6
    14d6:	0e 94 57 10 	call	0x20ae	; 0x20ae <_Z18ST7789_PrintStringPc6colourc>
    14da:	80 91 0b 06 	lds	r24, 0x060B	; 0x80060b <mode>
    14de:	84 30       	cpi	r24, 0x04	; 4
    14e0:	19 f1       	breq	.+70     	; 0x1528 <main+0x73c>
    14e2:	80 91 76 00 	lds	r24, 0x0076	; 0x800076 <update_hour_sunrise>
    14e6:	88 23       	and	r24, r24
    14e8:	09 f4       	brne	.+2      	; 0x14ec <main+0x700>
    14ea:	43 c0       	rjmp	.+134    	; 0x1572 <main+0x786>
    14ec:	10 92 76 00 	sts	0x0076, r1	; 0x800076 <update_hour_sunrise>
    14f0:	68 e8       	ldi	r22, 0x88	; 136
    14f2:	80 e0       	ldi	r24, 0x00	; 0
    14f4:	0e 94 5c 0f 	call	0x1eb8	; 0x1eb8 <_Z15ST7789_SetXYposcc>
    14f8:	80 91 60 00 	lds	r24, 0x0060	; 0x800060 <__data_start>
    14fc:	8a 30       	cpi	r24, 0x0A	; 10
    14fe:	38 f4       	brcc	.+14     	; 0x150e <main+0x722>
    1500:	23 e0       	ldi	r18, 0x03	; 3
    1502:	68 2d       	mov	r22, r8
    1504:	a3 01       	movw	r20, r6
    1506:	82 e8       	ldi	r24, 0x82	; 130
    1508:	90 e0       	ldi	r25, 0x00	; 0
    150a:	0e 94 57 10 	call	0x20ae	; 0x20ae <_Z18ST7789_PrintStringPc6colourc>
    150e:	80 91 60 00 	lds	r24, 0x0060	; 0x800060 <__data_start>
    1512:	4a e0       	ldi	r20, 0x0A	; 10
    1514:	50 e0       	ldi	r21, 0x00	; 0
    1516:	6f e0       	ldi	r22, 0x0F	; 15
    1518:	76 e0       	ldi	r23, 0x06	; 6
    151a:	90 e0       	ldi	r25, 0x00	; 0
    151c:	0e 94 67 14 	call	0x28ce	; 0x28ce <itoa>
    1520:	23 e0       	ldi	r18, 0x03	; 3
    1522:	68 2d       	mov	r22, r8
    1524:	a3 01       	movw	r20, r6
    1526:	23 c0       	rjmp	.+70     	; 0x156e <main+0x782>
    1528:	80 91 76 00 	lds	r24, 0x0076	; 0x800076 <update_hour_sunrise>
    152c:	88 23       	and	r24, r24
    152e:	09 f1       	breq	.+66     	; 0x1572 <main+0x786>
    1530:	10 92 76 00 	sts	0x0076, r1	; 0x800076 <update_hour_sunrise>
    1534:	68 e8       	ldi	r22, 0x88	; 136
    1536:	80 e0       	ldi	r24, 0x00	; 0
    1538:	0e 94 5c 0f 	call	0x1eb8	; 0x1eb8 <_Z15ST7789_SetXYposcc>
    153c:	80 91 60 00 	lds	r24, 0x0060	; 0x800060 <__data_start>
    1540:	8a 30       	cpi	r24, 0x0A	; 10
    1542:	40 f4       	brcc	.+16     	; 0x1554 <main+0x768>
    1544:	23 e0       	ldi	r18, 0x03	; 3
    1546:	4f e1       	ldi	r20, 0x1F	; 31
    1548:	50 e0       	ldi	r21, 0x00	; 0
    154a:	60 e0       	ldi	r22, 0x00	; 0
    154c:	82 e8       	ldi	r24, 0x82	; 130
    154e:	90 e0       	ldi	r25, 0x00	; 0
    1550:	0e 94 57 10 	call	0x20ae	; 0x20ae <_Z18ST7789_PrintStringPc6colourc>
    1554:	80 91 60 00 	lds	r24, 0x0060	; 0x800060 <__data_start>
    1558:	4a e0       	ldi	r20, 0x0A	; 10
    155a:	50 e0       	ldi	r21, 0x00	; 0
    155c:	6f e0       	ldi	r22, 0x0F	; 15
    155e:	76 e0       	ldi	r23, 0x06	; 6
    1560:	90 e0       	ldi	r25, 0x00	; 0
    1562:	0e 94 67 14 	call	0x28ce	; 0x28ce <itoa>
    1566:	23 e0       	ldi	r18, 0x03	; 3
    1568:	4f e1       	ldi	r20, 0x1F	; 31
    156a:	50 e0       	ldi	r21, 0x00	; 0
    156c:	60 e0       	ldi	r22, 0x00	; 0
    156e:	0e 94 57 10 	call	0x20ae	; 0x20ae <_Z18ST7789_PrintStringPc6colourc>
    1572:	90 91 0b 06 	lds	r25, 0x060B	; 0x80060b <mode>
    1576:	80 91 75 00 	lds	r24, 0x0075	; 0x800075 <update_minute_sunrise>
    157a:	95 30       	cpi	r25, 0x05	; 5
    157c:	b9 f0       	breq	.+46     	; 0x15ac <main+0x7c0>
    157e:	88 23       	and	r24, r24
    1580:	09 f4       	brne	.+2      	; 0x1584 <main+0x798>
    1582:	5b c0       	rjmp	.+182    	; 0x163a <main+0x84e>
    1584:	10 92 75 00 	sts	0x0075, r1	; 0x800075 <update_minute_sunrise>
    1588:	68 e8       	ldi	r22, 0x88	; 136
    158a:	86 e3       	ldi	r24, 0x36	; 54
    158c:	0e 94 5c 0f 	call	0x1eb8	; 0x1eb8 <_Z15ST7789_SetXYposcc>
    1590:	80 91 61 00 	lds	r24, 0x0061	; 0x800061 <__data_start+0x1>
    1594:	8a 30       	cpi	r24, 0x0A	; 10
    1596:	38 f4       	brcc	.+14     	; 0x15a6 <main+0x7ba>
    1598:	23 e0       	ldi	r18, 0x03	; 3
    159a:	68 2d       	mov	r22, r8
    159c:	a3 01       	movw	r20, r6
    159e:	82 e8       	ldi	r24, 0x82	; 130
    15a0:	90 e0       	ldi	r25, 0x00	; 0
    15a2:	0e 94 57 10 	call	0x20ae	; 0x20ae <_Z18ST7789_PrintStringPc6colourc>
    15a6:	80 91 61 00 	lds	r24, 0x0061	; 0x800061 <__data_start+0x1>
    15aa:	3b c0       	rjmp	.+118    	; 0x1622 <main+0x836>
    15ac:	88 23       	and	r24, r24
    15ae:	09 f4       	brne	.+2      	; 0x15b2 <main+0x7c6>
    15b0:	48 c0       	rjmp	.+144    	; 0x1642 <main+0x856>
    15b2:	10 92 75 00 	sts	0x0075, r1	; 0x800075 <update_minute_sunrise>
    15b6:	68 e8       	ldi	r22, 0x88	; 136
    15b8:	86 e3       	ldi	r24, 0x36	; 54
    15ba:	0e 94 5c 0f 	call	0x1eb8	; 0x1eb8 <_Z15ST7789_SetXYposcc>
    15be:	80 91 61 00 	lds	r24, 0x0061	; 0x800061 <__data_start+0x1>
    15c2:	8a 30       	cpi	r24, 0x0A	; 10
    15c4:	40 f4       	brcc	.+16     	; 0x15d6 <main+0x7ea>
    15c6:	23 e0       	ldi	r18, 0x03	; 3
    15c8:	4f e1       	ldi	r20, 0x1F	; 31
    15ca:	50 e0       	ldi	r21, 0x00	; 0
    15cc:	60 e0       	ldi	r22, 0x00	; 0
    15ce:	82 e8       	ldi	r24, 0x82	; 130
    15d0:	90 e0       	ldi	r25, 0x00	; 0
    15d2:	0e 94 57 10 	call	0x20ae	; 0x20ae <_Z18ST7789_PrintStringPc6colourc>
    15d6:	80 91 61 00 	lds	r24, 0x0061	; 0x800061 <__data_start+0x1>
    15da:	4a e0       	ldi	r20, 0x0A	; 10
    15dc:	50 e0       	ldi	r21, 0x00	; 0
    15de:	6f e0       	ldi	r22, 0x0F	; 15
    15e0:	76 e0       	ldi	r23, 0x06	; 6
    15e2:	90 e0       	ldi	r25, 0x00	; 0
    15e4:	0e 94 67 14 	call	0x28ce	; 0x28ce <itoa>
    15e8:	23 e0       	ldi	r18, 0x03	; 3
    15ea:	4f e1       	ldi	r20, 0x1F	; 31
    15ec:	50 e0       	ldi	r21, 0x00	; 0
    15ee:	60 e0       	ldi	r22, 0x00	; 0
    15f0:	0e 94 57 10 	call	0x20ae	; 0x20ae <_Z18ST7789_PrintStringPc6colourc>
    15f4:	80 91 0d 06 	lds	r24, 0x060D	; 0x80060d <update_schedule>
    15f8:	88 23       	and	r24, r24
    15fa:	f9 f0       	breq	.+62     	; 0x163a <main+0x84e>
    15fc:	10 92 0d 06 	sts	0x060D, r1	; 0x80060d <update_schedule>
    1600:	68 e8       	ldi	r22, 0x88	; 136
    1602:	80 e0       	ldi	r24, 0x00	; 0
    1604:	0e 94 5c 0f 	call	0x1eb8	; 0x1eb8 <_Z15ST7789_SetXYposcc>
    1608:	80 91 60 00 	lds	r24, 0x0060	; 0x800060 <__data_start>
    160c:	8a 30       	cpi	r24, 0x0A	; 10
    160e:	38 f4       	brcc	.+14     	; 0x161e <main+0x832>
    1610:	23 e0       	ldi	r18, 0x03	; 3
    1612:	68 2d       	mov	r22, r8
    1614:	a3 01       	movw	r20, r6
    1616:	82 e8       	ldi	r24, 0x82	; 130
    1618:	90 e0       	ldi	r25, 0x00	; 0
    161a:	0e 94 57 10 	call	0x20ae	; 0x20ae <_Z18ST7789_PrintStringPc6colourc>
    161e:	80 91 60 00 	lds	r24, 0x0060	; 0x800060 <__data_start>
    1622:	4a e0       	ldi	r20, 0x0A	; 10
    1624:	50 e0       	ldi	r21, 0x00	; 0
    1626:	6f e0       	ldi	r22, 0x0F	; 15
    1628:	76 e0       	ldi	r23, 0x06	; 6
    162a:	90 e0       	ldi	r25, 0x00	; 0
    162c:	0e 94 67 14 	call	0x28ce	; 0x28ce <itoa>
    1630:	23 e0       	ldi	r18, 0x03	; 3
    1632:	68 2d       	mov	r22, r8
    1634:	a3 01       	movw	r20, r6
    1636:	0e 94 57 10 	call	0x20ae	; 0x20ae <_Z18ST7789_PrintStringPc6colourc>
    163a:	80 91 0b 06 	lds	r24, 0x060B	; 0x80060b <mode>
    163e:	86 30       	cpi	r24, 0x06	; 6
    1640:	c9 f0       	breq	.+50     	; 0x1674 <main+0x888>
    1642:	80 91 74 00 	lds	r24, 0x0074	; 0x800074 <update_hour_day>
    1646:	88 23       	and	r24, r24
    1648:	09 f4       	brne	.+2      	; 0x164c <main+0x860>
    164a:	5d c0       	rjmp	.+186    	; 0x1706 <main+0x91a>
    164c:	10 92 74 00 	sts	0x0074, r1	; 0x800074 <update_hour_day>
    1650:	62 ea       	ldi	r22, 0xA2	; 162
    1652:	80 e0       	ldi	r24, 0x00	; 0
    1654:	0e 94 5c 0f 	call	0x1eb8	; 0x1eb8 <_Z15ST7789_SetXYposcc>
    1658:	80 91 62 00 	lds	r24, 0x0062	; 0x800062 <__data_start+0x2>
    165c:	8a 30       	cpi	r24, 0x0A	; 10
    165e:	38 f4       	brcc	.+14     	; 0x166e <main+0x882>
    1660:	23 e0       	ldi	r18, 0x03	; 3
    1662:	68 2d       	mov	r22, r8
    1664:	a3 01       	movw	r20, r6
    1666:	82 e8       	ldi	r24, 0x82	; 130
    1668:	90 e0       	ldi	r25, 0x00	; 0
    166a:	0e 94 57 10 	call	0x20ae	; 0x20ae <_Z18ST7789_PrintStringPc6colourc>
    166e:	80 91 62 00 	lds	r24, 0x0062	; 0x800062 <__data_start+0x2>
    1672:	3d c0       	rjmp	.+122    	; 0x16ee <main+0x902>
    1674:	80 91 74 00 	lds	r24, 0x0074	; 0x800074 <update_hour_day>
    1678:	88 23       	and	r24, r24
    167a:	09 f4       	brne	.+2      	; 0x167e <main+0x892>
    167c:	48 c0       	rjmp	.+144    	; 0x170e <main+0x922>
    167e:	10 92 74 00 	sts	0x0074, r1	; 0x800074 <update_hour_day>
    1682:	62 ea       	ldi	r22, 0xA2	; 162
    1684:	80 e0       	ldi	r24, 0x00	; 0
    1686:	0e 94 5c 0f 	call	0x1eb8	; 0x1eb8 <_Z15ST7789_SetXYposcc>
    168a:	80 91 62 00 	lds	r24, 0x0062	; 0x800062 <__data_start+0x2>
    168e:	8a 30       	cpi	r24, 0x0A	; 10
    1690:	40 f4       	brcc	.+16     	; 0x16a2 <main+0x8b6>
    1692:	23 e0       	ldi	r18, 0x03	; 3
    1694:	4f e1       	ldi	r20, 0x1F	; 31
    1696:	50 e0       	ldi	r21, 0x00	; 0
    1698:	60 e0       	ldi	r22, 0x00	; 0
    169a:	82 e8       	ldi	r24, 0x82	; 130
    169c:	90 e0       	ldi	r25, 0x00	; 0
    169e:	0e 94 57 10 	call	0x20ae	; 0x20ae <_Z18ST7789_PrintStringPc6colourc>
    16a2:	80 91 62 00 	lds	r24, 0x0062	; 0x800062 <__data_start+0x2>
    16a6:	4a e0       	ldi	r20, 0x0A	; 10
    16a8:	50 e0       	ldi	r21, 0x00	; 0
    16aa:	6f e0       	ldi	r22, 0x0F	; 15
    16ac:	76 e0       	ldi	r23, 0x06	; 6
    16ae:	90 e0       	ldi	r25, 0x00	; 0
    16b0:	0e 94 67 14 	call	0x28ce	; 0x28ce <itoa>
    16b4:	23 e0       	ldi	r18, 0x03	; 3
    16b6:	4f e1       	ldi	r20, 0x1F	; 31
    16b8:	50 e0       	ldi	r21, 0x00	; 0
    16ba:	60 e0       	ldi	r22, 0x00	; 0
    16bc:	0e 94 57 10 	call	0x20ae	; 0x20ae <_Z18ST7789_PrintStringPc6colourc>
    16c0:	80 91 0d 06 	lds	r24, 0x060D	; 0x80060d <update_schedule>
    16c4:	88 23       	and	r24, r24
    16c6:	f9 f0       	breq	.+62     	; 0x1706 <main+0x91a>
    16c8:	10 92 0d 06 	sts	0x060D, r1	; 0x80060d <update_schedule>
    16cc:	68 e8       	ldi	r22, 0x88	; 136
    16ce:	86 e3       	ldi	r24, 0x36	; 54
    16d0:	0e 94 5c 0f 	call	0x1eb8	; 0x1eb8 <_Z15ST7789_SetXYposcc>
    16d4:	80 91 61 00 	lds	r24, 0x0061	; 0x800061 <__data_start+0x1>
    16d8:	8a 30       	cpi	r24, 0x0A	; 10
    16da:	38 f4       	brcc	.+14     	; 0x16ea <main+0x8fe>
    16dc:	23 e0       	ldi	r18, 0x03	; 3
    16de:	68 2d       	mov	r22, r8
    16e0:	a3 01       	movw	r20, r6
    16e2:	82 e8       	ldi	r24, 0x82	; 130
    16e4:	90 e0       	ldi	r25, 0x00	; 0
    16e6:	0e 94 57 10 	call	0x20ae	; 0x20ae <_Z18ST7789_PrintStringPc6colourc>
    16ea:	80 91 61 00 	lds	r24, 0x0061	; 0x800061 <__data_start+0x1>
    16ee:	4a e0       	ldi	r20, 0x0A	; 10
    16f0:	50 e0       	ldi	r21, 0x00	; 0
    16f2:	6f e0       	ldi	r22, 0x0F	; 15
    16f4:	76 e0       	ldi	r23, 0x06	; 6
    16f6:	90 e0       	ldi	r25, 0x00	; 0
    16f8:	0e 94 67 14 	call	0x28ce	; 0x28ce <itoa>
    16fc:	23 e0       	ldi	r18, 0x03	; 3
    16fe:	68 2d       	mov	r22, r8
    1700:	a3 01       	movw	r20, r6
    1702:	0e 94 57 10 	call	0x20ae	; 0x20ae <_Z18ST7789_PrintStringPc6colourc>
    1706:	80 91 0b 06 	lds	r24, 0x060B	; 0x80060b <mode>
    170a:	87 30       	cpi	r24, 0x07	; 7
    170c:	c9 f0       	breq	.+50     	; 0x1740 <main+0x954>
    170e:	80 91 73 00 	lds	r24, 0x0073	; 0x800073 <update_minute_day>
    1712:	88 23       	and	r24, r24
    1714:	09 f4       	brne	.+2      	; 0x1718 <main+0x92c>
    1716:	5d c0       	rjmp	.+186    	; 0x17d2 <main+0x9e6>
    1718:	10 92 73 00 	sts	0x0073, r1	; 0x800073 <update_minute_day>
    171c:	62 ea       	ldi	r22, 0xA2	; 162
    171e:	86 e3       	ldi	r24, 0x36	; 54
    1720:	0e 94 5c 0f 	call	0x1eb8	; 0x1eb8 <_Z15ST7789_SetXYposcc>
    1724:	80 91 63 00 	lds	r24, 0x0063	; 0x800063 <__data_start+0x3>
    1728:	8a 30       	cpi	r24, 0x0A	; 10
    172a:	38 f4       	brcc	.+14     	; 0x173a <main+0x94e>
    172c:	23 e0       	ldi	r18, 0x03	; 3
    172e:	68 2d       	mov	r22, r8
    1730:	a3 01       	movw	r20, r6
    1732:	82 e8       	ldi	r24, 0x82	; 130
    1734:	90 e0       	ldi	r25, 0x00	; 0
    1736:	0e 94 57 10 	call	0x20ae	; 0x20ae <_Z18ST7789_PrintStringPc6colourc>
    173a:	80 91 63 00 	lds	r24, 0x0063	; 0x800063 <__data_start+0x3>
    173e:	3d c0       	rjmp	.+122    	; 0x17ba <main+0x9ce>
    1740:	80 91 73 00 	lds	r24, 0x0073	; 0x800073 <update_minute_day>
    1744:	88 23       	and	r24, r24
    1746:	09 f4       	brne	.+2      	; 0x174a <main+0x95e>
    1748:	48 c0       	rjmp	.+144    	; 0x17da <main+0x9ee>
    174a:	10 92 73 00 	sts	0x0073, r1	; 0x800073 <update_minute_day>
    174e:	62 ea       	ldi	r22, 0xA2	; 162
    1750:	86 e3       	ldi	r24, 0x36	; 54
    1752:	0e 94 5c 0f 	call	0x1eb8	; 0x1eb8 <_Z15ST7789_SetXYposcc>
    1756:	80 91 63 00 	lds	r24, 0x0063	; 0x800063 <__data_start+0x3>
    175a:	8a 30       	cpi	r24, 0x0A	; 10
    175c:	40 f4       	brcc	.+16     	; 0x176e <main+0x982>
    175e:	23 e0       	ldi	r18, 0x03	; 3
    1760:	4f e1       	ldi	r20, 0x1F	; 31
    1762:	50 e0       	ldi	r21, 0x00	; 0
    1764:	60 e0       	ldi	r22, 0x00	; 0
    1766:	82 e8       	ldi	r24, 0x82	; 130
    1768:	90 e0       	ldi	r25, 0x00	; 0
    176a:	0e 94 57 10 	call	0x20ae	; 0x20ae <_Z18ST7789_PrintStringPc6colourc>
    176e:	80 91 63 00 	lds	r24, 0x0063	; 0x800063 <__data_start+0x3>
    1772:	4a e0       	ldi	r20, 0x0A	; 10
    1774:	50 e0       	ldi	r21, 0x00	; 0
    1776:	6f e0       	ldi	r22, 0x0F	; 15
    1778:	76 e0       	ldi	r23, 0x06	; 6
    177a:	90 e0       	ldi	r25, 0x00	; 0
    177c:	0e 94 67 14 	call	0x28ce	; 0x28ce <itoa>
    1780:	23 e0       	ldi	r18, 0x03	; 3
    1782:	4f e1       	ldi	r20, 0x1F	; 31
    1784:	50 e0       	ldi	r21, 0x00	; 0
    1786:	60 e0       	ldi	r22, 0x00	; 0
    1788:	0e 94 57 10 	call	0x20ae	; 0x20ae <_Z18ST7789_PrintStringPc6colourc>
    178c:	80 91 0d 06 	lds	r24, 0x060D	; 0x80060d <update_schedule>
    1790:	88 23       	and	r24, r24
    1792:	f9 f0       	breq	.+62     	; 0x17d2 <main+0x9e6>
    1794:	10 92 0d 06 	sts	0x060D, r1	; 0x80060d <update_schedule>
    1798:	62 ea       	ldi	r22, 0xA2	; 162
    179a:	80 e0       	ldi	r24, 0x00	; 0
    179c:	0e 94 5c 0f 	call	0x1eb8	; 0x1eb8 <_Z15ST7789_SetXYposcc>
    17a0:	80 91 62 00 	lds	r24, 0x0062	; 0x800062 <__data_start+0x2>
    17a4:	8a 30       	cpi	r24, 0x0A	; 10
    17a6:	38 f4       	brcc	.+14     	; 0x17b6 <main+0x9ca>
    17a8:	23 e0       	ldi	r18, 0x03	; 3
    17aa:	68 2d       	mov	r22, r8
    17ac:	a3 01       	movw	r20, r6
    17ae:	82 e8       	ldi	r24, 0x82	; 130
    17b0:	90 e0       	ldi	r25, 0x00	; 0
    17b2:	0e 94 57 10 	call	0x20ae	; 0x20ae <_Z18ST7789_PrintStringPc6colourc>
    17b6:	80 91 62 00 	lds	r24, 0x0062	; 0x800062 <__data_start+0x2>
    17ba:	4a e0       	ldi	r20, 0x0A	; 10
    17bc:	50 e0       	ldi	r21, 0x00	; 0
    17be:	6f e0       	ldi	r22, 0x0F	; 15
    17c0:	76 e0       	ldi	r23, 0x06	; 6
    17c2:	90 e0       	ldi	r25, 0x00	; 0
    17c4:	0e 94 67 14 	call	0x28ce	; 0x28ce <itoa>
    17c8:	23 e0       	ldi	r18, 0x03	; 3
    17ca:	68 2d       	mov	r22, r8
    17cc:	a3 01       	movw	r20, r6
    17ce:	0e 94 57 10 	call	0x20ae	; 0x20ae <_Z18ST7789_PrintStringPc6colourc>
    17d2:	80 91 0b 06 	lds	r24, 0x060B	; 0x80060b <mode>
    17d6:	88 30       	cpi	r24, 0x08	; 8
    17d8:	c9 f0       	breq	.+50     	; 0x180c <main+0xa20>
    17da:	80 91 72 00 	lds	r24, 0x0072	; 0x800072 <update_hour_sunset>
    17de:	88 23       	and	r24, r24
    17e0:	09 f4       	brne	.+2      	; 0x17e4 <main+0x9f8>
    17e2:	5d c0       	rjmp	.+186    	; 0x189e <main+0xab2>
    17e4:	10 92 72 00 	sts	0x0072, r1	; 0x800072 <update_hour_sunset>
    17e8:	6c eb       	ldi	r22, 0xBC	; 188
    17ea:	80 e0       	ldi	r24, 0x00	; 0
    17ec:	0e 94 5c 0f 	call	0x1eb8	; 0x1eb8 <_Z15ST7789_SetXYposcc>
    17f0:	80 91 64 00 	lds	r24, 0x0064	; 0x800064 <__data_start+0x4>
    17f4:	8a 30       	cpi	r24, 0x0A	; 10
    17f6:	38 f4       	brcc	.+14     	; 0x1806 <main+0xa1a>
    17f8:	23 e0       	ldi	r18, 0x03	; 3
    17fa:	68 2d       	mov	r22, r8
    17fc:	a3 01       	movw	r20, r6
    17fe:	82 e8       	ldi	r24, 0x82	; 130
    1800:	90 e0       	ldi	r25, 0x00	; 0
    1802:	0e 94 57 10 	call	0x20ae	; 0x20ae <_Z18ST7789_PrintStringPc6colourc>
    1806:	80 91 64 00 	lds	r24, 0x0064	; 0x800064 <__data_start+0x4>
    180a:	3d c0       	rjmp	.+122    	; 0x1886 <main+0xa9a>
    180c:	80 91 72 00 	lds	r24, 0x0072	; 0x800072 <update_hour_sunset>
    1810:	88 23       	and	r24, r24
    1812:	09 f4       	brne	.+2      	; 0x1816 <main+0xa2a>
    1814:	48 c0       	rjmp	.+144    	; 0x18a6 <main+0xaba>
    1816:	10 92 72 00 	sts	0x0072, r1	; 0x800072 <update_hour_sunset>
    181a:	6c eb       	ldi	r22, 0xBC	; 188
    181c:	80 e0       	ldi	r24, 0x00	; 0
    181e:	0e 94 5c 0f 	call	0x1eb8	; 0x1eb8 <_Z15ST7789_SetXYposcc>
    1822:	80 91 64 00 	lds	r24, 0x0064	; 0x800064 <__data_start+0x4>
    1826:	8a 30       	cpi	r24, 0x0A	; 10
    1828:	40 f4       	brcc	.+16     	; 0x183a <main+0xa4e>
    182a:	23 e0       	ldi	r18, 0x03	; 3
    182c:	4f e1       	ldi	r20, 0x1F	; 31
    182e:	50 e0       	ldi	r21, 0x00	; 0
    1830:	60 e0       	ldi	r22, 0x00	; 0
    1832:	82 e8       	ldi	r24, 0x82	; 130
    1834:	90 e0       	ldi	r25, 0x00	; 0
    1836:	0e 94 57 10 	call	0x20ae	; 0x20ae <_Z18ST7789_PrintStringPc6colourc>
    183a:	80 91 64 00 	lds	r24, 0x0064	; 0x800064 <__data_start+0x4>
    183e:	4a e0       	ldi	r20, 0x0A	; 10
    1840:	50 e0       	ldi	r21, 0x00	; 0
    1842:	6f e0       	ldi	r22, 0x0F	; 15
    1844:	76 e0       	ldi	r23, 0x06	; 6
    1846:	90 e0       	ldi	r25, 0x00	; 0
    1848:	0e 94 67 14 	call	0x28ce	; 0x28ce <itoa>
    184c:	23 e0       	ldi	r18, 0x03	; 3
    184e:	4f e1       	ldi	r20, 0x1F	; 31
    1850:	50 e0       	ldi	r21, 0x00	; 0
    1852:	60 e0       	ldi	r22, 0x00	; 0
    1854:	0e 94 57 10 	call	0x20ae	; 0x20ae <_Z18ST7789_PrintStringPc6colourc>
    1858:	80 91 0d 06 	lds	r24, 0x060D	; 0x80060d <update_schedule>
    185c:	88 23       	and	r24, r24
    185e:	f9 f0       	breq	.+62     	; 0x189e <main+0xab2>
    1860:	10 92 0d 06 	sts	0x060D, r1	; 0x80060d <update_schedule>
    1864:	62 ea       	ldi	r22, 0xA2	; 162
    1866:	86 e3       	ldi	r24, 0x36	; 54
    1868:	0e 94 5c 0f 	call	0x1eb8	; 0x1eb8 <_Z15ST7789_SetXYposcc>
    186c:	80 91 63 00 	lds	r24, 0x0063	; 0x800063 <__data_start+0x3>
    1870:	8a 30       	cpi	r24, 0x0A	; 10
    1872:	38 f4       	brcc	.+14     	; 0x1882 <main+0xa96>
    1874:	23 e0       	ldi	r18, 0x03	; 3
    1876:	68 2d       	mov	r22, r8
    1878:	a3 01       	movw	r20, r6
    187a:	82 e8       	ldi	r24, 0x82	; 130
    187c:	90 e0       	ldi	r25, 0x00	; 0
    187e:	0e 94 57 10 	call	0x20ae	; 0x20ae <_Z18ST7789_PrintStringPc6colourc>
    1882:	80 91 63 00 	lds	r24, 0x0063	; 0x800063 <__data_start+0x3>
    1886:	4a e0       	ldi	r20, 0x0A	; 10
    1888:	50 e0       	ldi	r21, 0x00	; 0
    188a:	6f e0       	ldi	r22, 0x0F	; 15
    188c:	76 e0       	ldi	r23, 0x06	; 6
    188e:	90 e0       	ldi	r25, 0x00	; 0
    1890:	0e 94 67 14 	call	0x28ce	; 0x28ce <itoa>
    1894:	23 e0       	ldi	r18, 0x03	; 3
    1896:	68 2d       	mov	r22, r8
    1898:	a3 01       	movw	r20, r6
    189a:	0e 94 57 10 	call	0x20ae	; 0x20ae <_Z18ST7789_PrintStringPc6colourc>
    189e:	80 91 0b 06 	lds	r24, 0x060B	; 0x80060b <mode>
    18a2:	89 30       	cpi	r24, 0x09	; 9
    18a4:	c9 f0       	breq	.+50     	; 0x18d8 <main+0xaec>
    18a6:	80 91 71 00 	lds	r24, 0x0071	; 0x800071 <update_minute_sunset>
    18aa:	88 23       	and	r24, r24
    18ac:	09 f4       	brne	.+2      	; 0x18b0 <main+0xac4>
    18ae:	5d c0       	rjmp	.+186    	; 0x196a <main+0xb7e>
    18b0:	10 92 71 00 	sts	0x0071, r1	; 0x800071 <update_minute_sunset>
    18b4:	6c eb       	ldi	r22, 0xBC	; 188
    18b6:	86 e3       	ldi	r24, 0x36	; 54
    18b8:	0e 94 5c 0f 	call	0x1eb8	; 0x1eb8 <_Z15ST7789_SetXYposcc>
    18bc:	80 91 65 00 	lds	r24, 0x0065	; 0x800065 <__data_start+0x5>
    18c0:	8a 30       	cpi	r24, 0x0A	; 10
    18c2:	38 f4       	brcc	.+14     	; 0x18d2 <main+0xae6>
    18c4:	23 e0       	ldi	r18, 0x03	; 3
    18c6:	68 2d       	mov	r22, r8
    18c8:	a3 01       	movw	r20, r6
    18ca:	82 e8       	ldi	r24, 0x82	; 130
    18cc:	90 e0       	ldi	r25, 0x00	; 0
    18ce:	0e 94 57 10 	call	0x20ae	; 0x20ae <_Z18ST7789_PrintStringPc6colourc>
    18d2:	80 91 65 00 	lds	r24, 0x0065	; 0x800065 <__data_start+0x5>
    18d6:	3d c0       	rjmp	.+122    	; 0x1952 <main+0xb66>
    18d8:	80 91 71 00 	lds	r24, 0x0071	; 0x800071 <update_minute_sunset>
    18dc:	88 23       	and	r24, r24
    18de:	09 f4       	brne	.+2      	; 0x18e2 <main+0xaf6>
    18e0:	48 c0       	rjmp	.+144    	; 0x1972 <main+0xb86>
    18e2:	10 92 71 00 	sts	0x0071, r1	; 0x800071 <update_minute_sunset>
    18e6:	6c eb       	ldi	r22, 0xBC	; 188
    18e8:	86 e3       	ldi	r24, 0x36	; 54
    18ea:	0e 94 5c 0f 	call	0x1eb8	; 0x1eb8 <_Z15ST7789_SetXYposcc>
    18ee:	80 91 65 00 	lds	r24, 0x0065	; 0x800065 <__data_start+0x5>
    18f2:	8a 30       	cpi	r24, 0x0A	; 10
    18f4:	40 f4       	brcc	.+16     	; 0x1906 <main+0xb1a>
    18f6:	23 e0       	ldi	r18, 0x03	; 3
    18f8:	4f e1       	ldi	r20, 0x1F	; 31
    18fa:	50 e0       	ldi	r21, 0x00	; 0
    18fc:	60 e0       	ldi	r22, 0x00	; 0
    18fe:	82 e8       	ldi	r24, 0x82	; 130
    1900:	90 e0       	ldi	r25, 0x00	; 0
    1902:	0e 94 57 10 	call	0x20ae	; 0x20ae <_Z18ST7789_PrintStringPc6colourc>
    1906:	80 91 65 00 	lds	r24, 0x0065	; 0x800065 <__data_start+0x5>
    190a:	4a e0       	ldi	r20, 0x0A	; 10
    190c:	50 e0       	ldi	r21, 0x00	; 0
    190e:	6f e0       	ldi	r22, 0x0F	; 15
    1910:	76 e0       	ldi	r23, 0x06	; 6
    1912:	90 e0       	ldi	r25, 0x00	; 0
    1914:	0e 94 67 14 	call	0x28ce	; 0x28ce <itoa>
    1918:	23 e0       	ldi	r18, 0x03	; 3
    191a:	4f e1       	ldi	r20, 0x1F	; 31
    191c:	50 e0       	ldi	r21, 0x00	; 0
    191e:	60 e0       	ldi	r22, 0x00	; 0
    1920:	0e 94 57 10 	call	0x20ae	; 0x20ae <_Z18ST7789_PrintStringPc6colourc>
    1924:	80 91 0d 06 	lds	r24, 0x060D	; 0x80060d <update_schedule>
    1928:	88 23       	and	r24, r24
    192a:	f9 f0       	breq	.+62     	; 0x196a <main+0xb7e>
    192c:	10 92 0d 06 	sts	0x060D, r1	; 0x80060d <update_schedule>
    1930:	6c eb       	ldi	r22, 0xBC	; 188
    1932:	80 e0       	ldi	r24, 0x00	; 0
    1934:	0e 94 5c 0f 	call	0x1eb8	; 0x1eb8 <_Z15ST7789_SetXYposcc>
    1938:	80 91 64 00 	lds	r24, 0x0064	; 0x800064 <__data_start+0x4>
    193c:	8a 30       	cpi	r24, 0x0A	; 10
    193e:	38 f4       	brcc	.+14     	; 0x194e <main+0xb62>
    1940:	23 e0       	ldi	r18, 0x03	; 3
    1942:	68 2d       	mov	r22, r8
    1944:	a3 01       	movw	r20, r6
    1946:	82 e8       	ldi	r24, 0x82	; 130
    1948:	90 e0       	ldi	r25, 0x00	; 0
    194a:	0e 94 57 10 	call	0x20ae	; 0x20ae <_Z18ST7789_PrintStringPc6colourc>
    194e:	80 91 64 00 	lds	r24, 0x0064	; 0x800064 <__data_start+0x4>
    1952:	4a e0       	ldi	r20, 0x0A	; 10
    1954:	50 e0       	ldi	r21, 0x00	; 0
    1956:	6f e0       	ldi	r22, 0x0F	; 15
    1958:	76 e0       	ldi	r23, 0x06	; 6
    195a:	90 e0       	ldi	r25, 0x00	; 0
    195c:	0e 94 67 14 	call	0x28ce	; 0x28ce <itoa>
    1960:	23 e0       	ldi	r18, 0x03	; 3
    1962:	68 2d       	mov	r22, r8
    1964:	a3 01       	movw	r20, r6
    1966:	0e 94 57 10 	call	0x20ae	; 0x20ae <_Z18ST7789_PrintStringPc6colourc>
    196a:	80 91 0b 06 	lds	r24, 0x060B	; 0x80060b <mode>
    196e:	8a 30       	cpi	r24, 0x0A	; 10
    1970:	c9 f0       	breq	.+50     	; 0x19a4 <main+0xbb8>
    1972:	80 91 70 00 	lds	r24, 0x0070	; 0x800070 <update_hour_night>
    1976:	88 23       	and	r24, r24
    1978:	09 f4       	brne	.+2      	; 0x197c <main+0xb90>
    197a:	5d c0       	rjmp	.+186    	; 0x1a36 <main+0xc4a>
    197c:	10 92 70 00 	sts	0x0070, r1	; 0x800070 <update_hour_night>
    1980:	66 ed       	ldi	r22, 0xD6	; 214
    1982:	80 e0       	ldi	r24, 0x00	; 0
    1984:	0e 94 5c 0f 	call	0x1eb8	; 0x1eb8 <_Z15ST7789_SetXYposcc>
    1988:	80 91 66 00 	lds	r24, 0x0066	; 0x800066 <__data_start+0x6>
    198c:	8a 30       	cpi	r24, 0x0A	; 10
    198e:	38 f4       	brcc	.+14     	; 0x199e <main+0xbb2>
    1990:	23 e0       	ldi	r18, 0x03	; 3
    1992:	68 2d       	mov	r22, r8
    1994:	a3 01       	movw	r20, r6
    1996:	82 e8       	ldi	r24, 0x82	; 130
    1998:	90 e0       	ldi	r25, 0x00	; 0
    199a:	0e 94 57 10 	call	0x20ae	; 0x20ae <_Z18ST7789_PrintStringPc6colourc>
    199e:	80 91 66 00 	lds	r24, 0x0066	; 0x800066 <__data_start+0x6>
    19a2:	3d c0       	rjmp	.+122    	; 0x1a1e <main+0xc32>
    19a4:	80 91 70 00 	lds	r24, 0x0070	; 0x800070 <update_hour_night>
    19a8:	88 23       	and	r24, r24
    19aa:	09 f4       	brne	.+2      	; 0x19ae <main+0xbc2>
    19ac:	48 c0       	rjmp	.+144    	; 0x1a3e <main+0xc52>
    19ae:	10 92 70 00 	sts	0x0070, r1	; 0x800070 <update_hour_night>
    19b2:	66 ed       	ldi	r22, 0xD6	; 214
    19b4:	80 e0       	ldi	r24, 0x00	; 0
    19b6:	0e 94 5c 0f 	call	0x1eb8	; 0x1eb8 <_Z15ST7789_SetXYposcc>
    19ba:	80 91 66 00 	lds	r24, 0x0066	; 0x800066 <__data_start+0x6>
    19be:	8a 30       	cpi	r24, 0x0A	; 10
    19c0:	40 f4       	brcc	.+16     	; 0x19d2 <main+0xbe6>
    19c2:	23 e0       	ldi	r18, 0x03	; 3
    19c4:	4f e1       	ldi	r20, 0x1F	; 31
    19c6:	50 e0       	ldi	r21, 0x00	; 0
    19c8:	60 e0       	ldi	r22, 0x00	; 0
    19ca:	82 e8       	ldi	r24, 0x82	; 130
    19cc:	90 e0       	ldi	r25, 0x00	; 0
    19ce:	0e 94 57 10 	call	0x20ae	; 0x20ae <_Z18ST7789_PrintStringPc6colourc>
    19d2:	80 91 66 00 	lds	r24, 0x0066	; 0x800066 <__data_start+0x6>
    19d6:	4a e0       	ldi	r20, 0x0A	; 10
    19d8:	50 e0       	ldi	r21, 0x00	; 0
    19da:	6f e0       	ldi	r22, 0x0F	; 15
    19dc:	76 e0       	ldi	r23, 0x06	; 6
    19de:	90 e0       	ldi	r25, 0x00	; 0
    19e0:	0e 94 67 14 	call	0x28ce	; 0x28ce <itoa>
    19e4:	23 e0       	ldi	r18, 0x03	; 3
    19e6:	4f e1       	ldi	r20, 0x1F	; 31
    19e8:	50 e0       	ldi	r21, 0x00	; 0
    19ea:	60 e0       	ldi	r22, 0x00	; 0
    19ec:	0e 94 57 10 	call	0x20ae	; 0x20ae <_Z18ST7789_PrintStringPc6colourc>
    19f0:	80 91 0d 06 	lds	r24, 0x060D	; 0x80060d <update_schedule>
    19f4:	88 23       	and	r24, r24
    19f6:	f9 f0       	breq	.+62     	; 0x1a36 <main+0xc4a>
    19f8:	10 92 0d 06 	sts	0x060D, r1	; 0x80060d <update_schedule>
    19fc:	6c eb       	ldi	r22, 0xBC	; 188
    19fe:	86 e3       	ldi	r24, 0x36	; 54
    1a00:	0e 94 5c 0f 	call	0x1eb8	; 0x1eb8 <_Z15ST7789_SetXYposcc>
    1a04:	80 91 65 00 	lds	r24, 0x0065	; 0x800065 <__data_start+0x5>
    1a08:	8a 30       	cpi	r24, 0x0A	; 10
    1a0a:	38 f4       	brcc	.+14     	; 0x1a1a <main+0xc2e>
    1a0c:	23 e0       	ldi	r18, 0x03	; 3
    1a0e:	68 2d       	mov	r22, r8
    1a10:	a3 01       	movw	r20, r6
    1a12:	82 e8       	ldi	r24, 0x82	; 130
    1a14:	90 e0       	ldi	r25, 0x00	; 0
    1a16:	0e 94 57 10 	call	0x20ae	; 0x20ae <_Z18ST7789_PrintStringPc6colourc>
    1a1a:	80 91 65 00 	lds	r24, 0x0065	; 0x800065 <__data_start+0x5>
    1a1e:	4a e0       	ldi	r20, 0x0A	; 10
    1a20:	50 e0       	ldi	r21, 0x00	; 0
    1a22:	6f e0       	ldi	r22, 0x0F	; 15
    1a24:	76 e0       	ldi	r23, 0x06	; 6
    1a26:	90 e0       	ldi	r25, 0x00	; 0
    1a28:	0e 94 67 14 	call	0x28ce	; 0x28ce <itoa>
    1a2c:	23 e0       	ldi	r18, 0x03	; 3
    1a2e:	68 2d       	mov	r22, r8
    1a30:	a3 01       	movw	r20, r6
    1a32:	0e 94 57 10 	call	0x20ae	; 0x20ae <_Z18ST7789_PrintStringPc6colourc>
    1a36:	80 91 0b 06 	lds	r24, 0x060B	; 0x80060b <mode>
    1a3a:	8b 30       	cpi	r24, 0x0B	; 11
    1a3c:	c9 f0       	breq	.+50     	; 0x1a70 <main+0xc84>
    1a3e:	80 91 6f 00 	lds	r24, 0x006F	; 0x80006f <update_minute_night>
    1a42:	88 23       	and	r24, r24
    1a44:	09 f4       	brne	.+2      	; 0x1a48 <main+0xc5c>
    1a46:	fd c9       	rjmp	.-3078   	; 0xe42 <main+0x56>
    1a48:	10 92 6f 00 	sts	0x006F, r1	; 0x80006f <update_minute_night>
    1a4c:	66 ed       	ldi	r22, 0xD6	; 214
    1a4e:	86 e3       	ldi	r24, 0x36	; 54
    1a50:	0e 94 5c 0f 	call	0x1eb8	; 0x1eb8 <_Z15ST7789_SetXYposcc>
    1a54:	80 91 67 00 	lds	r24, 0x0067	; 0x800067 <__data_start+0x7>
    1a58:	8a 30       	cpi	r24, 0x0A	; 10
    1a5a:	38 f4       	brcc	.+14     	; 0x1a6a <main+0xc7e>
    1a5c:	23 e0       	ldi	r18, 0x03	; 3
    1a5e:	68 2d       	mov	r22, r8
    1a60:	a3 01       	movw	r20, r6
    1a62:	82 e8       	ldi	r24, 0x82	; 130
    1a64:	90 e0       	ldi	r25, 0x00	; 0
    1a66:	0e 94 57 10 	call	0x20ae	; 0x20ae <_Z18ST7789_PrintStringPc6colourc>
    1a6a:	80 91 67 00 	lds	r24, 0x0067	; 0x800067 <__data_start+0x7>
    1a6e:	3e c0       	rjmp	.+124    	; 0x1aec <main+0xd00>
    1a70:	80 91 6f 00 	lds	r24, 0x006F	; 0x80006f <update_minute_night>
    1a74:	88 23       	and	r24, r24
    1a76:	09 f4       	brne	.+2      	; 0x1a7a <main+0xc8e>
    1a78:	e4 c9       	rjmp	.-3128   	; 0xe42 <main+0x56>
    1a7a:	10 92 6f 00 	sts	0x006F, r1	; 0x80006f <update_minute_night>
    1a7e:	66 ed       	ldi	r22, 0xD6	; 214
    1a80:	86 e3       	ldi	r24, 0x36	; 54
    1a82:	0e 94 5c 0f 	call	0x1eb8	; 0x1eb8 <_Z15ST7789_SetXYposcc>
    1a86:	80 91 67 00 	lds	r24, 0x0067	; 0x800067 <__data_start+0x7>
    1a8a:	8a 30       	cpi	r24, 0x0A	; 10
    1a8c:	40 f4       	brcc	.+16     	; 0x1a9e <main+0xcb2>
    1a8e:	23 e0       	ldi	r18, 0x03	; 3
    1a90:	4f e1       	ldi	r20, 0x1F	; 31
    1a92:	50 e0       	ldi	r21, 0x00	; 0
    1a94:	60 e0       	ldi	r22, 0x00	; 0
    1a96:	82 e8       	ldi	r24, 0x82	; 130
    1a98:	90 e0       	ldi	r25, 0x00	; 0
    1a9a:	0e 94 57 10 	call	0x20ae	; 0x20ae <_Z18ST7789_PrintStringPc6colourc>
    1a9e:	80 91 67 00 	lds	r24, 0x0067	; 0x800067 <__data_start+0x7>
    1aa2:	4a e0       	ldi	r20, 0x0A	; 10
    1aa4:	50 e0       	ldi	r21, 0x00	; 0
    1aa6:	6f e0       	ldi	r22, 0x0F	; 15
    1aa8:	76 e0       	ldi	r23, 0x06	; 6
    1aaa:	90 e0       	ldi	r25, 0x00	; 0
    1aac:	0e 94 67 14 	call	0x28ce	; 0x28ce <itoa>
    1ab0:	23 e0       	ldi	r18, 0x03	; 3
    1ab2:	4f e1       	ldi	r20, 0x1F	; 31
    1ab4:	50 e0       	ldi	r21, 0x00	; 0
    1ab6:	60 e0       	ldi	r22, 0x00	; 0
    1ab8:	0e 94 57 10 	call	0x20ae	; 0x20ae <_Z18ST7789_PrintStringPc6colourc>
    1abc:	80 91 0d 06 	lds	r24, 0x060D	; 0x80060d <update_schedule>
    1ac0:	88 23       	and	r24, r24
    1ac2:	09 f4       	brne	.+2      	; 0x1ac6 <main+0xcda>
    1ac4:	be c9       	rjmp	.-3204   	; 0xe42 <main+0x56>
    1ac6:	10 92 0d 06 	sts	0x060D, r1	; 0x80060d <update_schedule>
    1aca:	66 ed       	ldi	r22, 0xD6	; 214
    1acc:	80 e0       	ldi	r24, 0x00	; 0
    1ace:	0e 94 5c 0f 	call	0x1eb8	; 0x1eb8 <_Z15ST7789_SetXYposcc>
    1ad2:	80 91 66 00 	lds	r24, 0x0066	; 0x800066 <__data_start+0x6>
    1ad6:	8a 30       	cpi	r24, 0x0A	; 10
    1ad8:	38 f4       	brcc	.+14     	; 0x1ae8 <main+0xcfc>
    1ada:	23 e0       	ldi	r18, 0x03	; 3
    1adc:	68 2d       	mov	r22, r8
    1ade:	a3 01       	movw	r20, r6
    1ae0:	82 e8       	ldi	r24, 0x82	; 130
    1ae2:	90 e0       	ldi	r25, 0x00	; 0
    1ae4:	0e 94 57 10 	call	0x20ae	; 0x20ae <_Z18ST7789_PrintStringPc6colourc>
    1ae8:	80 91 66 00 	lds	r24, 0x0066	; 0x800066 <__data_start+0x6>
    1aec:	4a e0       	ldi	r20, 0x0A	; 10
    1aee:	50 e0       	ldi	r21, 0x00	; 0
    1af0:	6f e0       	ldi	r22, 0x0F	; 15
    1af2:	76 e0       	ldi	r23, 0x06	; 6
    1af4:	90 e0       	ldi	r25, 0x00	; 0
    1af6:	0e 94 67 14 	call	0x28ce	; 0x28ce <itoa>
    1afa:	23 e0       	ldi	r18, 0x03	; 3
    1afc:	68 2d       	mov	r22, r8
    1afe:	a3 01       	movw	r20, r6
    1b00:	0e 94 57 10 	call	0x20ae	; 0x20ae <_Z18ST7789_PrintStringPc6colourc>
    1b04:	9e c9       	rjmp	.-3268   	; 0xe42 <main+0x56>

00001b06 <_GLOBAL__sub_I_itoa_temp>:
    1b06:	cf 92       	push	r12
    1b08:	df 92       	push	r13
    1b0a:	ef 92       	push	r14
    1b0c:	ff 92       	push	r15
    1b0e:	0f 93       	push	r16
    1b10:	1f 93       	push	r17
    1b12:	cf 93       	push	r28
    1b14:	df 93       	push	r29
    1b16:	a8 e6       	ldi	r26, 0x68	; 104
    1b18:	b0 e0       	ldi	r27, 0x00	; 0
    1b1a:	dc 91       	ld	r29, X
    1b1c:	e8 e0       	ldi	r30, 0x08	; 8
    1b1e:	f6 e0       	ldi	r31, 0x06	; 6
    1b20:	d0 83       	st	Z, r29
    1b22:	11 96       	adiw	r26, 0x01	; 1
    1b24:	6c 91       	ld	r22, X
    1b26:	11 97       	sbiw	r26, 0x01	; 1
    1b28:	61 83       	std	Z+1, r22	; 0x01
    1b2a:	12 96       	adiw	r26, 0x02	; 2
    1b2c:	cc 91       	ld	r28, X
    1b2e:	c2 83       	std	Z+2, r28	; 0x02
    1b30:	70 e0       	ldi	r23, 0x00	; 0
    1b32:	80 e0       	ldi	r24, 0x00	; 0
    1b34:	90 e0       	ldi	r25, 0x00	; 0
    1b36:	0e 94 be 11 	call	0x237c	; 0x237c <__floatunsisf>
    1b3a:	20 e0       	ldi	r18, 0x00	; 0
    1b3c:	30 e0       	ldi	r19, 0x00	; 0
    1b3e:	40 e7       	ldi	r20, 0x70	; 112
    1b40:	52 e4       	ldi	r21, 0x42	; 66
    1b42:	0e 94 16 11 	call	0x222c	; 0x222c <__divsf3>
    1b46:	6b 01       	movw	r12, r22
    1b48:	7c 01       	movw	r14, r24
    1b4a:	6d 2f       	mov	r22, r29
    1b4c:	70 e0       	ldi	r23, 0x00	; 0
    1b4e:	80 e0       	ldi	r24, 0x00	; 0
    1b50:	90 e0       	ldi	r25, 0x00	; 0
    1b52:	0e 94 be 11 	call	0x237c	; 0x237c <__floatunsisf>
    1b56:	9b 01       	movw	r18, r22
    1b58:	ac 01       	movw	r20, r24
    1b5a:	c7 01       	movw	r24, r14
    1b5c:	b6 01       	movw	r22, r12
    1b5e:	0e 94 a5 10 	call	0x214a	; 0x214a <__addsf3>
    1b62:	6b 01       	movw	r12, r22
    1b64:	7c 01       	movw	r14, r24
    1b66:	6c 2f       	mov	r22, r28
    1b68:	70 e0       	ldi	r23, 0x00	; 0
    1b6a:	80 e0       	ldi	r24, 0x00	; 0
    1b6c:	90 e0       	ldi	r25, 0x00	; 0
    1b6e:	0e 94 be 11 	call	0x237c	; 0x237c <__floatunsisf>
    1b72:	20 e0       	ldi	r18, 0x00	; 0
    1b74:	30 e0       	ldi	r19, 0x00	; 0
    1b76:	41 e6       	ldi	r20, 0x61	; 97
    1b78:	55 e4       	ldi	r21, 0x45	; 69
    1b7a:	0e 94 16 11 	call	0x222c	; 0x222c <__divsf3>
    1b7e:	9b 01       	movw	r18, r22
    1b80:	ac 01       	movw	r20, r24
    1b82:	c7 01       	movw	r24, r14
    1b84:	b6 01       	movw	r22, r12
    1b86:	0e 94 a5 10 	call	0x214a	; 0x214a <__addsf3>
    1b8a:	60 93 04 06 	sts	0x0604, r22	; 0x800604 <time_Dec>
    1b8e:	70 93 05 06 	sts	0x0605, r23	; 0x800605 <time_Dec+0x1>
    1b92:	80 93 06 06 	sts	0x0606, r24	; 0x800606 <time_Dec+0x2>
    1b96:	90 93 07 06 	sts	0x0607, r25	; 0x800607 <time_Dec+0x3>
    1b9a:	04 ef       	ldi	r16, 0xF4	; 244
    1b9c:	15 e0       	ldi	r17, 0x05	; 5
    1b9e:	c0 e6       	ldi	r28, 0x60	; 96
    1ba0:	d0 e0       	ldi	r29, 0x00	; 0
    1ba2:	69 81       	ldd	r22, Y+1	; 0x01
    1ba4:	70 e0       	ldi	r23, 0x00	; 0
    1ba6:	80 e0       	ldi	r24, 0x00	; 0
    1ba8:	90 e0       	ldi	r25, 0x00	; 0
    1baa:	0e 94 be 11 	call	0x237c	; 0x237c <__floatunsisf>
    1bae:	20 e0       	ldi	r18, 0x00	; 0
    1bb0:	30 e0       	ldi	r19, 0x00	; 0
    1bb2:	40 e7       	ldi	r20, 0x70	; 112
    1bb4:	52 e4       	ldi	r21, 0x42	; 66
    1bb6:	0e 94 16 11 	call	0x222c	; 0x222c <__divsf3>
    1bba:	6b 01       	movw	r12, r22
    1bbc:	7c 01       	movw	r14, r24
    1bbe:	68 81       	ld	r22, Y
    1bc0:	70 e0       	ldi	r23, 0x00	; 0
    1bc2:	80 e0       	ldi	r24, 0x00	; 0
    1bc4:	90 e0       	ldi	r25, 0x00	; 0
    1bc6:	0e 94 be 11 	call	0x237c	; 0x237c <__floatunsisf>
    1bca:	9b 01       	movw	r18, r22
    1bcc:	ac 01       	movw	r20, r24
    1bce:	c7 01       	movw	r24, r14
    1bd0:	b6 01       	movw	r22, r12
    1bd2:	0e 94 a5 10 	call	0x214a	; 0x214a <__addsf3>
    1bd6:	f8 01       	movw	r30, r16
    1bd8:	60 83       	st	Z, r22
    1bda:	71 83       	std	Z+1, r23	; 0x01
    1bdc:	82 83       	std	Z+2, r24	; 0x02
    1bde:	93 83       	std	Z+3, r25	; 0x03
    1be0:	6b 81       	ldd	r22, Y+3	; 0x03
    1be2:	70 e0       	ldi	r23, 0x00	; 0
    1be4:	80 e0       	ldi	r24, 0x00	; 0
    1be6:	90 e0       	ldi	r25, 0x00	; 0
    1be8:	0e 94 be 11 	call	0x237c	; 0x237c <__floatunsisf>
    1bec:	20 e0       	ldi	r18, 0x00	; 0
    1bee:	30 e0       	ldi	r19, 0x00	; 0
    1bf0:	40 e7       	ldi	r20, 0x70	; 112
    1bf2:	52 e4       	ldi	r21, 0x42	; 66
    1bf4:	0e 94 16 11 	call	0x222c	; 0x222c <__divsf3>
    1bf8:	6b 01       	movw	r12, r22
    1bfa:	7c 01       	movw	r14, r24
    1bfc:	6a 81       	ldd	r22, Y+2	; 0x02
    1bfe:	70 e0       	ldi	r23, 0x00	; 0
    1c00:	80 e0       	ldi	r24, 0x00	; 0
    1c02:	90 e0       	ldi	r25, 0x00	; 0
    1c04:	0e 94 be 11 	call	0x237c	; 0x237c <__floatunsisf>
    1c08:	9b 01       	movw	r18, r22
    1c0a:	ac 01       	movw	r20, r24
    1c0c:	c7 01       	movw	r24, r14
    1c0e:	b6 01       	movw	r22, r12
    1c10:	0e 94 a5 10 	call	0x214a	; 0x214a <__addsf3>
    1c14:	f8 01       	movw	r30, r16
    1c16:	64 83       	std	Z+4, r22	; 0x04
    1c18:	75 83       	std	Z+5, r23	; 0x05
    1c1a:	86 83       	std	Z+6, r24	; 0x06
    1c1c:	97 83       	std	Z+7, r25	; 0x07
    1c1e:	6d 81       	ldd	r22, Y+5	; 0x05
    1c20:	70 e0       	ldi	r23, 0x00	; 0
    1c22:	80 e0       	ldi	r24, 0x00	; 0
    1c24:	90 e0       	ldi	r25, 0x00	; 0
    1c26:	0e 94 be 11 	call	0x237c	; 0x237c <__floatunsisf>
    1c2a:	20 e0       	ldi	r18, 0x00	; 0
    1c2c:	30 e0       	ldi	r19, 0x00	; 0
    1c2e:	40 e7       	ldi	r20, 0x70	; 112
    1c30:	52 e4       	ldi	r21, 0x42	; 66
    1c32:	0e 94 16 11 	call	0x222c	; 0x222c <__divsf3>
    1c36:	6b 01       	movw	r12, r22
    1c38:	7c 01       	movw	r14, r24
    1c3a:	6c 81       	ldd	r22, Y+4	; 0x04
    1c3c:	70 e0       	ldi	r23, 0x00	; 0
    1c3e:	80 e0       	ldi	r24, 0x00	; 0
    1c40:	90 e0       	ldi	r25, 0x00	; 0
    1c42:	0e 94 be 11 	call	0x237c	; 0x237c <__floatunsisf>
    1c46:	9b 01       	movw	r18, r22
    1c48:	ac 01       	movw	r20, r24
    1c4a:	c7 01       	movw	r24, r14
    1c4c:	b6 01       	movw	r22, r12
    1c4e:	0e 94 a5 10 	call	0x214a	; 0x214a <__addsf3>
    1c52:	f8 01       	movw	r30, r16
    1c54:	60 87       	std	Z+8, r22	; 0x08
    1c56:	71 87       	std	Z+9, r23	; 0x09
    1c58:	82 87       	std	Z+10, r24	; 0x0a
    1c5a:	93 87       	std	Z+11, r25	; 0x0b
    1c5c:	6f 81       	ldd	r22, Y+7	; 0x07
    1c5e:	70 e0       	ldi	r23, 0x00	; 0
    1c60:	80 e0       	ldi	r24, 0x00	; 0
    1c62:	90 e0       	ldi	r25, 0x00	; 0
    1c64:	0e 94 be 11 	call	0x237c	; 0x237c <__floatunsisf>
    1c68:	20 e0       	ldi	r18, 0x00	; 0
    1c6a:	30 e0       	ldi	r19, 0x00	; 0
    1c6c:	40 e7       	ldi	r20, 0x70	; 112
    1c6e:	52 e4       	ldi	r21, 0x42	; 66
    1c70:	0e 94 16 11 	call	0x222c	; 0x222c <__divsf3>
    1c74:	6b 01       	movw	r12, r22
    1c76:	7c 01       	movw	r14, r24
    1c78:	6e 81       	ldd	r22, Y+6	; 0x06
    1c7a:	70 e0       	ldi	r23, 0x00	; 0
    1c7c:	80 e0       	ldi	r24, 0x00	; 0
    1c7e:	90 e0       	ldi	r25, 0x00	; 0
    1c80:	0e 94 be 11 	call	0x237c	; 0x237c <__floatunsisf>
    1c84:	9b 01       	movw	r18, r22
    1c86:	ac 01       	movw	r20, r24
    1c88:	c7 01       	movw	r24, r14
    1c8a:	b6 01       	movw	r22, r12
    1c8c:	0e 94 a5 10 	call	0x214a	; 0x214a <__addsf3>
    1c90:	f8 01       	movw	r30, r16
    1c92:	64 87       	std	Z+12, r22	; 0x0c
    1c94:	75 87       	std	Z+13, r23	; 0x0d
    1c96:	86 87       	std	Z+14, r24	; 0x0e
    1c98:	97 87       	std	Z+15, r25	; 0x0f
    1c9a:	df 91       	pop	r29
    1c9c:	cf 91       	pop	r28
    1c9e:	1f 91       	pop	r17
    1ca0:	0f 91       	pop	r16
    1ca2:	ff 90       	pop	r15
    1ca4:	ef 90       	pop	r14
    1ca6:	df 90       	pop	r13
    1ca8:	cf 90       	pop	r12
    1caa:	08 95       	ret

00001cac <_Z4Sendc>:
    1cac:	8f b9       	out	0x0f, r24	; 15
    1cae:	77 9b       	sbis	0x0e, 7	; 14
    1cb0:	fe cf       	rjmp	.-4      	; 0x1cae <_Z4Sendc+0x2>
    1cb2:	08 95       	ret

00001cb4 <_Z20ST7789_DrawRectangleccccccc.part.0>:
    1cb4:	cf 92       	push	r12
    1cb6:	df 92       	push	r13
    1cb8:	ef 92       	push	r14
    1cba:	ff 92       	push	r15
    1cbc:	0f 93       	push	r16
    1cbe:	1f 93       	push	r17
    1cc0:	cf 93       	push	r28
    1cc2:	df 93       	push	r29
    1cc4:	18 2f       	mov	r17, r24
    1cc6:	d6 2f       	mov	r29, r22
    1cc8:	c4 2f       	mov	r28, r20
    1cca:	f2 2e       	mov	r15, r18
    1ccc:	aa 98       	cbi	0x15, 2	; 21
    1cce:	8a e2       	ldi	r24, 0x2A	; 42
    1cd0:	0e 94 56 0e 	call	0x1cac	; 0x1cac <_Z4Sendc>
    1cd4:	aa 9a       	sbi	0x15, 2	; 21
    1cd6:	80 e0       	ldi	r24, 0x00	; 0
    1cd8:	0e 94 56 0e 	call	0x1cac	; 0x1cac <_Z4Sendc>
    1cdc:	81 2f       	mov	r24, r17
    1cde:	0e 94 56 0e 	call	0x1cac	; 0x1cac <_Z4Sendc>
    1ce2:	8c 2f       	mov	r24, r28
    1ce4:	90 e0       	ldi	r25, 0x00	; 0
    1ce6:	81 0f       	add	r24, r17
    1ce8:	91 1d       	adc	r25, r1
    1cea:	01 97       	sbiw	r24, 0x01	; 1
    1cec:	89 2f       	mov	r24, r25
    1cee:	0e 94 56 0e 	call	0x1cac	; 0x1cac <_Z4Sendc>
    1cf2:	8f ef       	ldi	r24, 0xFF	; 255
    1cf4:	8c 0f       	add	r24, r28
    1cf6:	81 0f       	add	r24, r17
    1cf8:	0e 94 56 0e 	call	0x1cac	; 0x1cac <_Z4Sendc>
    1cfc:	aa 98       	cbi	0x15, 2	; 21
    1cfe:	8b e2       	ldi	r24, 0x2B	; 43
    1d00:	0e 94 56 0e 	call	0x1cac	; 0x1cac <_Z4Sendc>
    1d04:	aa 9a       	sbi	0x15, 2	; 21
    1d06:	80 e0       	ldi	r24, 0x00	; 0
    1d08:	0e 94 56 0e 	call	0x1cac	; 0x1cac <_Z4Sendc>
    1d0c:	8d 2f       	mov	r24, r29
    1d0e:	0e 94 56 0e 	call	0x1cac	; 0x1cac <_Z4Sendc>
    1d12:	8f 2d       	mov	r24, r15
    1d14:	90 e0       	ldi	r25, 0x00	; 0
    1d16:	8d 0f       	add	r24, r29
    1d18:	91 1d       	adc	r25, r1
    1d1a:	01 97       	sbiw	r24, 0x01	; 1
    1d1c:	89 2f       	mov	r24, r25
    1d1e:	0e 94 56 0e 	call	0x1cac	; 0x1cac <_Z4Sendc>
    1d22:	8f ef       	ldi	r24, 0xFF	; 255
    1d24:	8f 0d       	add	r24, r15
    1d26:	8d 0f       	add	r24, r29
    1d28:	0e 94 56 0e 	call	0x1cac	; 0x1cac <_Z4Sendc>
    1d2c:	aa 98       	cbi	0x15, 2	; 21
    1d2e:	8c e2       	ldi	r24, 0x2C	; 44
    1d30:	0e 94 56 0e 	call	0x1cac	; 0x1cac <_Z4Sendc>
    1d34:	aa 9a       	sbi	0x15, 2	; 21
    1d36:	cf 9d       	mul	r28, r15
    1d38:	e0 01       	movw	r28, r0
    1d3a:	11 24       	eor	r1, r1
    1d3c:	f1 2c       	mov	r15, r1
    1d3e:	88 e0       	ldi	r24, 0x08	; 8
    1d40:	08 9f       	mul	r16, r24
    1d42:	80 01       	movw	r16, r0
    1d44:	11 24       	eor	r1, r1
    1d46:	c7 01       	movw	r24, r14
    1d48:	23 e0       	ldi	r18, 0x03	; 3
    1d4a:	95 95       	asr	r25
    1d4c:	87 95       	ror	r24
    1d4e:	2a 95       	dec	r18
    1d50:	e1 f7       	brne	.-8      	; 0x1d4a <_Z20ST7789_DrawRectangleccccccc.part.0+0x96>
    1d52:	08 2b       	or	r16, r24
    1d54:	35 e0       	ldi	r19, 0x05	; 5
    1d56:	ee 0c       	add	r14, r14
    1d58:	ff 1c       	adc	r15, r15
    1d5a:	3a 95       	dec	r19
    1d5c:	e1 f7       	brne	.-8      	; 0x1d56 <_Z20ST7789_DrawRectangleccccccc.part.0+0xa2>
    1d5e:	ec 28       	or	r14, r12
    1d60:	c1 2c       	mov	r12, r1
    1d62:	d1 2c       	mov	r13, r1
    1d64:	cc 15       	cp	r28, r12
    1d66:	dd 05       	cpc	r29, r13
    1d68:	51 f0       	breq	.+20     	; 0x1d7e <_Z20ST7789_DrawRectangleccccccc.part.0+0xca>
    1d6a:	80 2f       	mov	r24, r16
    1d6c:	0e 94 56 0e 	call	0x1cac	; 0x1cac <_Z4Sendc>
    1d70:	8e 2d       	mov	r24, r14
    1d72:	0e 94 56 0e 	call	0x1cac	; 0x1cac <_Z4Sendc>
    1d76:	8f ef       	ldi	r24, 0xFF	; 255
    1d78:	c8 1a       	sub	r12, r24
    1d7a:	d8 0a       	sbc	r13, r24
    1d7c:	f3 cf       	rjmp	.-26     	; 0x1d64 <_Z20ST7789_DrawRectangleccccccc.part.0+0xb0>
    1d7e:	df 91       	pop	r29
    1d80:	cf 91       	pop	r28
    1d82:	1f 91       	pop	r17
    1d84:	0f 91       	pop	r16
    1d86:	ff 90       	pop	r15
    1d88:	ef 90       	pop	r14
    1d8a:	df 90       	pop	r13
    1d8c:	cf 90       	pop	r12
    1d8e:	08 95       	ret

00001d90 <_Z8SendDatac>:
    1d90:	aa 9a       	sbi	0x15, 2	; 21
    1d92:	8f b9       	out	0x0f, r24	; 15
    1d94:	77 9b       	sbis	0x0e, 7	; 14
    1d96:	fe cf       	rjmp	.-4      	; 0x1d94 <_Z8SendDatac+0x4>
    1d98:	08 95       	ret

00001d9a <_Z11SendCommandc>:
    1d9a:	aa 98       	cbi	0x15, 2	; 21
    1d9c:	8f b9       	out	0x0f, r24	; 15
    1d9e:	77 9b       	sbis	0x0e, 7	; 14
    1da0:	fe cf       	rjmp	.-4      	; 0x1d9e <_Z11SendCommandc+0x4>
    1da2:	08 95       	ret

00001da4 <_Z14ST7789_InitSPIv>:
    1da4:	87 b3       	in	r24, 0x17	; 23
    1da6:	80 6b       	ori	r24, 0xB0	; 176
    1da8:	87 bb       	out	0x17, r24	; 23
    1daa:	88 b3       	in	r24, 0x18	; 24
    1dac:	80 6f       	ori	r24, 0xF0	; 240
    1dae:	88 bb       	out	0x18, r24	; 24
    1db0:	8c e5       	ldi	r24, 0x5C	; 92
    1db2:	8d b9       	out	0x0d, r24	; 13
    1db4:	1e b8       	out	0x0e, r1	; 14
    1db6:	a3 9a       	sbi	0x14, 3	; 20
    1db8:	ab 9a       	sbi	0x15, 3	; 21
    1dba:	a2 9a       	sbi	0x14, 2	; 20
    1dbc:	aa 9a       	sbi	0x15, 2	; 21
    1dbe:	08 95       	ret

00001dc0 <_Z17ST7789_InitST7789v>:
    1dc0:	ab 9a       	sbi	0x15, 3	; 21
    1dc2:	81 ee       	ldi	r24, 0xE1	; 225
    1dc4:	94 e0       	ldi	r25, 0x04	; 4
    1dc6:	01 97       	sbiw	r24, 0x01	; 1
    1dc8:	f1 f7       	brne	.-4      	; 0x1dc6 <_Z17ST7789_InitST7789v+0x6>
    1dca:	00 c0       	rjmp	.+0      	; 0x1dcc <_Z17ST7789_InitST7789v+0xc>
    1dcc:	00 00       	nop
    1dce:	ab 98       	cbi	0x15, 3	; 21
    1dd0:	81 ee       	ldi	r24, 0xE1	; 225
    1dd2:	94 e0       	ldi	r25, 0x04	; 4
    1dd4:	01 97       	sbiw	r24, 0x01	; 1
    1dd6:	f1 f7       	brne	.-4      	; 0x1dd4 <_Z17ST7789_InitST7789v+0x14>
    1dd8:	00 c0       	rjmp	.+0      	; 0x1dda <_Z17ST7789_InitST7789v+0x1a>
    1dda:	00 00       	nop
    1ddc:	ab 9a       	sbi	0x15, 3	; 21
    1dde:	81 ee       	ldi	r24, 0xE1	; 225
    1de0:	94 e0       	ldi	r25, 0x04	; 4
    1de2:	01 97       	sbiw	r24, 0x01	; 1
    1de4:	f1 f7       	brne	.-4      	; 0x1de2 <_Z17ST7789_InitST7789v+0x22>
    1de6:	00 c0       	rjmp	.+0      	; 0x1de8 <_Z17ST7789_InitST7789v+0x28>
    1de8:	00 00       	nop
    1dea:	81 e0       	ldi	r24, 0x01	; 1
    1dec:	0e 94 cd 0e 	call	0x1d9a	; 0x1d9a <_Z11SendCommandc>
    1df0:	83 ec       	ldi	r24, 0xC3	; 195
    1df2:	99 e0       	ldi	r25, 0x09	; 9
    1df4:	01 97       	sbiw	r24, 0x01	; 1
    1df6:	f1 f7       	brne	.-4      	; 0x1df4 <_Z17ST7789_InitST7789v+0x34>
    1df8:	00 c0       	rjmp	.+0      	; 0x1dfa <_Z17ST7789_InitST7789v+0x3a>
    1dfa:	00 00       	nop
    1dfc:	81 e1       	ldi	r24, 0x11	; 17
    1dfe:	0e 94 cd 0e 	call	0x1d9a	; 0x1d9a <_Z11SendCommandc>
    1e02:	83 ec       	ldi	r24, 0xC3	; 195
    1e04:	99 e0       	ldi	r25, 0x09	; 9
    1e06:	01 97       	sbiw	r24, 0x01	; 1
    1e08:	f1 f7       	brne	.-4      	; 0x1e06 <_Z17ST7789_InitST7789v+0x46>
    1e0a:	00 c0       	rjmp	.+0      	; 0x1e0c <_Z17ST7789_InitST7789v+0x4c>
    1e0c:	00 00       	nop
    1e0e:	8a e3       	ldi	r24, 0x3A	; 58
    1e10:	0e 94 cd 0e 	call	0x1d9a	; 0x1d9a <_Z11SendCommandc>
    1e14:	85 e0       	ldi	r24, 0x05	; 5
    1e16:	0e 94 c8 0e 	call	0x1d90	; 0x1d90 <_Z8SendDatac>
    1e1a:	83 ec       	ldi	r24, 0xC3	; 195
    1e1c:	99 e0       	ldi	r25, 0x09	; 9
    1e1e:	01 97       	sbiw	r24, 0x01	; 1
    1e20:	f1 f7       	brne	.-4      	; 0x1e1e <_Z17ST7789_InitST7789v+0x5e>
    1e22:	00 c0       	rjmp	.+0      	; 0x1e24 <_Z17ST7789_InitST7789v+0x64>
    1e24:	00 00       	nop
    1e26:	86 e3       	ldi	r24, 0x36	; 54
    1e28:	0e 94 cd 0e 	call	0x1d9a	; 0x1d9a <_Z11SendCommandc>
    1e2c:	80 e0       	ldi	r24, 0x00	; 0
    1e2e:	0e 94 c8 0e 	call	0x1d90	; 0x1d90 <_Z8SendDatac>
    1e32:	83 ec       	ldi	r24, 0xC3	; 195
    1e34:	99 e0       	ldi	r25, 0x09	; 9
    1e36:	01 97       	sbiw	r24, 0x01	; 1
    1e38:	f1 f7       	brne	.-4      	; 0x1e36 <_Z17ST7789_InitST7789v+0x76>
    1e3a:	00 c0       	rjmp	.+0      	; 0x1e3c <_Z17ST7789_InitST7789v+0x7c>
    1e3c:	00 00       	nop
    1e3e:	8a e2       	ldi	r24, 0x2A	; 42
    1e40:	0e 94 cd 0e 	call	0x1d9a	; 0x1d9a <_Z11SendCommandc>
    1e44:	80 e0       	ldi	r24, 0x00	; 0
    1e46:	0e 94 c8 0e 	call	0x1d90	; 0x1d90 <_Z8SendDatac>
    1e4a:	80 e0       	ldi	r24, 0x00	; 0
    1e4c:	0e 94 c8 0e 	call	0x1d90	; 0x1d90 <_Z8SendDatac>
    1e50:	80 e0       	ldi	r24, 0x00	; 0
    1e52:	0e 94 c8 0e 	call	0x1d90	; 0x1d90 <_Z8SendDatac>
    1e56:	80 ef       	ldi	r24, 0xF0	; 240
    1e58:	0e 94 c8 0e 	call	0x1d90	; 0x1d90 <_Z8SendDatac>
    1e5c:	83 ec       	ldi	r24, 0xC3	; 195
    1e5e:	99 e0       	ldi	r25, 0x09	; 9
    1e60:	01 97       	sbiw	r24, 0x01	; 1
    1e62:	f1 f7       	brne	.-4      	; 0x1e60 <_Z17ST7789_InitST7789v+0xa0>
    1e64:	00 c0       	rjmp	.+0      	; 0x1e66 <_Z17ST7789_InitST7789v+0xa6>
    1e66:	00 00       	nop
    1e68:	8b e2       	ldi	r24, 0x2B	; 43
    1e6a:	0e 94 cd 0e 	call	0x1d9a	; 0x1d9a <_Z11SendCommandc>
    1e6e:	80 e0       	ldi	r24, 0x00	; 0
    1e70:	0e 94 c8 0e 	call	0x1d90	; 0x1d90 <_Z8SendDatac>
    1e74:	80 e0       	ldi	r24, 0x00	; 0
    1e76:	0e 94 c8 0e 	call	0x1d90	; 0x1d90 <_Z8SendDatac>
    1e7a:	80 e0       	ldi	r24, 0x00	; 0
    1e7c:	0e 94 c8 0e 	call	0x1d90	; 0x1d90 <_Z8SendDatac>
    1e80:	80 ef       	ldi	r24, 0xF0	; 240
    1e82:	0e 94 c8 0e 	call	0x1d90	; 0x1d90 <_Z8SendDatac>
    1e86:	83 ec       	ldi	r24, 0xC3	; 195
    1e88:	99 e0       	ldi	r25, 0x09	; 9
    1e8a:	01 97       	sbiw	r24, 0x01	; 1
    1e8c:	f1 f7       	brne	.-4      	; 0x1e8a <_Z17ST7789_InitST7789v+0xca>
    1e8e:	00 c0       	rjmp	.+0      	; 0x1e90 <_Z17ST7789_InitST7789v+0xd0>
    1e90:	00 00       	nop
    1e92:	81 e2       	ldi	r24, 0x21	; 33
    1e94:	0e 94 cd 0e 	call	0x1d9a	; 0x1d9a <_Z11SendCommandc>
    1e98:	83 ec       	ldi	r24, 0xC3	; 195
    1e9a:	99 e0       	ldi	r25, 0x09	; 9
    1e9c:	01 97       	sbiw	r24, 0x01	; 1
    1e9e:	f1 f7       	brne	.-4      	; 0x1e9c <_Z17ST7789_InitST7789v+0xdc>
    1ea0:	00 c0       	rjmp	.+0      	; 0x1ea2 <_Z17ST7789_InitST7789v+0xe2>
    1ea2:	00 00       	nop
    1ea4:	89 e2       	ldi	r24, 0x29	; 41
    1ea6:	0e 94 cd 0e 	call	0x1d9a	; 0x1d9a <_Z11SendCommandc>
    1eaa:	83 ec       	ldi	r24, 0xC3	; 195
    1eac:	99 e0       	ldi	r25, 0x09	; 9
    1eae:	01 97       	sbiw	r24, 0x01	; 1
    1eb0:	f1 f7       	brne	.-4      	; 0x1eae <_Z17ST7789_InitST7789v+0xee>
    1eb2:	00 c0       	rjmp	.+0      	; 0x1eb4 <_Z17ST7789_InitST7789v+0xf4>
    1eb4:	00 00       	nop
    1eb6:	08 95       	ret

00001eb8 <_Z15ST7789_SetXYposcc>:
    1eb8:	80 93 19 06 	sts	0x0619, r24	; 0x800619 <xpos>
    1ebc:	60 93 18 06 	sts	0x0618, r22	; 0x800618 <ypos>
    1ec0:	08 95       	ret

00001ec2 <_Z20ST7789_DrawRectangleccccccc>:
    1ec2:	cf 92       	push	r12
    1ec4:	ef 92       	push	r14
    1ec6:	0f 93       	push	r16
    1ec8:	81 3f       	cpi	r24, 0xF1	; 241
    1eca:	20 f4       	brcc	.+8      	; 0x1ed4 <_Z20ST7789_DrawRectangleccccccc+0x12>
    1ecc:	61 3f       	cpi	r22, 0xF1	; 241
    1ece:	10 f4       	brcc	.+4      	; 0x1ed4 <_Z20ST7789_DrawRectangleccccccc+0x12>
    1ed0:	0e 94 5a 0e 	call	0x1cb4	; 0x1cb4 <_Z20ST7789_DrawRectangleccccccc.part.0>
    1ed4:	0f 91       	pop	r16
    1ed6:	ef 90       	pop	r14
    1ed8:	cf 90       	pop	r12
    1eda:	08 95       	ret

00001edc <_Z17ST7789_FillScreen6colour>:
    1edc:	cf 92       	push	r12
    1ede:	ef 92       	push	r14
    1ee0:	0f 93       	push	r16
    1ee2:	c8 2e       	mov	r12, r24
    1ee4:	e7 2e       	mov	r14, r23
    1ee6:	06 2f       	mov	r16, r22
    1ee8:	20 ef       	ldi	r18, 0xF0	; 240
    1eea:	40 ef       	ldi	r20, 0xF0	; 240
    1eec:	60 e0       	ldi	r22, 0x00	; 0
    1eee:	80 e0       	ldi	r24, 0x00	; 0
    1ef0:	0e 94 5a 0e 	call	0x1cb4	; 0x1cb4 <_Z20ST7789_DrawRectangleccccccc.part.0>
    1ef4:	0f 91       	pop	r16
    1ef6:	ef 90       	pop	r14
    1ef8:	cf 90       	pop	r12
    1efa:	08 95       	ret

00001efc <_Z16ST7789_PrintCharcccccccc>:
    1efc:	2f 92       	push	r2
    1efe:	3f 92       	push	r3
    1f00:	4f 92       	push	r4
    1f02:	5f 92       	push	r5
    1f04:	6f 92       	push	r6
    1f06:	7f 92       	push	r7
    1f08:	8f 92       	push	r8
    1f0a:	9f 92       	push	r9
    1f0c:	af 92       	push	r10
    1f0e:	bf 92       	push	r11
    1f10:	cf 92       	push	r12
    1f12:	df 92       	push	r13
    1f14:	ef 92       	push	r14
    1f16:	ff 92       	push	r15
    1f18:	0f 93       	push	r16
    1f1a:	1f 93       	push	r17
    1f1c:	cf 93       	push	r28
    1f1e:	df 93       	push	r29
    1f20:	00 d0       	rcall	.+0      	; 0x1f22 <_Z16ST7789_PrintCharcccccccc+0x26>
    1f22:	00 d0       	rcall	.+0      	; 0x1f24 <_Z16ST7789_PrintCharcccccccc+0x28>
    1f24:	00 d0       	rcall	.+0      	; 0x1f26 <_Z16ST7789_PrintCharcccccccc+0x2a>
    1f26:	cd b7       	in	r28, 0x3d	; 61
    1f28:	de b7       	in	r29, 0x3e	; 62
    1f2a:	6b 83       	std	Y+3, r22	; 0x03
    1f2c:	4c 83       	std	Y+4, r20	; 0x04
    1f2e:	f2 2e       	mov	r15, r18
    1f30:	d0 2e       	mov	r13, r16
    1f32:	be 2c       	mov	r11, r14
    1f34:	3c 2c       	mov	r3, r12
    1f36:	90 91 19 06 	lds	r25, 0x0619	; 0x800619 <xpos>
    1f3a:	46 e0       	ldi	r20, 0x06	; 6
    1f3c:	a4 9e       	mul	r10, r20
    1f3e:	90 01       	movw	r18, r0
    1f40:	11 24       	eor	r1, r1
    1f42:	29 0f       	add	r18, r25
    1f44:	31 1d       	adc	r19, r1
    1f46:	1a 2d       	mov	r17, r10
    1f48:	11 0f       	add	r17, r17
    1f4a:	11 0f       	add	r17, r17
    1f4c:	11 0f       	add	r17, r17
    1f4e:	21 3f       	cpi	r18, 0xF1	; 241
    1f50:	31 05       	cpc	r19, r1
    1f52:	3c f0       	brlt	.+14     	; 0x1f62 <_Z16ST7789_PrintCharcccccccc+0x66>
    1f54:	10 92 19 06 	sts	0x0619, r1	; 0x800619 <xpos>
    1f58:	90 91 18 06 	lds	r25, 0x0618	; 0x800618 <ypos>
    1f5c:	91 0f       	add	r25, r17
    1f5e:	90 93 18 06 	sts	0x0618, r25	; 0x800618 <ypos>
    1f62:	96 e0       	ldi	r25, 0x06	; 6
    1f64:	89 9f       	mul	r24, r25
    1f66:	30 01       	movw	r6, r0
    1f68:	11 24       	eor	r1, r1
    1f6a:	1e 82       	std	Y+6, r1	; 0x06
    1f6c:	1d 82       	std	Y+5, r1	; 0x05
    1f6e:	44 24       	eor	r4, r4
    1f70:	43 94       	inc	r4
    1f72:	51 2c       	mov	r5, r1
    1f74:	8d 81       	ldd	r24, Y+5	; 0x05
    1f76:	9e 81       	ldd	r25, Y+6	; 0x06
    1f78:	86 0d       	add	r24, r6
    1f7a:	97 1d       	adc	r25, r7
    1f7c:	fc 01       	movw	r30, r24
    1f7e:	ec 50       	subi	r30, 0x0C	; 12
    1f80:	f0 40       	sbci	r31, 0x00	; 0
    1f82:	fa 83       	std	Y+2, r31	; 0x02
    1f84:	e9 83       	std	Y+1, r30	; 0x01
    1f86:	21 2c       	mov	r2, r1
    1f88:	87 e0       	ldi	r24, 0x07	; 7
    1f8a:	88 2e       	mov	r8, r24
    1f8c:	91 2c       	mov	r9, r1
    1f8e:	e9 81       	ldd	r30, Y+1	; 0x01
    1f90:	fa 81       	ldd	r31, Y+2	; 0x02
    1f92:	80 81       	ld	r24, Z
    1f94:	28 2f       	mov	r18, r24
    1f96:	30 e0       	ldi	r19, 0x00	; 0
    1f98:	c2 01       	movw	r24, r4
    1f9a:	08 2c       	mov	r0, r8
    1f9c:	02 c0       	rjmp	.+4      	; 0x1fa2 <_Z16ST7789_PrintCharcccccccc+0xa6>
    1f9e:	88 0f       	add	r24, r24
    1fa0:	99 1f       	adc	r25, r25
    1fa2:	0a 94       	dec	r0
    1fa4:	e2 f7       	brpl	.-8      	; 0x1f9e <_Z16ST7789_PrintCharcccccccc+0xa2>
    1fa6:	82 23       	and	r24, r18
    1fa8:	93 23       	and	r25, r19
    1faa:	60 91 18 06 	lds	r22, 0x0618	; 0x800618 <ypos>
    1fae:	62 0d       	add	r22, r2
    1fb0:	89 2b       	or	r24, r25
    1fb2:	21 f0       	breq	.+8      	; 0x1fbc <_Z16ST7789_PrintCharcccccccc+0xc0>
    1fb4:	cf 2c       	mov	r12, r15
    1fb6:	ec 80       	ldd	r14, Y+4	; 0x04
    1fb8:	0b 81       	ldd	r16, Y+3	; 0x03
    1fba:	03 c0       	rjmp	.+6      	; 0x1fc2 <_Z16ST7789_PrintCharcccccccc+0xc6>
    1fbc:	c3 2c       	mov	r12, r3
    1fbe:	eb 2c       	mov	r14, r11
    1fc0:	0d 2d       	mov	r16, r13
    1fc2:	2a 2d       	mov	r18, r10
    1fc4:	4a 2d       	mov	r20, r10
    1fc6:	80 91 19 06 	lds	r24, 0x0619	; 0x800619 <xpos>
    1fca:	0e 94 61 0f 	call	0x1ec2	; 0x1ec2 <_Z20ST7789_DrawRectangleccccccc>
    1fce:	f1 e0       	ldi	r31, 0x01	; 1
    1fd0:	8f 1a       	sub	r8, r31
    1fd2:	91 08       	sbc	r9, r1
    1fd4:	2a 0c       	add	r2, r10
    1fd6:	2f ef       	ldi	r18, 0xFF	; 255
    1fd8:	82 16       	cp	r8, r18
    1fda:	92 06       	cpc	r9, r18
    1fdc:	c1 f6       	brne	.-80     	; 0x1f8e <_Z16ST7789_PrintCharcccccccc+0x92>
    1fde:	80 91 19 06 	lds	r24, 0x0619	; 0x800619 <xpos>
    1fe2:	8a 0d       	add	r24, r10
    1fe4:	80 3f       	cpi	r24, 0xF0	; 240
    1fe6:	18 f4       	brcc	.+6      	; 0x1fee <_Z16ST7789_PrintCharcccccccc+0xf2>
    1fe8:	80 93 19 06 	sts	0x0619, r24	; 0x800619 <xpos>
    1fec:	07 c0       	rjmp	.+14     	; 0x1ffc <_Z16ST7789_PrintCharcccccccc+0x100>
    1fee:	10 92 19 06 	sts	0x0619, r1	; 0x800619 <xpos>
    1ff2:	80 91 18 06 	lds	r24, 0x0618	; 0x800618 <ypos>
    1ff6:	81 0f       	add	r24, r17
    1ff8:	80 93 18 06 	sts	0x0618, r24	; 0x800618 <ypos>
    1ffc:	80 91 18 06 	lds	r24, 0x0618	; 0x800618 <ypos>
    2000:	80 3f       	cpi	r24, 0xF0	; 240
    2002:	20 f0       	brcs	.+8      	; 0x200c <_Z16ST7789_PrintCharcccccccc+0x110>
    2004:	10 92 19 06 	sts	0x0619, r1	; 0x800619 <xpos>
    2008:	10 92 18 06 	sts	0x0618, r1	; 0x800618 <ypos>
    200c:	8d 81       	ldd	r24, Y+5	; 0x05
    200e:	9e 81       	ldd	r25, Y+6	; 0x06
    2010:	01 96       	adiw	r24, 0x01	; 1
    2012:	9e 83       	std	Y+6, r25	; 0x06
    2014:	8d 83       	std	Y+5, r24	; 0x05
    2016:	06 97       	sbiw	r24, 0x06	; 6
    2018:	09 f0       	breq	.+2      	; 0x201c <_Z16ST7789_PrintCharcccccccc+0x120>
    201a:	ac cf       	rjmp	.-168    	; 0x1f74 <_Z16ST7789_PrintCharcccccccc+0x78>
    201c:	26 96       	adiw	r28, 0x06	; 6
    201e:	0f b6       	in	r0, 0x3f	; 63
    2020:	f8 94       	cli
    2022:	de bf       	out	0x3e, r29	; 62
    2024:	0f be       	out	0x3f, r0	; 63
    2026:	cd bf       	out	0x3d, r28	; 61
    2028:	df 91       	pop	r29
    202a:	cf 91       	pop	r28
    202c:	1f 91       	pop	r17
    202e:	0f 91       	pop	r16
    2030:	ff 90       	pop	r15
    2032:	ef 90       	pop	r14
    2034:	df 90       	pop	r13
    2036:	cf 90       	pop	r12
    2038:	bf 90       	pop	r11
    203a:	af 90       	pop	r10
    203c:	9f 90       	pop	r9
    203e:	8f 90       	pop	r8
    2040:	7f 90       	pop	r7
    2042:	6f 90       	pop	r6
    2044:	5f 90       	pop	r5
    2046:	4f 90       	pop	r4
    2048:	3f 90       	pop	r3
    204a:	2f 90       	pop	r2
    204c:	08 95       	ret

0000204e <_Z18ST7789_PrintStringPcccccccc>:
    204e:	7f 92       	push	r7
    2050:	8f 92       	push	r8
    2052:	9f 92       	push	r9
    2054:	af 92       	push	r10
    2056:	bf 92       	push	r11
    2058:	cf 92       	push	r12
    205a:	df 92       	push	r13
    205c:	ef 92       	push	r14
    205e:	ff 92       	push	r15
    2060:	0f 93       	push	r16
    2062:	1f 93       	push	r17
    2064:	cf 93       	push	r28
    2066:	df 93       	push	r29
    2068:	16 2f       	mov	r17, r22
    206a:	f4 2e       	mov	r15, r20
    206c:	d2 2e       	mov	r13, r18
    206e:	b0 2e       	mov	r11, r16
    2070:	9e 2c       	mov	r9, r14
    2072:	8c 2c       	mov	r8, r12
    2074:	7a 2c       	mov	r7, r10
    2076:	ec 01       	movw	r28, r24
    2078:	89 91       	ld	r24, Y+
    207a:	88 23       	and	r24, r24
    207c:	51 f0       	breq	.+20     	; 0x2092 <_Z18ST7789_PrintStringPcccccccc+0x44>
    207e:	a7 2c       	mov	r10, r7
    2080:	c8 2c       	mov	r12, r8
    2082:	e9 2c       	mov	r14, r9
    2084:	0b 2d       	mov	r16, r11
    2086:	2d 2d       	mov	r18, r13
    2088:	4f 2d       	mov	r20, r15
    208a:	61 2f       	mov	r22, r17
    208c:	0e 94 7e 0f 	call	0x1efc	; 0x1efc <_Z16ST7789_PrintCharcccccccc>
    2090:	f3 cf       	rjmp	.-26     	; 0x2078 <_Z18ST7789_PrintStringPcccccccc+0x2a>
    2092:	df 91       	pop	r29
    2094:	cf 91       	pop	r28
    2096:	1f 91       	pop	r17
    2098:	0f 91       	pop	r16
    209a:	ff 90       	pop	r15
    209c:	ef 90       	pop	r14
    209e:	df 90       	pop	r13
    20a0:	cf 90       	pop	r12
    20a2:	bf 90       	pop	r11
    20a4:	af 90       	pop	r10
    20a6:	9f 90       	pop	r9
    20a8:	8f 90       	pop	r8
    20aa:	7f 90       	pop	r7
    20ac:	08 95       	ret

000020ae <_Z18ST7789_PrintStringPc6colourc>:
    20ae:	af 92       	push	r10
    20b0:	cf 92       	push	r12
    20b2:	ef 92       	push	r14
    20b4:	0f 93       	push	r16
    20b6:	34 2f       	mov	r19, r20
    20b8:	45 2f       	mov	r20, r21
    20ba:	a2 2e       	mov	r10, r18
    20bc:	c1 2c       	mov	r12, r1
    20be:	e1 2c       	mov	r14, r1
    20c0:	00 e0       	ldi	r16, 0x00	; 0
    20c2:	26 2f       	mov	r18, r22
    20c4:	63 2f       	mov	r22, r19
    20c6:	0e 94 27 10 	call	0x204e	; 0x204e <_Z18ST7789_PrintStringPcccccccc>
    20ca:	0f 91       	pop	r16
    20cc:	ef 90       	pop	r14
    20ce:	cf 90       	pop	r12
    20d0:	af 90       	pop	r10
    20d2:	08 95       	ret

000020d4 <__udivmodqi4>:
    20d4:	99 1b       	sub	r25, r25
    20d6:	79 e0       	ldi	r23, 0x09	; 9
    20d8:	04 c0       	rjmp	.+8      	; 0x20e2 <__udivmodqi4_ep>

000020da <__udivmodqi4_loop>:
    20da:	99 1f       	adc	r25, r25
    20dc:	96 17       	cp	r25, r22
    20de:	08 f0       	brcs	.+2      	; 0x20e2 <__udivmodqi4_ep>
    20e0:	96 1b       	sub	r25, r22

000020e2 <__udivmodqi4_ep>:
    20e2:	88 1f       	adc	r24, r24
    20e4:	7a 95       	dec	r23
    20e6:	c9 f7       	brne	.-14     	; 0x20da <__udivmodqi4_loop>
    20e8:	80 95       	com	r24
    20ea:	08 95       	ret

000020ec <__divmodhi4>:
    20ec:	97 fb       	bst	r25, 7
    20ee:	07 2e       	mov	r0, r23
    20f0:	16 f4       	brtc	.+4      	; 0x20f6 <__divmodhi4+0xa>
    20f2:	00 94       	com	r0
    20f4:	07 d0       	rcall	.+14     	; 0x2104 <__divmodhi4_neg1>
    20f6:	77 fd       	sbrc	r23, 7
    20f8:	09 d0       	rcall	.+18     	; 0x210c <__divmodhi4_neg2>
    20fa:	0e 94 90 10 	call	0x2120	; 0x2120 <__udivmodhi4>
    20fe:	07 fc       	sbrc	r0, 7
    2100:	05 d0       	rcall	.+10     	; 0x210c <__divmodhi4_neg2>
    2102:	3e f4       	brtc	.+14     	; 0x2112 <__divmodhi4_exit>

00002104 <__divmodhi4_neg1>:
    2104:	90 95       	com	r25
    2106:	81 95       	neg	r24
    2108:	9f 4f       	sbci	r25, 0xFF	; 255
    210a:	08 95       	ret

0000210c <__divmodhi4_neg2>:
    210c:	70 95       	com	r23
    210e:	61 95       	neg	r22
    2110:	7f 4f       	sbci	r23, 0xFF	; 255

00002112 <__divmodhi4_exit>:
    2112:	08 95       	ret

00002114 <__tablejump2__>:
    2114:	ee 0f       	add	r30, r30
    2116:	ff 1f       	adc	r31, r31
    2118:	05 90       	lpm	r0, Z+
    211a:	f4 91       	lpm	r31, Z
    211c:	e0 2d       	mov	r30, r0
    211e:	09 94       	ijmp

00002120 <__udivmodhi4>:
    2120:	aa 1b       	sub	r26, r26
    2122:	bb 1b       	sub	r27, r27
    2124:	51 e1       	ldi	r21, 0x11	; 17
    2126:	07 c0       	rjmp	.+14     	; 0x2136 <__udivmodhi4_ep>

00002128 <__udivmodhi4_loop>:
    2128:	aa 1f       	adc	r26, r26
    212a:	bb 1f       	adc	r27, r27
    212c:	a6 17       	cp	r26, r22
    212e:	b7 07       	cpc	r27, r23
    2130:	10 f0       	brcs	.+4      	; 0x2136 <__udivmodhi4_ep>
    2132:	a6 1b       	sub	r26, r22
    2134:	b7 0b       	sbc	r27, r23

00002136 <__udivmodhi4_ep>:
    2136:	88 1f       	adc	r24, r24
    2138:	99 1f       	adc	r25, r25
    213a:	5a 95       	dec	r21
    213c:	a9 f7       	brne	.-22     	; 0x2128 <__udivmodhi4_loop>
    213e:	80 95       	com	r24
    2140:	90 95       	com	r25
    2142:	bc 01       	movw	r22, r24
    2144:	cd 01       	movw	r24, r26
    2146:	08 95       	ret

00002148 <__subsf3>:
    2148:	50 58       	subi	r21, 0x80	; 128

0000214a <__addsf3>:
    214a:	bb 27       	eor	r27, r27
    214c:	aa 27       	eor	r26, r26
    214e:	0e 94 bc 10 	call	0x2178	; 0x2178 <__addsf3x>
    2152:	0c 94 36 12 	jmp	0x246c	; 0x246c <__fp_round>
    2156:	0e 94 28 12 	call	0x2450	; 0x2450 <__fp_pscA>
    215a:	38 f0       	brcs	.+14     	; 0x216a <__addsf3+0x20>
    215c:	0e 94 2f 12 	call	0x245e	; 0x245e <__fp_pscB>
    2160:	20 f0       	brcs	.+8      	; 0x216a <__addsf3+0x20>
    2162:	39 f4       	brne	.+14     	; 0x2172 <__addsf3+0x28>
    2164:	9f 3f       	cpi	r25, 0xFF	; 255
    2166:	19 f4       	brne	.+6      	; 0x216e <__addsf3+0x24>
    2168:	26 f4       	brtc	.+8      	; 0x2172 <__addsf3+0x28>
    216a:	0c 94 25 12 	jmp	0x244a	; 0x244a <__fp_nan>
    216e:	0e f4       	brtc	.+2      	; 0x2172 <__addsf3+0x28>
    2170:	e0 95       	com	r30
    2172:	e7 fb       	bst	r30, 7
    2174:	0c 94 1f 12 	jmp	0x243e	; 0x243e <__fp_inf>

00002178 <__addsf3x>:
    2178:	e9 2f       	mov	r30, r25
    217a:	0e 94 47 12 	call	0x248e	; 0x248e <__fp_split3>
    217e:	58 f3       	brcs	.-42     	; 0x2156 <__addsf3+0xc>
    2180:	ba 17       	cp	r27, r26
    2182:	62 07       	cpc	r22, r18
    2184:	73 07       	cpc	r23, r19
    2186:	84 07       	cpc	r24, r20
    2188:	95 07       	cpc	r25, r21
    218a:	20 f0       	brcs	.+8      	; 0x2194 <__addsf3x+0x1c>
    218c:	79 f4       	brne	.+30     	; 0x21ac <__addsf3x+0x34>
    218e:	a6 f5       	brtc	.+104    	; 0x21f8 <__addsf3x+0x80>
    2190:	0c 94 69 12 	jmp	0x24d2	; 0x24d2 <__fp_zero>
    2194:	0e f4       	brtc	.+2      	; 0x2198 <__addsf3x+0x20>
    2196:	e0 95       	com	r30
    2198:	0b 2e       	mov	r0, r27
    219a:	ba 2f       	mov	r27, r26
    219c:	a0 2d       	mov	r26, r0
    219e:	0b 01       	movw	r0, r22
    21a0:	b9 01       	movw	r22, r18
    21a2:	90 01       	movw	r18, r0
    21a4:	0c 01       	movw	r0, r24
    21a6:	ca 01       	movw	r24, r20
    21a8:	a0 01       	movw	r20, r0
    21aa:	11 24       	eor	r1, r1
    21ac:	ff 27       	eor	r31, r31
    21ae:	59 1b       	sub	r21, r25
    21b0:	99 f0       	breq	.+38     	; 0x21d8 <__addsf3x+0x60>
    21b2:	59 3f       	cpi	r21, 0xF9	; 249
    21b4:	50 f4       	brcc	.+20     	; 0x21ca <__addsf3x+0x52>
    21b6:	50 3e       	cpi	r21, 0xE0	; 224
    21b8:	68 f1       	brcs	.+90     	; 0x2214 <__addsf3x+0x9c>
    21ba:	1a 16       	cp	r1, r26
    21bc:	f0 40       	sbci	r31, 0x00	; 0
    21be:	a2 2f       	mov	r26, r18
    21c0:	23 2f       	mov	r18, r19
    21c2:	34 2f       	mov	r19, r20
    21c4:	44 27       	eor	r20, r20
    21c6:	58 5f       	subi	r21, 0xF8	; 248
    21c8:	f3 cf       	rjmp	.-26     	; 0x21b0 <__addsf3x+0x38>
    21ca:	46 95       	lsr	r20
    21cc:	37 95       	ror	r19
    21ce:	27 95       	ror	r18
    21d0:	a7 95       	ror	r26
    21d2:	f0 40       	sbci	r31, 0x00	; 0
    21d4:	53 95       	inc	r21
    21d6:	c9 f7       	brne	.-14     	; 0x21ca <__addsf3x+0x52>
    21d8:	7e f4       	brtc	.+30     	; 0x21f8 <__addsf3x+0x80>
    21da:	1f 16       	cp	r1, r31
    21dc:	ba 0b       	sbc	r27, r26
    21de:	62 0b       	sbc	r22, r18
    21e0:	73 0b       	sbc	r23, r19
    21e2:	84 0b       	sbc	r24, r20
    21e4:	ba f0       	brmi	.+46     	; 0x2214 <__addsf3x+0x9c>
    21e6:	91 50       	subi	r25, 0x01	; 1
    21e8:	a1 f0       	breq	.+40     	; 0x2212 <__addsf3x+0x9a>
    21ea:	ff 0f       	add	r31, r31
    21ec:	bb 1f       	adc	r27, r27
    21ee:	66 1f       	adc	r22, r22
    21f0:	77 1f       	adc	r23, r23
    21f2:	88 1f       	adc	r24, r24
    21f4:	c2 f7       	brpl	.-16     	; 0x21e6 <__addsf3x+0x6e>
    21f6:	0e c0       	rjmp	.+28     	; 0x2214 <__addsf3x+0x9c>
    21f8:	ba 0f       	add	r27, r26
    21fa:	62 1f       	adc	r22, r18
    21fc:	73 1f       	adc	r23, r19
    21fe:	84 1f       	adc	r24, r20
    2200:	48 f4       	brcc	.+18     	; 0x2214 <__addsf3x+0x9c>
    2202:	87 95       	ror	r24
    2204:	77 95       	ror	r23
    2206:	67 95       	ror	r22
    2208:	b7 95       	ror	r27
    220a:	f7 95       	ror	r31
    220c:	9e 3f       	cpi	r25, 0xFE	; 254
    220e:	08 f0       	brcs	.+2      	; 0x2212 <__addsf3x+0x9a>
    2210:	b0 cf       	rjmp	.-160    	; 0x2172 <__addsf3+0x28>
    2212:	93 95       	inc	r25
    2214:	88 0f       	add	r24, r24
    2216:	08 f0       	brcs	.+2      	; 0x221a <__addsf3x+0xa2>
    2218:	99 27       	eor	r25, r25
    221a:	ee 0f       	add	r30, r30
    221c:	97 95       	ror	r25
    221e:	87 95       	ror	r24
    2220:	08 95       	ret

00002222 <__cmpsf2>:
    2222:	0e 94 fb 11 	call	0x23f6	; 0x23f6 <__fp_cmp>
    2226:	08 f4       	brcc	.+2      	; 0x222a <__cmpsf2+0x8>
    2228:	81 e0       	ldi	r24, 0x01	; 1
    222a:	08 95       	ret

0000222c <__divsf3>:
    222c:	0e 94 2a 11 	call	0x2254	; 0x2254 <__divsf3x>
    2230:	0c 94 36 12 	jmp	0x246c	; 0x246c <__fp_round>
    2234:	0e 94 2f 12 	call	0x245e	; 0x245e <__fp_pscB>
    2238:	58 f0       	brcs	.+22     	; 0x2250 <__divsf3+0x24>
    223a:	0e 94 28 12 	call	0x2450	; 0x2450 <__fp_pscA>
    223e:	40 f0       	brcs	.+16     	; 0x2250 <__divsf3+0x24>
    2240:	29 f4       	brne	.+10     	; 0x224c <__divsf3+0x20>
    2242:	5f 3f       	cpi	r21, 0xFF	; 255
    2244:	29 f0       	breq	.+10     	; 0x2250 <__divsf3+0x24>
    2246:	0c 94 1f 12 	jmp	0x243e	; 0x243e <__fp_inf>
    224a:	51 11       	cpse	r21, r1
    224c:	0c 94 6a 12 	jmp	0x24d4	; 0x24d4 <__fp_szero>
    2250:	0c 94 25 12 	jmp	0x244a	; 0x244a <__fp_nan>

00002254 <__divsf3x>:
    2254:	0e 94 47 12 	call	0x248e	; 0x248e <__fp_split3>
    2258:	68 f3       	brcs	.-38     	; 0x2234 <__divsf3+0x8>

0000225a <__divsf3_pse>:
    225a:	99 23       	and	r25, r25
    225c:	b1 f3       	breq	.-20     	; 0x224a <__divsf3+0x1e>
    225e:	55 23       	and	r21, r21
    2260:	91 f3       	breq	.-28     	; 0x2246 <__divsf3+0x1a>
    2262:	95 1b       	sub	r25, r21
    2264:	55 0b       	sbc	r21, r21
    2266:	bb 27       	eor	r27, r27
    2268:	aa 27       	eor	r26, r26
    226a:	62 17       	cp	r22, r18
    226c:	73 07       	cpc	r23, r19
    226e:	84 07       	cpc	r24, r20
    2270:	38 f0       	brcs	.+14     	; 0x2280 <__divsf3_pse+0x26>
    2272:	9f 5f       	subi	r25, 0xFF	; 255
    2274:	5f 4f       	sbci	r21, 0xFF	; 255
    2276:	22 0f       	add	r18, r18
    2278:	33 1f       	adc	r19, r19
    227a:	44 1f       	adc	r20, r20
    227c:	aa 1f       	adc	r26, r26
    227e:	a9 f3       	breq	.-22     	; 0x226a <__divsf3_pse+0x10>
    2280:	35 d0       	rcall	.+106    	; 0x22ec <__divsf3_pse+0x92>
    2282:	0e 2e       	mov	r0, r30
    2284:	3a f0       	brmi	.+14     	; 0x2294 <__divsf3_pse+0x3a>
    2286:	e0 e8       	ldi	r30, 0x80	; 128
    2288:	32 d0       	rcall	.+100    	; 0x22ee <__divsf3_pse+0x94>
    228a:	91 50       	subi	r25, 0x01	; 1
    228c:	50 40       	sbci	r21, 0x00	; 0
    228e:	e6 95       	lsr	r30
    2290:	00 1c       	adc	r0, r0
    2292:	ca f7       	brpl	.-14     	; 0x2286 <__divsf3_pse+0x2c>
    2294:	2b d0       	rcall	.+86     	; 0x22ec <__divsf3_pse+0x92>
    2296:	fe 2f       	mov	r31, r30
    2298:	29 d0       	rcall	.+82     	; 0x22ec <__divsf3_pse+0x92>
    229a:	66 0f       	add	r22, r22
    229c:	77 1f       	adc	r23, r23
    229e:	88 1f       	adc	r24, r24
    22a0:	bb 1f       	adc	r27, r27
    22a2:	26 17       	cp	r18, r22
    22a4:	37 07       	cpc	r19, r23
    22a6:	48 07       	cpc	r20, r24
    22a8:	ab 07       	cpc	r26, r27
    22aa:	b0 e8       	ldi	r27, 0x80	; 128
    22ac:	09 f0       	breq	.+2      	; 0x22b0 <__divsf3_pse+0x56>
    22ae:	bb 0b       	sbc	r27, r27
    22b0:	80 2d       	mov	r24, r0
    22b2:	bf 01       	movw	r22, r30
    22b4:	ff 27       	eor	r31, r31
    22b6:	93 58       	subi	r25, 0x83	; 131
    22b8:	5f 4f       	sbci	r21, 0xFF	; 255
    22ba:	3a f0       	brmi	.+14     	; 0x22ca <__divsf3_pse+0x70>
    22bc:	9e 3f       	cpi	r25, 0xFE	; 254
    22be:	51 05       	cpc	r21, r1
    22c0:	78 f0       	brcs	.+30     	; 0x22e0 <__divsf3_pse+0x86>
    22c2:	0c 94 1f 12 	jmp	0x243e	; 0x243e <__fp_inf>
    22c6:	0c 94 6a 12 	jmp	0x24d4	; 0x24d4 <__fp_szero>
    22ca:	5f 3f       	cpi	r21, 0xFF	; 255
    22cc:	e4 f3       	brlt	.-8      	; 0x22c6 <__divsf3_pse+0x6c>
    22ce:	98 3e       	cpi	r25, 0xE8	; 232
    22d0:	d4 f3       	brlt	.-12     	; 0x22c6 <__divsf3_pse+0x6c>
    22d2:	86 95       	lsr	r24
    22d4:	77 95       	ror	r23
    22d6:	67 95       	ror	r22
    22d8:	b7 95       	ror	r27
    22da:	f7 95       	ror	r31
    22dc:	9f 5f       	subi	r25, 0xFF	; 255
    22de:	c9 f7       	brne	.-14     	; 0x22d2 <__divsf3_pse+0x78>
    22e0:	88 0f       	add	r24, r24
    22e2:	91 1d       	adc	r25, r1
    22e4:	96 95       	lsr	r25
    22e6:	87 95       	ror	r24
    22e8:	97 f9       	bld	r25, 7
    22ea:	08 95       	ret
    22ec:	e1 e0       	ldi	r30, 0x01	; 1
    22ee:	66 0f       	add	r22, r22
    22f0:	77 1f       	adc	r23, r23
    22f2:	88 1f       	adc	r24, r24
    22f4:	bb 1f       	adc	r27, r27
    22f6:	62 17       	cp	r22, r18
    22f8:	73 07       	cpc	r23, r19
    22fa:	84 07       	cpc	r24, r20
    22fc:	ba 07       	cpc	r27, r26
    22fe:	20 f0       	brcs	.+8      	; 0x2308 <__divsf3_pse+0xae>
    2300:	62 1b       	sub	r22, r18
    2302:	73 0b       	sbc	r23, r19
    2304:	84 0b       	sbc	r24, r20
    2306:	ba 0b       	sbc	r27, r26
    2308:	ee 1f       	adc	r30, r30
    230a:	88 f7       	brcc	.-30     	; 0x22ee <__divsf3_pse+0x94>
    230c:	e0 95       	com	r30
    230e:	08 95       	ret

00002310 <__fixsfsi>:
    2310:	0e 94 8f 11 	call	0x231e	; 0x231e <__fixunssfsi>
    2314:	68 94       	set
    2316:	b1 11       	cpse	r27, r1
    2318:	0c 94 6a 12 	jmp	0x24d4	; 0x24d4 <__fp_szero>
    231c:	08 95       	ret

0000231e <__fixunssfsi>:
    231e:	0e 94 4f 12 	call	0x249e	; 0x249e <__fp_splitA>
    2322:	88 f0       	brcs	.+34     	; 0x2346 <__fixunssfsi+0x28>
    2324:	9f 57       	subi	r25, 0x7F	; 127
    2326:	98 f0       	brcs	.+38     	; 0x234e <__fixunssfsi+0x30>
    2328:	b9 2f       	mov	r27, r25
    232a:	99 27       	eor	r25, r25
    232c:	b7 51       	subi	r27, 0x17	; 23
    232e:	b0 f0       	brcs	.+44     	; 0x235c <__fixunssfsi+0x3e>
    2330:	e1 f0       	breq	.+56     	; 0x236a <__fixunssfsi+0x4c>
    2332:	66 0f       	add	r22, r22
    2334:	77 1f       	adc	r23, r23
    2336:	88 1f       	adc	r24, r24
    2338:	99 1f       	adc	r25, r25
    233a:	1a f0       	brmi	.+6      	; 0x2342 <__fixunssfsi+0x24>
    233c:	ba 95       	dec	r27
    233e:	c9 f7       	brne	.-14     	; 0x2332 <__fixunssfsi+0x14>
    2340:	14 c0       	rjmp	.+40     	; 0x236a <__fixunssfsi+0x4c>
    2342:	b1 30       	cpi	r27, 0x01	; 1
    2344:	91 f0       	breq	.+36     	; 0x236a <__fixunssfsi+0x4c>
    2346:	0e 94 69 12 	call	0x24d2	; 0x24d2 <__fp_zero>
    234a:	b1 e0       	ldi	r27, 0x01	; 1
    234c:	08 95       	ret
    234e:	0c 94 69 12 	jmp	0x24d2	; 0x24d2 <__fp_zero>
    2352:	67 2f       	mov	r22, r23
    2354:	78 2f       	mov	r23, r24
    2356:	88 27       	eor	r24, r24
    2358:	b8 5f       	subi	r27, 0xF8	; 248
    235a:	39 f0       	breq	.+14     	; 0x236a <__fixunssfsi+0x4c>
    235c:	b9 3f       	cpi	r27, 0xF9	; 249
    235e:	cc f3       	brlt	.-14     	; 0x2352 <__fixunssfsi+0x34>
    2360:	86 95       	lsr	r24
    2362:	77 95       	ror	r23
    2364:	67 95       	ror	r22
    2366:	b3 95       	inc	r27
    2368:	d9 f7       	brne	.-10     	; 0x2360 <__fixunssfsi+0x42>
    236a:	3e f4       	brtc	.+14     	; 0x237a <__fixunssfsi+0x5c>
    236c:	90 95       	com	r25
    236e:	80 95       	com	r24
    2370:	70 95       	com	r23
    2372:	61 95       	neg	r22
    2374:	7f 4f       	sbci	r23, 0xFF	; 255
    2376:	8f 4f       	sbci	r24, 0xFF	; 255
    2378:	9f 4f       	sbci	r25, 0xFF	; 255
    237a:	08 95       	ret

0000237c <__floatunsisf>:
    237c:	e8 94       	clt
    237e:	09 c0       	rjmp	.+18     	; 0x2392 <__floatsisf+0x12>

00002380 <__floatsisf>:
    2380:	97 fb       	bst	r25, 7
    2382:	3e f4       	brtc	.+14     	; 0x2392 <__floatsisf+0x12>
    2384:	90 95       	com	r25
    2386:	80 95       	com	r24
    2388:	70 95       	com	r23
    238a:	61 95       	neg	r22
    238c:	7f 4f       	sbci	r23, 0xFF	; 255
    238e:	8f 4f       	sbci	r24, 0xFF	; 255
    2390:	9f 4f       	sbci	r25, 0xFF	; 255
    2392:	99 23       	and	r25, r25
    2394:	a9 f0       	breq	.+42     	; 0x23c0 <__floatsisf+0x40>
    2396:	f9 2f       	mov	r31, r25
    2398:	96 e9       	ldi	r25, 0x96	; 150
    239a:	bb 27       	eor	r27, r27
    239c:	93 95       	inc	r25
    239e:	f6 95       	lsr	r31
    23a0:	87 95       	ror	r24
    23a2:	77 95       	ror	r23
    23a4:	67 95       	ror	r22
    23a6:	b7 95       	ror	r27
    23a8:	f1 11       	cpse	r31, r1
    23aa:	f8 cf       	rjmp	.-16     	; 0x239c <__floatsisf+0x1c>
    23ac:	fa f4       	brpl	.+62     	; 0x23ec <__floatsisf+0x6c>
    23ae:	bb 0f       	add	r27, r27
    23b0:	11 f4       	brne	.+4      	; 0x23b6 <__floatsisf+0x36>
    23b2:	60 ff       	sbrs	r22, 0
    23b4:	1b c0       	rjmp	.+54     	; 0x23ec <__floatsisf+0x6c>
    23b6:	6f 5f       	subi	r22, 0xFF	; 255
    23b8:	7f 4f       	sbci	r23, 0xFF	; 255
    23ba:	8f 4f       	sbci	r24, 0xFF	; 255
    23bc:	9f 4f       	sbci	r25, 0xFF	; 255
    23be:	16 c0       	rjmp	.+44     	; 0x23ec <__floatsisf+0x6c>
    23c0:	88 23       	and	r24, r24
    23c2:	11 f0       	breq	.+4      	; 0x23c8 <__floatsisf+0x48>
    23c4:	96 e9       	ldi	r25, 0x96	; 150
    23c6:	11 c0       	rjmp	.+34     	; 0x23ea <__floatsisf+0x6a>
    23c8:	77 23       	and	r23, r23
    23ca:	21 f0       	breq	.+8      	; 0x23d4 <__floatsisf+0x54>
    23cc:	9e e8       	ldi	r25, 0x8E	; 142
    23ce:	87 2f       	mov	r24, r23
    23d0:	76 2f       	mov	r23, r22
    23d2:	05 c0       	rjmp	.+10     	; 0x23de <__floatsisf+0x5e>
    23d4:	66 23       	and	r22, r22
    23d6:	71 f0       	breq	.+28     	; 0x23f4 <__floatsisf+0x74>
    23d8:	96 e8       	ldi	r25, 0x86	; 134
    23da:	86 2f       	mov	r24, r22
    23dc:	70 e0       	ldi	r23, 0x00	; 0
    23de:	60 e0       	ldi	r22, 0x00	; 0
    23e0:	2a f0       	brmi	.+10     	; 0x23ec <__floatsisf+0x6c>
    23e2:	9a 95       	dec	r25
    23e4:	66 0f       	add	r22, r22
    23e6:	77 1f       	adc	r23, r23
    23e8:	88 1f       	adc	r24, r24
    23ea:	da f7       	brpl	.-10     	; 0x23e2 <__floatsisf+0x62>
    23ec:	88 0f       	add	r24, r24
    23ee:	96 95       	lsr	r25
    23f0:	87 95       	ror	r24
    23f2:	97 f9       	bld	r25, 7
    23f4:	08 95       	ret

000023f6 <__fp_cmp>:
    23f6:	99 0f       	add	r25, r25
    23f8:	00 08       	sbc	r0, r0
    23fa:	55 0f       	add	r21, r21
    23fc:	aa 0b       	sbc	r26, r26
    23fe:	e0 e8       	ldi	r30, 0x80	; 128
    2400:	fe ef       	ldi	r31, 0xFE	; 254
    2402:	16 16       	cp	r1, r22
    2404:	17 06       	cpc	r1, r23
    2406:	e8 07       	cpc	r30, r24
    2408:	f9 07       	cpc	r31, r25
    240a:	c0 f0       	brcs	.+48     	; 0x243c <__fp_cmp+0x46>
    240c:	12 16       	cp	r1, r18
    240e:	13 06       	cpc	r1, r19
    2410:	e4 07       	cpc	r30, r20
    2412:	f5 07       	cpc	r31, r21
    2414:	98 f0       	brcs	.+38     	; 0x243c <__fp_cmp+0x46>
    2416:	62 1b       	sub	r22, r18
    2418:	73 0b       	sbc	r23, r19
    241a:	84 0b       	sbc	r24, r20
    241c:	95 0b       	sbc	r25, r21
    241e:	39 f4       	brne	.+14     	; 0x242e <__fp_cmp+0x38>
    2420:	0a 26       	eor	r0, r26
    2422:	61 f0       	breq	.+24     	; 0x243c <__fp_cmp+0x46>
    2424:	23 2b       	or	r18, r19
    2426:	24 2b       	or	r18, r20
    2428:	25 2b       	or	r18, r21
    242a:	21 f4       	brne	.+8      	; 0x2434 <__fp_cmp+0x3e>
    242c:	08 95       	ret
    242e:	0a 26       	eor	r0, r26
    2430:	09 f4       	brne	.+2      	; 0x2434 <__fp_cmp+0x3e>
    2432:	a1 40       	sbci	r26, 0x01	; 1
    2434:	a6 95       	lsr	r26
    2436:	8f ef       	ldi	r24, 0xFF	; 255
    2438:	81 1d       	adc	r24, r1
    243a:	81 1d       	adc	r24, r1
    243c:	08 95       	ret

0000243e <__fp_inf>:
    243e:	97 f9       	bld	r25, 7
    2440:	9f 67       	ori	r25, 0x7F	; 127
    2442:	80 e8       	ldi	r24, 0x80	; 128
    2444:	70 e0       	ldi	r23, 0x00	; 0
    2446:	60 e0       	ldi	r22, 0x00	; 0
    2448:	08 95       	ret

0000244a <__fp_nan>:
    244a:	9f ef       	ldi	r25, 0xFF	; 255
    244c:	80 ec       	ldi	r24, 0xC0	; 192
    244e:	08 95       	ret

00002450 <__fp_pscA>:
    2450:	00 24       	eor	r0, r0
    2452:	0a 94       	dec	r0
    2454:	16 16       	cp	r1, r22
    2456:	17 06       	cpc	r1, r23
    2458:	18 06       	cpc	r1, r24
    245a:	09 06       	cpc	r0, r25
    245c:	08 95       	ret

0000245e <__fp_pscB>:
    245e:	00 24       	eor	r0, r0
    2460:	0a 94       	dec	r0
    2462:	12 16       	cp	r1, r18
    2464:	13 06       	cpc	r1, r19
    2466:	14 06       	cpc	r1, r20
    2468:	05 06       	cpc	r0, r21
    246a:	08 95       	ret

0000246c <__fp_round>:
    246c:	09 2e       	mov	r0, r25
    246e:	03 94       	inc	r0
    2470:	00 0c       	add	r0, r0
    2472:	11 f4       	brne	.+4      	; 0x2478 <__fp_round+0xc>
    2474:	88 23       	and	r24, r24
    2476:	52 f0       	brmi	.+20     	; 0x248c <__fp_round+0x20>
    2478:	bb 0f       	add	r27, r27
    247a:	40 f4       	brcc	.+16     	; 0x248c <__fp_round+0x20>
    247c:	bf 2b       	or	r27, r31
    247e:	11 f4       	brne	.+4      	; 0x2484 <__fp_round+0x18>
    2480:	60 ff       	sbrs	r22, 0
    2482:	04 c0       	rjmp	.+8      	; 0x248c <__fp_round+0x20>
    2484:	6f 5f       	subi	r22, 0xFF	; 255
    2486:	7f 4f       	sbci	r23, 0xFF	; 255
    2488:	8f 4f       	sbci	r24, 0xFF	; 255
    248a:	9f 4f       	sbci	r25, 0xFF	; 255
    248c:	08 95       	ret

0000248e <__fp_split3>:
    248e:	57 fd       	sbrc	r21, 7
    2490:	90 58       	subi	r25, 0x80	; 128
    2492:	44 0f       	add	r20, r20
    2494:	55 1f       	adc	r21, r21
    2496:	59 f0       	breq	.+22     	; 0x24ae <__fp_splitA+0x10>
    2498:	5f 3f       	cpi	r21, 0xFF	; 255
    249a:	71 f0       	breq	.+28     	; 0x24b8 <__fp_splitA+0x1a>
    249c:	47 95       	ror	r20

0000249e <__fp_splitA>:
    249e:	88 0f       	add	r24, r24
    24a0:	97 fb       	bst	r25, 7
    24a2:	99 1f       	adc	r25, r25
    24a4:	61 f0       	breq	.+24     	; 0x24be <__fp_splitA+0x20>
    24a6:	9f 3f       	cpi	r25, 0xFF	; 255
    24a8:	79 f0       	breq	.+30     	; 0x24c8 <__fp_splitA+0x2a>
    24aa:	87 95       	ror	r24
    24ac:	08 95       	ret
    24ae:	12 16       	cp	r1, r18
    24b0:	13 06       	cpc	r1, r19
    24b2:	14 06       	cpc	r1, r20
    24b4:	55 1f       	adc	r21, r21
    24b6:	f2 cf       	rjmp	.-28     	; 0x249c <__fp_split3+0xe>
    24b8:	46 95       	lsr	r20
    24ba:	f1 df       	rcall	.-30     	; 0x249e <__fp_splitA>
    24bc:	08 c0       	rjmp	.+16     	; 0x24ce <__fp_splitA+0x30>
    24be:	16 16       	cp	r1, r22
    24c0:	17 06       	cpc	r1, r23
    24c2:	18 06       	cpc	r1, r24
    24c4:	99 1f       	adc	r25, r25
    24c6:	f1 cf       	rjmp	.-30     	; 0x24aa <__fp_splitA+0xc>
    24c8:	86 95       	lsr	r24
    24ca:	71 05       	cpc	r23, r1
    24cc:	61 05       	cpc	r22, r1
    24ce:	08 94       	sec
    24d0:	08 95       	ret

000024d2 <__fp_zero>:
    24d2:	e8 94       	clt

000024d4 <__fp_szero>:
    24d4:	bb 27       	eor	r27, r27
    24d6:	66 27       	eor	r22, r22
    24d8:	77 27       	eor	r23, r23
    24da:	cb 01       	movw	r24, r22
    24dc:	97 f9       	bld	r25, 7
    24de:	08 95       	ret

000024e0 <__gesf2>:
    24e0:	0e 94 fb 11 	call	0x23f6	; 0x23f6 <__fp_cmp>
    24e4:	08 f4       	brcc	.+2      	; 0x24e8 <__gesf2+0x8>
    24e6:	8f ef       	ldi	r24, 0xFF	; 255
    24e8:	08 95       	ret

000024ea <__mulsf3>:
    24ea:	0e 94 88 12 	call	0x2510	; 0x2510 <__mulsf3x>
    24ee:	0c 94 36 12 	jmp	0x246c	; 0x246c <__fp_round>
    24f2:	0e 94 28 12 	call	0x2450	; 0x2450 <__fp_pscA>
    24f6:	38 f0       	brcs	.+14     	; 0x2506 <__mulsf3+0x1c>
    24f8:	0e 94 2f 12 	call	0x245e	; 0x245e <__fp_pscB>
    24fc:	20 f0       	brcs	.+8      	; 0x2506 <__mulsf3+0x1c>
    24fe:	95 23       	and	r25, r21
    2500:	11 f0       	breq	.+4      	; 0x2506 <__mulsf3+0x1c>
    2502:	0c 94 1f 12 	jmp	0x243e	; 0x243e <__fp_inf>
    2506:	0c 94 25 12 	jmp	0x244a	; 0x244a <__fp_nan>
    250a:	11 24       	eor	r1, r1
    250c:	0c 94 6a 12 	jmp	0x24d4	; 0x24d4 <__fp_szero>

00002510 <__mulsf3x>:
    2510:	0e 94 47 12 	call	0x248e	; 0x248e <__fp_split3>
    2514:	70 f3       	brcs	.-36     	; 0x24f2 <__mulsf3+0x8>

00002516 <__mulsf3_pse>:
    2516:	95 9f       	mul	r25, r21
    2518:	c1 f3       	breq	.-16     	; 0x250a <__mulsf3+0x20>
    251a:	95 0f       	add	r25, r21
    251c:	50 e0       	ldi	r21, 0x00	; 0
    251e:	55 1f       	adc	r21, r21
    2520:	62 9f       	mul	r22, r18
    2522:	f0 01       	movw	r30, r0
    2524:	72 9f       	mul	r23, r18
    2526:	bb 27       	eor	r27, r27
    2528:	f0 0d       	add	r31, r0
    252a:	b1 1d       	adc	r27, r1
    252c:	63 9f       	mul	r22, r19
    252e:	aa 27       	eor	r26, r26
    2530:	f0 0d       	add	r31, r0
    2532:	b1 1d       	adc	r27, r1
    2534:	aa 1f       	adc	r26, r26
    2536:	64 9f       	mul	r22, r20
    2538:	66 27       	eor	r22, r22
    253a:	b0 0d       	add	r27, r0
    253c:	a1 1d       	adc	r26, r1
    253e:	66 1f       	adc	r22, r22
    2540:	82 9f       	mul	r24, r18
    2542:	22 27       	eor	r18, r18
    2544:	b0 0d       	add	r27, r0
    2546:	a1 1d       	adc	r26, r1
    2548:	62 1f       	adc	r22, r18
    254a:	73 9f       	mul	r23, r19
    254c:	b0 0d       	add	r27, r0
    254e:	a1 1d       	adc	r26, r1
    2550:	62 1f       	adc	r22, r18
    2552:	83 9f       	mul	r24, r19
    2554:	a0 0d       	add	r26, r0
    2556:	61 1d       	adc	r22, r1
    2558:	22 1f       	adc	r18, r18
    255a:	74 9f       	mul	r23, r20
    255c:	33 27       	eor	r19, r19
    255e:	a0 0d       	add	r26, r0
    2560:	61 1d       	adc	r22, r1
    2562:	23 1f       	adc	r18, r19
    2564:	84 9f       	mul	r24, r20
    2566:	60 0d       	add	r22, r0
    2568:	21 1d       	adc	r18, r1
    256a:	82 2f       	mov	r24, r18
    256c:	76 2f       	mov	r23, r22
    256e:	6a 2f       	mov	r22, r26
    2570:	11 24       	eor	r1, r1
    2572:	9f 57       	subi	r25, 0x7F	; 127
    2574:	50 40       	sbci	r21, 0x00	; 0
    2576:	9a f0       	brmi	.+38     	; 0x259e <__mulsf3_pse+0x88>
    2578:	f1 f0       	breq	.+60     	; 0x25b6 <__mulsf3_pse+0xa0>
    257a:	88 23       	and	r24, r24
    257c:	4a f0       	brmi	.+18     	; 0x2590 <__mulsf3_pse+0x7a>
    257e:	ee 0f       	add	r30, r30
    2580:	ff 1f       	adc	r31, r31
    2582:	bb 1f       	adc	r27, r27
    2584:	66 1f       	adc	r22, r22
    2586:	77 1f       	adc	r23, r23
    2588:	88 1f       	adc	r24, r24
    258a:	91 50       	subi	r25, 0x01	; 1
    258c:	50 40       	sbci	r21, 0x00	; 0
    258e:	a9 f7       	brne	.-22     	; 0x257a <__mulsf3_pse+0x64>
    2590:	9e 3f       	cpi	r25, 0xFE	; 254
    2592:	51 05       	cpc	r21, r1
    2594:	80 f0       	brcs	.+32     	; 0x25b6 <__mulsf3_pse+0xa0>
    2596:	0c 94 1f 12 	jmp	0x243e	; 0x243e <__fp_inf>
    259a:	0c 94 6a 12 	jmp	0x24d4	; 0x24d4 <__fp_szero>
    259e:	5f 3f       	cpi	r21, 0xFF	; 255
    25a0:	e4 f3       	brlt	.-8      	; 0x259a <__mulsf3_pse+0x84>
    25a2:	98 3e       	cpi	r25, 0xE8	; 232
    25a4:	d4 f3       	brlt	.-12     	; 0x259a <__mulsf3_pse+0x84>
    25a6:	86 95       	lsr	r24
    25a8:	77 95       	ror	r23
    25aa:	67 95       	ror	r22
    25ac:	b7 95       	ror	r27
    25ae:	f7 95       	ror	r31
    25b0:	e7 95       	ror	r30
    25b2:	9f 5f       	subi	r25, 0xFF	; 255
    25b4:	c1 f7       	brne	.-16     	; 0x25a6 <__mulsf3_pse+0x90>
    25b6:	fe 2b       	or	r31, r30
    25b8:	88 0f       	add	r24, r24
    25ba:	91 1d       	adc	r25, r1
    25bc:	96 95       	lsr	r25
    25be:	87 95       	ror	r24
    25c0:	97 f9       	bld	r25, 7
    25c2:	08 95       	ret

000025c4 <pow>:
    25c4:	fa 01       	movw	r30, r20
    25c6:	ee 0f       	add	r30, r30
    25c8:	ff 1f       	adc	r31, r31
    25ca:	30 96       	adiw	r30, 0x00	; 0
    25cc:	21 05       	cpc	r18, r1
    25ce:	31 05       	cpc	r19, r1
    25d0:	a1 f1       	breq	.+104    	; 0x263a <pow+0x76>
    25d2:	61 15       	cp	r22, r1
    25d4:	71 05       	cpc	r23, r1
    25d6:	61 f4       	brne	.+24     	; 0x25f0 <pow+0x2c>
    25d8:	80 38       	cpi	r24, 0x80	; 128
    25da:	bf e3       	ldi	r27, 0x3F	; 63
    25dc:	9b 07       	cpc	r25, r27
    25de:	49 f1       	breq	.+82     	; 0x2632 <pow+0x6e>
    25e0:	68 94       	set
    25e2:	90 38       	cpi	r25, 0x80	; 128
    25e4:	81 05       	cpc	r24, r1
    25e6:	61 f0       	breq	.+24     	; 0x2600 <pow+0x3c>
    25e8:	80 38       	cpi	r24, 0x80	; 128
    25ea:	bf ef       	ldi	r27, 0xFF	; 255
    25ec:	9b 07       	cpc	r25, r27
    25ee:	41 f0       	breq	.+16     	; 0x2600 <pow+0x3c>
    25f0:	99 23       	and	r25, r25
    25f2:	4a f5       	brpl	.+82     	; 0x2646 <pow+0x82>
    25f4:	ff 3f       	cpi	r31, 0xFF	; 255
    25f6:	e1 05       	cpc	r30, r1
    25f8:	31 05       	cpc	r19, r1
    25fa:	21 05       	cpc	r18, r1
    25fc:	19 f1       	breq	.+70     	; 0x2644 <pow+0x80>
    25fe:	e8 94       	clt
    2600:	08 94       	sec
    2602:	e7 95       	ror	r30
    2604:	d9 01       	movw	r26, r18
    2606:	aa 23       	and	r26, r26
    2608:	29 f4       	brne	.+10     	; 0x2614 <pow+0x50>
    260a:	ab 2f       	mov	r26, r27
    260c:	be 2f       	mov	r27, r30
    260e:	f8 5f       	subi	r31, 0xF8	; 248
    2610:	d0 f3       	brcs	.-12     	; 0x2606 <pow+0x42>
    2612:	10 c0       	rjmp	.+32     	; 0x2634 <pow+0x70>
    2614:	ff 5f       	subi	r31, 0xFF	; 255
    2616:	70 f4       	brcc	.+28     	; 0x2634 <pow+0x70>
    2618:	a6 95       	lsr	r26
    261a:	e0 f7       	brcc	.-8      	; 0x2614 <pow+0x50>
    261c:	f7 39       	cpi	r31, 0x97	; 151
    261e:	50 f0       	brcs	.+20     	; 0x2634 <pow+0x70>
    2620:	19 f0       	breq	.+6      	; 0x2628 <pow+0x64>
    2622:	ff 3a       	cpi	r31, 0xAF	; 175
    2624:	38 f4       	brcc	.+14     	; 0x2634 <pow+0x70>
    2626:	9f 77       	andi	r25, 0x7F	; 127
    2628:	9f 93       	push	r25
    262a:	0d d0       	rcall	.+26     	; 0x2646 <pow+0x82>
    262c:	0f 90       	pop	r0
    262e:	07 fc       	sbrc	r0, 7
    2630:	90 58       	subi	r25, 0x80	; 128
    2632:	08 95       	ret
    2634:	46 f0       	brts	.+16     	; 0x2646 <pow+0x82>
    2636:	0c 94 25 12 	jmp	0x244a	; 0x244a <__fp_nan>
    263a:	60 e0       	ldi	r22, 0x00	; 0
    263c:	70 e0       	ldi	r23, 0x00	; 0
    263e:	80 e8       	ldi	r24, 0x80	; 128
    2640:	9f e3       	ldi	r25, 0x3F	; 63
    2642:	08 95       	ret
    2644:	4f e7       	ldi	r20, 0x7F	; 127
    2646:	9f 77       	andi	r25, 0x7F	; 127
    2648:	5f 93       	push	r21
    264a:	4f 93       	push	r20
    264c:	3f 93       	push	r19
    264e:	2f 93       	push	r18
    2650:	0e 94 dd 13 	call	0x27ba	; 0x27ba <log>
    2654:	2f 91       	pop	r18
    2656:	3f 91       	pop	r19
    2658:	4f 91       	pop	r20
    265a:	5f 91       	pop	r21
    265c:	0e 94 75 12 	call	0x24ea	; 0x24ea <__mulsf3>
    2660:	0c 94 3a 13 	jmp	0x2674	; 0x2674 <exp>
    2664:	29 f4       	brne	.+10     	; 0x2670 <pow+0xac>
    2666:	16 f0       	brts	.+4      	; 0x266c <pow+0xa8>
    2668:	0c 94 1f 12 	jmp	0x243e	; 0x243e <__fp_inf>
    266c:	0c 94 69 12 	jmp	0x24d2	; 0x24d2 <__fp_zero>
    2670:	0c 94 25 12 	jmp	0x244a	; 0x244a <__fp_nan>

00002674 <exp>:
    2674:	0e 94 4f 12 	call	0x249e	; 0x249e <__fp_splitA>
    2678:	a8 f3       	brcs	.-22     	; 0x2664 <pow+0xa0>
    267a:	96 38       	cpi	r25, 0x86	; 134
    267c:	a0 f7       	brcc	.-24     	; 0x2666 <pow+0xa2>
    267e:	07 f8       	bld	r0, 7
    2680:	0f 92       	push	r0
    2682:	e8 94       	clt
    2684:	2b e3       	ldi	r18, 0x3B	; 59
    2686:	3a ea       	ldi	r19, 0xAA	; 170
    2688:	48 eb       	ldi	r20, 0xB8	; 184
    268a:	5f e7       	ldi	r21, 0x7F	; 127
    268c:	0e 94 8b 12 	call	0x2516	; 0x2516 <__mulsf3_pse>
    2690:	0f 92       	push	r0
    2692:	0f 92       	push	r0
    2694:	0f 92       	push	r0
    2696:	4d b7       	in	r20, 0x3d	; 61
    2698:	5e b7       	in	r21, 0x3e	; 62
    269a:	0f 92       	push	r0
    269c:	0e 94 25 14 	call	0x284a	; 0x284a <modf>
    26a0:	e8 e9       	ldi	r30, 0x98	; 152
    26a2:	f0 e0       	ldi	r31, 0x00	; 0
    26a4:	0e 94 6c 13 	call	0x26d8	; 0x26d8 <__fp_powser>
    26a8:	4f 91       	pop	r20
    26aa:	5f 91       	pop	r21
    26ac:	ef 91       	pop	r30
    26ae:	ff 91       	pop	r31
    26b0:	e5 95       	asr	r30
    26b2:	ee 1f       	adc	r30, r30
    26b4:	ff 1f       	adc	r31, r31
    26b6:	49 f0       	breq	.+18     	; 0x26ca <exp+0x56>
    26b8:	fe 57       	subi	r31, 0x7E	; 126
    26ba:	e0 68       	ori	r30, 0x80	; 128
    26bc:	44 27       	eor	r20, r20
    26be:	ee 0f       	add	r30, r30
    26c0:	44 1f       	adc	r20, r20
    26c2:	fa 95       	dec	r31
    26c4:	e1 f7       	brne	.-8      	; 0x26be <exp+0x4a>
    26c6:	41 95       	neg	r20
    26c8:	55 0b       	sbc	r21, r21
    26ca:	0e 94 9f 13 	call	0x273e	; 0x273e <ldexp>
    26ce:	0f 90       	pop	r0
    26d0:	07 fe       	sbrs	r0, 7
    26d2:	0c 94 93 13 	jmp	0x2726	; 0x2726 <inverse>
    26d6:	08 95       	ret

000026d8 <__fp_powser>:
    26d8:	df 93       	push	r29
    26da:	cf 93       	push	r28
    26dc:	1f 93       	push	r17
    26de:	0f 93       	push	r16
    26e0:	ff 92       	push	r15
    26e2:	ef 92       	push	r14
    26e4:	df 92       	push	r13
    26e6:	7b 01       	movw	r14, r22
    26e8:	8c 01       	movw	r16, r24
    26ea:	68 94       	set
    26ec:	06 c0       	rjmp	.+12     	; 0x26fa <__fp_powser+0x22>
    26ee:	da 2e       	mov	r13, r26
    26f0:	ef 01       	movw	r28, r30
    26f2:	0e 94 88 12 	call	0x2510	; 0x2510 <__mulsf3x>
    26f6:	fe 01       	movw	r30, r28
    26f8:	e8 94       	clt
    26fa:	a5 91       	lpm	r26, Z+
    26fc:	25 91       	lpm	r18, Z+
    26fe:	35 91       	lpm	r19, Z+
    2700:	45 91       	lpm	r20, Z+
    2702:	55 91       	lpm	r21, Z+
    2704:	a6 f3       	brts	.-24     	; 0x26ee <__fp_powser+0x16>
    2706:	ef 01       	movw	r28, r30
    2708:	0e 94 bc 10 	call	0x2178	; 0x2178 <__addsf3x>
    270c:	fe 01       	movw	r30, r28
    270e:	97 01       	movw	r18, r14
    2710:	a8 01       	movw	r20, r16
    2712:	da 94       	dec	r13
    2714:	69 f7       	brne	.-38     	; 0x26f0 <__fp_powser+0x18>
    2716:	df 90       	pop	r13
    2718:	ef 90       	pop	r14
    271a:	ff 90       	pop	r15
    271c:	0f 91       	pop	r16
    271e:	1f 91       	pop	r17
    2720:	cf 91       	pop	r28
    2722:	df 91       	pop	r29
    2724:	08 95       	ret

00002726 <inverse>:
    2726:	9b 01       	movw	r18, r22
    2728:	ac 01       	movw	r20, r24
    272a:	60 e0       	ldi	r22, 0x00	; 0
    272c:	70 e0       	ldi	r23, 0x00	; 0
    272e:	80 e8       	ldi	r24, 0x80	; 128
    2730:	9f e3       	ldi	r25, 0x3F	; 63
    2732:	0c 94 16 11 	jmp	0x222c	; 0x222c <__divsf3>
    2736:	0c 94 1f 12 	jmp	0x243e	; 0x243e <__fp_inf>
    273a:	0c 94 59 14 	jmp	0x28b2	; 0x28b2 <__fp_mpack>

0000273e <ldexp>:
    273e:	0e 94 4f 12 	call	0x249e	; 0x249e <__fp_splitA>
    2742:	d8 f3       	brcs	.-10     	; 0x273a <inverse+0x14>
    2744:	99 23       	and	r25, r25
    2746:	c9 f3       	breq	.-14     	; 0x273a <inverse+0x14>
    2748:	94 0f       	add	r25, r20
    274a:	51 1d       	adc	r21, r1
    274c:	a3 f3       	brvs	.-24     	; 0x2736 <inverse+0x10>
    274e:	91 50       	subi	r25, 0x01	; 1
    2750:	50 40       	sbci	r21, 0x00	; 0
    2752:	94 f0       	brlt	.+36     	; 0x2778 <ldexp+0x3a>
    2754:	59 f0       	breq	.+22     	; 0x276c <ldexp+0x2e>
    2756:	88 23       	and	r24, r24
    2758:	32 f0       	brmi	.+12     	; 0x2766 <ldexp+0x28>
    275a:	66 0f       	add	r22, r22
    275c:	77 1f       	adc	r23, r23
    275e:	88 1f       	adc	r24, r24
    2760:	91 50       	subi	r25, 0x01	; 1
    2762:	50 40       	sbci	r21, 0x00	; 0
    2764:	c1 f7       	brne	.-16     	; 0x2756 <ldexp+0x18>
    2766:	9e 3f       	cpi	r25, 0xFE	; 254
    2768:	51 05       	cpc	r21, r1
    276a:	2c f7       	brge	.-54     	; 0x2736 <inverse+0x10>
    276c:	88 0f       	add	r24, r24
    276e:	91 1d       	adc	r25, r1
    2770:	96 95       	lsr	r25
    2772:	87 95       	ror	r24
    2774:	97 f9       	bld	r25, 7
    2776:	08 95       	ret
    2778:	5f 3f       	cpi	r21, 0xFF	; 255
    277a:	ac f0       	brlt	.+42     	; 0x27a6 <ldexp+0x68>
    277c:	98 3e       	cpi	r25, 0xE8	; 232
    277e:	9c f0       	brlt	.+38     	; 0x27a6 <ldexp+0x68>
    2780:	bb 27       	eor	r27, r27
    2782:	86 95       	lsr	r24
    2784:	77 95       	ror	r23
    2786:	67 95       	ror	r22
    2788:	b7 95       	ror	r27
    278a:	08 f4       	brcc	.+2      	; 0x278e <ldexp+0x50>
    278c:	b1 60       	ori	r27, 0x01	; 1
    278e:	93 95       	inc	r25
    2790:	c1 f7       	brne	.-16     	; 0x2782 <ldexp+0x44>
    2792:	bb 0f       	add	r27, r27
    2794:	58 f7       	brcc	.-42     	; 0x276c <ldexp+0x2e>
    2796:	11 f4       	brne	.+4      	; 0x279c <ldexp+0x5e>
    2798:	60 ff       	sbrs	r22, 0
    279a:	e8 cf       	rjmp	.-48     	; 0x276c <ldexp+0x2e>
    279c:	6f 5f       	subi	r22, 0xFF	; 255
    279e:	7f 4f       	sbci	r23, 0xFF	; 255
    27a0:	8f 4f       	sbci	r24, 0xFF	; 255
    27a2:	9f 4f       	sbci	r25, 0xFF	; 255
    27a4:	e3 cf       	rjmp	.-58     	; 0x276c <ldexp+0x2e>
    27a6:	0c 94 6a 12 	jmp	0x24d4	; 0x24d4 <__fp_szero>
    27aa:	16 f0       	brts	.+4      	; 0x27b0 <ldexp+0x72>
    27ac:	0c 94 59 14 	jmp	0x28b2	; 0x28b2 <__fp_mpack>
    27b0:	0c 94 25 12 	jmp	0x244a	; 0x244a <__fp_nan>
    27b4:	68 94       	set
    27b6:	0c 94 1f 12 	jmp	0x243e	; 0x243e <__fp_inf>

000027ba <log>:
    27ba:	0e 94 4f 12 	call	0x249e	; 0x249e <__fp_splitA>
    27be:	a8 f3       	brcs	.-22     	; 0x27aa <ldexp+0x6c>
    27c0:	99 23       	and	r25, r25
    27c2:	c1 f3       	breq	.-16     	; 0x27b4 <ldexp+0x76>
    27c4:	ae f3       	brts	.-22     	; 0x27b0 <ldexp+0x72>
    27c6:	df 93       	push	r29
    27c8:	cf 93       	push	r28
    27ca:	1f 93       	push	r17
    27cc:	0f 93       	push	r16
    27ce:	ff 92       	push	r15
    27d0:	c9 2f       	mov	r28, r25
    27d2:	dd 27       	eor	r29, r29
    27d4:	88 23       	and	r24, r24
    27d6:	2a f0       	brmi	.+10     	; 0x27e2 <log+0x28>
    27d8:	21 97       	sbiw	r28, 0x01	; 1
    27da:	66 0f       	add	r22, r22
    27dc:	77 1f       	adc	r23, r23
    27de:	88 1f       	adc	r24, r24
    27e0:	da f7       	brpl	.-10     	; 0x27d8 <log+0x1e>
    27e2:	20 e0       	ldi	r18, 0x00	; 0
    27e4:	30 e0       	ldi	r19, 0x00	; 0
    27e6:	40 e8       	ldi	r20, 0x80	; 128
    27e8:	5f eb       	ldi	r21, 0xBF	; 191
    27ea:	9f e3       	ldi	r25, 0x3F	; 63
    27ec:	88 39       	cpi	r24, 0x98	; 152
    27ee:	20 f0       	brcs	.+8      	; 0x27f8 <log+0x3e>
    27f0:	80 3e       	cpi	r24, 0xE0	; 224
    27f2:	38 f0       	brcs	.+14     	; 0x2802 <log+0x48>
    27f4:	21 96       	adiw	r28, 0x01	; 1
    27f6:	8f 77       	andi	r24, 0x7F	; 127
    27f8:	0e 94 a5 10 	call	0x214a	; 0x214a <__addsf3>
    27fc:	e0 ec       	ldi	r30, 0xC0	; 192
    27fe:	f0 e0       	ldi	r31, 0x00	; 0
    2800:	04 c0       	rjmp	.+8      	; 0x280a <log+0x50>
    2802:	0e 94 a5 10 	call	0x214a	; 0x214a <__addsf3>
    2806:	ed ee       	ldi	r30, 0xED	; 237
    2808:	f0 e0       	ldi	r31, 0x00	; 0
    280a:	0e 94 6c 13 	call	0x26d8	; 0x26d8 <__fp_powser>
    280e:	8b 01       	movw	r16, r22
    2810:	be 01       	movw	r22, r28
    2812:	ec 01       	movw	r28, r24
    2814:	fb 2e       	mov	r15, r27
    2816:	6f 57       	subi	r22, 0x7F	; 127
    2818:	71 09       	sbc	r23, r1
    281a:	75 95       	asr	r23
    281c:	77 1f       	adc	r23, r23
    281e:	88 0b       	sbc	r24, r24
    2820:	99 0b       	sbc	r25, r25
    2822:	0e 94 c0 11 	call	0x2380	; 0x2380 <__floatsisf>
    2826:	28 e1       	ldi	r18, 0x18	; 24
    2828:	32 e7       	ldi	r19, 0x72	; 114
    282a:	41 e3       	ldi	r20, 0x31	; 49
    282c:	5f e3       	ldi	r21, 0x3F	; 63
    282e:	0e 94 88 12 	call	0x2510	; 0x2510 <__mulsf3x>
    2832:	af 2d       	mov	r26, r15
    2834:	98 01       	movw	r18, r16
    2836:	ae 01       	movw	r20, r28
    2838:	ff 90       	pop	r15
    283a:	0f 91       	pop	r16
    283c:	1f 91       	pop	r17
    283e:	cf 91       	pop	r28
    2840:	df 91       	pop	r29
    2842:	0e 94 bc 10 	call	0x2178	; 0x2178 <__addsf3x>
    2846:	0c 94 36 12 	jmp	0x246c	; 0x246c <__fp_round>

0000284a <modf>:
    284a:	fa 01       	movw	r30, r20
    284c:	dc 01       	movw	r26, r24
    284e:	aa 0f       	add	r26, r26
    2850:	bb 1f       	adc	r27, r27
    2852:	9b 01       	movw	r18, r22
    2854:	ac 01       	movw	r20, r24
    2856:	bf 57       	subi	r27, 0x7F	; 127
    2858:	28 f4       	brcc	.+10     	; 0x2864 <modf+0x1a>
    285a:	22 27       	eor	r18, r18
    285c:	33 27       	eor	r19, r19
    285e:	44 27       	eor	r20, r20
    2860:	50 78       	andi	r21, 0x80	; 128
    2862:	20 c0       	rjmp	.+64     	; 0x28a4 <modf+0x5a>
    2864:	b7 51       	subi	r27, 0x17	; 23
    2866:	90 f4       	brcc	.+36     	; 0x288c <modf+0x42>
    2868:	ab 2f       	mov	r26, r27
    286a:	00 24       	eor	r0, r0
    286c:	46 95       	lsr	r20
    286e:	37 95       	ror	r19
    2870:	27 95       	ror	r18
    2872:	01 1c       	adc	r0, r1
    2874:	a3 95       	inc	r26
    2876:	d2 f3       	brmi	.-12     	; 0x286c <modf+0x22>
    2878:	00 20       	and	r0, r0
    287a:	71 f0       	breq	.+28     	; 0x2898 <modf+0x4e>
    287c:	22 0f       	add	r18, r18
    287e:	33 1f       	adc	r19, r19
    2880:	44 1f       	adc	r20, r20
    2882:	b3 95       	inc	r27
    2884:	da f3       	brmi	.-10     	; 0x287c <modf+0x32>
    2886:	0e d0       	rcall	.+28     	; 0x28a4 <modf+0x5a>
    2888:	0c 94 a4 10 	jmp	0x2148	; 0x2148 <__subsf3>
    288c:	61 30       	cpi	r22, 0x01	; 1
    288e:	71 05       	cpc	r23, r1
    2890:	a0 e8       	ldi	r26, 0x80	; 128
    2892:	8a 07       	cpc	r24, r26
    2894:	b9 46       	sbci	r27, 0x69	; 105
    2896:	30 f4       	brcc	.+12     	; 0x28a4 <modf+0x5a>
    2898:	9b 01       	movw	r18, r22
    289a:	ac 01       	movw	r20, r24
    289c:	66 27       	eor	r22, r22
    289e:	77 27       	eor	r23, r23
    28a0:	88 27       	eor	r24, r24
    28a2:	90 78       	andi	r25, 0x80	; 128
    28a4:	30 96       	adiw	r30, 0x00	; 0
    28a6:	21 f0       	breq	.+8      	; 0x28b0 <modf+0x66>
    28a8:	20 83       	st	Z, r18
    28aa:	31 83       	std	Z+1, r19	; 0x01
    28ac:	42 83       	std	Z+2, r20	; 0x02
    28ae:	53 83       	std	Z+3, r21	; 0x03
    28b0:	08 95       	ret

000028b2 <__fp_mpack>:
    28b2:	9f 3f       	cpi	r25, 0xFF	; 255
    28b4:	31 f0       	breq	.+12     	; 0x28c2 <__fp_mpack_finite+0xc>

000028b6 <__fp_mpack_finite>:
    28b6:	91 50       	subi	r25, 0x01	; 1
    28b8:	20 f4       	brcc	.+8      	; 0x28c2 <__fp_mpack_finite+0xc>
    28ba:	87 95       	ror	r24
    28bc:	77 95       	ror	r23
    28be:	67 95       	ror	r22
    28c0:	b7 95       	ror	r27
    28c2:	88 0f       	add	r24, r24
    28c4:	91 1d       	adc	r25, r1
    28c6:	96 95       	lsr	r25
    28c8:	87 95       	ror	r24
    28ca:	97 f9       	bld	r25, 7
    28cc:	08 95       	ret

000028ce <itoa>:
    28ce:	45 32       	cpi	r20, 0x25	; 37
    28d0:	51 05       	cpc	r21, r1
    28d2:	20 f4       	brcc	.+8      	; 0x28dc <itoa+0xe>
    28d4:	42 30       	cpi	r20, 0x02	; 2
    28d6:	10 f0       	brcs	.+4      	; 0x28dc <itoa+0xe>
    28d8:	0c 94 72 14 	jmp	0x28e4	; 0x28e4 <__itoa_ncheck>
    28dc:	fb 01       	movw	r30, r22
    28de:	10 82       	st	Z, r1
    28e0:	cb 01       	movw	r24, r22
    28e2:	08 95       	ret

000028e4 <__itoa_ncheck>:
    28e4:	bb 27       	eor	r27, r27
    28e6:	4a 30       	cpi	r20, 0x0A	; 10
    28e8:	31 f4       	brne	.+12     	; 0x28f6 <__itoa_ncheck+0x12>
    28ea:	99 23       	and	r25, r25
    28ec:	22 f4       	brpl	.+8      	; 0x28f6 <__itoa_ncheck+0x12>
    28ee:	bd e2       	ldi	r27, 0x2D	; 45
    28f0:	90 95       	com	r25
    28f2:	81 95       	neg	r24
    28f4:	9f 4f       	sbci	r25, 0xFF	; 255
    28f6:	0c 94 7e 14 	jmp	0x28fc	; 0x28fc <__utoa_common>

000028fa <__utoa_ncheck>:
    28fa:	bb 27       	eor	r27, r27

000028fc <__utoa_common>:
    28fc:	fb 01       	movw	r30, r22
    28fe:	55 27       	eor	r21, r21
    2900:	aa 27       	eor	r26, r26
    2902:	88 0f       	add	r24, r24
    2904:	99 1f       	adc	r25, r25
    2906:	aa 1f       	adc	r26, r26
    2908:	a4 17       	cp	r26, r20
    290a:	10 f0       	brcs	.+4      	; 0x2910 <__utoa_common+0x14>
    290c:	a4 1b       	sub	r26, r20
    290e:	83 95       	inc	r24
    2910:	50 51       	subi	r21, 0x10	; 16
    2912:	b9 f7       	brne	.-18     	; 0x2902 <__utoa_common+0x6>
    2914:	a0 5d       	subi	r26, 0xD0	; 208
    2916:	aa 33       	cpi	r26, 0x3A	; 58
    2918:	08 f0       	brcs	.+2      	; 0x291c <__utoa_common+0x20>
    291a:	a9 5d       	subi	r26, 0xD9	; 217
    291c:	a1 93       	st	Z+, r26
    291e:	00 97       	sbiw	r24, 0x00	; 0
    2920:	79 f7       	brne	.-34     	; 0x2900 <__utoa_common+0x4>
    2922:	b1 11       	cpse	r27, r1
    2924:	b1 93       	st	Z+, r27
    2926:	11 92       	st	Z+, r1
    2928:	cb 01       	movw	r24, r22
    292a:	0c 94 97 14 	jmp	0x292e	; 0x292e <strrev>

0000292e <strrev>:
    292e:	dc 01       	movw	r26, r24
    2930:	fc 01       	movw	r30, r24
    2932:	67 2f       	mov	r22, r23
    2934:	71 91       	ld	r23, Z+
    2936:	77 23       	and	r23, r23
    2938:	e1 f7       	brne	.-8      	; 0x2932 <strrev+0x4>
    293a:	32 97       	sbiw	r30, 0x02	; 2
    293c:	04 c0       	rjmp	.+8      	; 0x2946 <strrev+0x18>
    293e:	7c 91       	ld	r23, X
    2940:	6d 93       	st	X+, r22
    2942:	70 83       	st	Z, r23
    2944:	62 91       	ld	r22, -Z
    2946:	ae 17       	cp	r26, r30
    2948:	bf 07       	cpc	r27, r31
    294a:	c8 f3       	brcs	.-14     	; 0x293e <strrev+0x10>
    294c:	08 95       	ret

0000294e <_exit>:
    294e:	f8 94       	cli

00002950 <__stop_program>:
    2950:	ff cf       	rjmp	.-2      	; 0x2950 <__stop_program>
