
LED_controller.elf:     file format elf32-avr

Sections:
Idx Name          Size      VMA       LMA       File off  Algn
  0 .text         000018fc  00000000  00000000  00000094  2**1
                  CONTENTS, ALLOC, LOAD, READONLY, CODE
  1 .data         0000056c  00800060  000018fc  00001990  2**0
                  CONTENTS, ALLOC, LOAD, DATA
  2 .bss          00000012  008005cc  008005cc  00001efc  2**0
                  ALLOC
  3 .comment      00000030  00000000  00000000  00001efc  2**0
                  CONTENTS, READONLY
  4 .note.gnu.avr.deviceinfo 0000003c  00000000  00000000  00001f2c  2**2
                  CONTENTS, READONLY
  5 .debug_info   000004e6  00000000  00000000  00001f68  2**0
                  CONTENTS, READONLY, DEBUGGING
  6 .debug_abbrev 000004a3  00000000  00000000  0000244e  2**0
                  CONTENTS, READONLY, DEBUGGING
  7 .debug_line   00000116  00000000  00000000  000028f1  2**0
                  CONTENTS, READONLY, DEBUGGING
  8 .debug_str    00000196  00000000  00000000  00002a07  2**0
                  CONTENTS, READONLY, DEBUGGING

Disassembly of section .text:

00000000 <__vectors>:
       0:	0c 94 42 00 	jmp	0x84	; 0x84 <__ctors_end>
       4:	0c 94 39 08 	jmp	0x1072	; 0x1072 <__vector_1>
       8:	0c 94 6a 00 	jmp	0xd4	; 0xd4 <__bad_interrupt>
       c:	0c 94 6a 00 	jmp	0xd4	; 0xd4 <__bad_interrupt>
      10:	0c 94 6a 00 	jmp	0xd4	; 0xd4 <__bad_interrupt>
      14:	0c 94 6a 00 	jmp	0xd4	; 0xd4 <__bad_interrupt>
      18:	0c 94 6a 00 	jmp	0xd4	; 0xd4 <__bad_interrupt>
      1c:	0c 94 83 08 	jmp	0x1106	; 0x1106 <__vector_7>
      20:	0c 94 6a 00 	jmp	0xd4	; 0xd4 <__bad_interrupt>
      24:	0c 94 6a 00 	jmp	0xd4	; 0xd4 <__bad_interrupt>
      28:	0c 94 6a 00 	jmp	0xd4	; 0xd4 <__bad_interrupt>
      2c:	0c 94 6a 00 	jmp	0xd4	; 0xd4 <__bad_interrupt>
      30:	0c 94 6a 00 	jmp	0xd4	; 0xd4 <__bad_interrupt>
      34:	0c 94 6a 00 	jmp	0xd4	; 0xd4 <__bad_interrupt>
      38:	0c 94 6a 00 	jmp	0xd4	; 0xd4 <__bad_interrupt>
      3c:	0c 94 6a 00 	jmp	0xd4	; 0xd4 <__bad_interrupt>
      40:	0c 94 6a 00 	jmp	0xd4	; 0xd4 <__bad_interrupt>
      44:	0c 94 6a 00 	jmp	0xd4	; 0xd4 <__bad_interrupt>
      48:	0c 94 6a 00 	jmp	0xd4	; 0xd4 <__bad_interrupt>
      4c:	0c 94 6a 00 	jmp	0xd4	; 0xd4 <__bad_interrupt>
      50:	0c 94 6a 00 	jmp	0xd4	; 0xd4 <__bad_interrupt>
      54:	25 01       	movw	r4, r10
      56:	33 01       	movw	r6, r6
      58:	41 01       	movw	r8, r2
      5a:	4f 01       	movw	r8, r30
      5c:	5d 01       	movw	r10, r26
      5e:	6b 01       	movw	r12, r22
      60:	79 01       	movw	r14, r18
      62:	87 01       	movw	r16, r14
      64:	95 01       	movw	r18, r10
      66:	a3 01       	movw	r20, r6
      68:	b1 01       	movw	r22, r2
      6a:	5c 02       	muls	r21, r28
      6c:	b8 02       	muls	r27, r24
      6e:	b8 02       	muls	r27, r24
      70:	b8 02       	muls	r27, r24
      72:	65 02       	muls	r22, r21
      74:	6e 02       	muls	r22, r30
      76:	77 02       	muls	r23, r23
      78:	80 02       	muls	r24, r16
      7a:	89 02       	muls	r24, r25
      7c:	92 02       	muls	r25, r18
      7e:	9b 02       	muls	r25, r27
      80:	a2 02       	muls	r26, r18

00000082 <__ctors_start>:
      82:	00 09       	sbc	r16, r0

00000084 <__ctors_end>:
      84:	11 24       	eor	r1, r1
      86:	1f be       	out	0x3f, r1	; 63
      88:	cf e5       	ldi	r28, 0x5F	; 95
      8a:	d8 e0       	ldi	r29, 0x08	; 8
      8c:	de bf       	out	0x3e, r29	; 62
      8e:	cd bf       	out	0x3d, r28	; 61

00000090 <__do_copy_data>:
      90:	15 e0       	ldi	r17, 0x05	; 5
      92:	a0 e6       	ldi	r26, 0x60	; 96
      94:	b0 e0       	ldi	r27, 0x00	; 0
      96:	ec ef       	ldi	r30, 0xFC	; 252
      98:	f8 e1       	ldi	r31, 0x18	; 24
      9a:	02 c0       	rjmp	.+4      	; 0xa0 <__do_copy_data+0x10>
      9c:	05 90       	lpm	r0, Z+
      9e:	0d 92       	st	X+, r0
      a0:	ac 3c       	cpi	r26, 0xCC	; 204
      a2:	b1 07       	cpc	r27, r17
      a4:	d9 f7       	brne	.-10     	; 0x9c <__do_copy_data+0xc>

000000a6 <__do_clear_bss>:
      a6:	25 e0       	ldi	r18, 0x05	; 5
      a8:	ac ec       	ldi	r26, 0xCC	; 204
      aa:	b5 e0       	ldi	r27, 0x05	; 5
      ac:	01 c0       	rjmp	.+2      	; 0xb0 <.do_clear_bss_start>

000000ae <.do_clear_bss_loop>:
      ae:	1d 92       	st	X+, r1

000000b0 <.do_clear_bss_start>:
      b0:	ae 3d       	cpi	r26, 0xDE	; 222
      b2:	b2 07       	cpc	r27, r18
      b4:	e1 f7       	brne	.-8      	; 0xae <.do_clear_bss_loop>

000000b6 <__do_global_ctors>:
      b6:	10 e0       	ldi	r17, 0x00	; 0
      b8:	c2 e4       	ldi	r28, 0x42	; 66
      ba:	d0 e0       	ldi	r29, 0x00	; 0
      bc:	04 c0       	rjmp	.+8      	; 0xc6 <__do_global_ctors+0x10>
      be:	21 97       	sbiw	r28, 0x01	; 1
      c0:	fe 01       	movw	r30, r28
      c2:	0e 94 63 0b 	call	0x16c6	; 0x16c6 <__tablejump2__>
      c6:	c1 34       	cpi	r28, 0x41	; 65
      c8:	d1 07       	cpc	r29, r17
      ca:	c9 f7       	brne	.-14     	; 0xbe <__do_global_ctors+0x8>
      cc:	0e 94 d7 02 	call	0x5ae	; 0x5ae <main>
      d0:	0c 94 7c 0c 	jmp	0x18f8	; 0x18f8 <_exit>

000000d4 <__bad_interrupt>:
      d4:	0c 94 00 00 	jmp	0	; 0x0 <__vectors>

000000d8 <_Z8BinToDecc>:
      d8:	98 2f       	mov	r25, r24
      da:	96 95       	lsr	r25
      dc:	96 95       	lsr	r25
      de:	96 95       	lsr	r25
      e0:	9e 71       	andi	r25, 0x1E	; 30
      e2:	29 2f       	mov	r18, r25
      e4:	22 0f       	add	r18, r18
      e6:	22 0f       	add	r18, r18
      e8:	92 0f       	add	r25, r18
      ea:	8f 70       	andi	r24, 0x0F	; 15
      ec:	89 0f       	add	r24, r25
      ee:	08 95       	ret

000000f0 <_Z8DecToBinc>:
      f0:	6a e0       	ldi	r22, 0x0A	; 10
      f2:	0e 94 43 0b 	call	0x1686	; 0x1686 <__udivmodqi4>
      f6:	29 2f       	mov	r18, r25
      f8:	30 e1       	ldi	r19, 0x10	; 16
      fa:	83 9f       	mul	r24, r19
      fc:	c0 01       	movw	r24, r0
      fe:	11 24       	eor	r1, r1
     100:	82 2b       	or	r24, r18
     102:	08 95       	ret

00000104 <_Z10I2CMRstartv>:
     104:	84 ea       	ldi	r24, 0xA4	; 164
     106:	86 bf       	out	0x36, r24	; 54
     108:	06 b6       	in	r0, 0x36	; 54
     10a:	07 fe       	sbrs	r0, 7
     10c:	fd cf       	rjmp	.-6      	; 0x108 <_Z10I2CMRstartv+0x4>
     10e:	08 95       	ret

00000110 <_Z9I2CMRsendc>:
     110:	83 b9       	out	0x03, r24	; 3
     112:	84 e8       	ldi	r24, 0x84	; 132
     114:	86 bf       	out	0x36, r24	; 54
     116:	06 b6       	in	r0, 0x36	; 54
     118:	07 fe       	sbrs	r0, 7
     11a:	fd cf       	rjmp	.-6      	; 0x116 <_Z9I2CMRsendc+0x6>
     11c:	08 95       	ret

0000011e <_Z9I2CMRreadv>:
     11e:	84 ec       	ldi	r24, 0xC4	; 196
     120:	86 bf       	out	0x36, r24	; 54
     122:	06 b6       	in	r0, 0x36	; 54
     124:	07 fe       	sbrs	r0, 7
     126:	fd cf       	rjmp	.-6      	; 0x122 <_Z9I2CMRreadv+0x4>
     128:	83 b1       	in	r24, 0x03	; 3
     12a:	08 95       	ret

0000012c <_Z16DS1307_WriteTimePc>:
     12c:	cf 93       	push	r28
     12e:	df 93       	push	r29
     130:	ec 01       	movw	r28, r24
     132:	88 e2       	ldi	r24, 0x28	; 40
     134:	80 b9       	out	0x00, r24	; 0
     136:	81 b1       	in	r24, 0x01	; 1
     138:	81 b9       	out	0x01, r24	; 1
     13a:	0e 94 82 00 	call	0x104	; 0x104 <_Z10I2CMRstartv>
     13e:	80 ed       	ldi	r24, 0xD0	; 208
     140:	0e 94 88 00 	call	0x110	; 0x110 <_Z9I2CMRsendc>
     144:	80 e0       	ldi	r24, 0x00	; 0
     146:	0e 94 88 00 	call	0x110	; 0x110 <_Z9I2CMRsendc>
     14a:	88 81       	ld	r24, Y
     14c:	0e 94 78 00 	call	0xf0	; 0xf0 <_Z8DecToBinc>
     150:	0e 94 88 00 	call	0x110	; 0x110 <_Z9I2CMRsendc>
     154:	89 81       	ldd	r24, Y+1	; 0x01
     156:	0e 94 78 00 	call	0xf0	; 0xf0 <_Z8DecToBinc>
     15a:	0e 94 88 00 	call	0x110	; 0x110 <_Z9I2CMRsendc>
     15e:	8a 81       	ldd	r24, Y+2	; 0x02
     160:	0e 94 78 00 	call	0xf0	; 0xf0 <_Z8DecToBinc>
     164:	0e 94 88 00 	call	0x110	; 0x110 <_Z9I2CMRsendc>
     168:	8b 81       	ldd	r24, Y+3	; 0x03
     16a:	0e 94 78 00 	call	0xf0	; 0xf0 <_Z8DecToBinc>
     16e:	0e 94 88 00 	call	0x110	; 0x110 <_Z9I2CMRsendc>
     172:	8c 81       	ldd	r24, Y+4	; 0x04
     174:	0e 94 78 00 	call	0xf0	; 0xf0 <_Z8DecToBinc>
     178:	0e 94 88 00 	call	0x110	; 0x110 <_Z9I2CMRsendc>
     17c:	8d 81       	ldd	r24, Y+5	; 0x05
     17e:	0e 94 78 00 	call	0xf0	; 0xf0 <_Z8DecToBinc>
     182:	0e 94 88 00 	call	0x110	; 0x110 <_Z9I2CMRsendc>
     186:	8e 81       	ldd	r24, Y+6	; 0x06
     188:	0e 94 78 00 	call	0xf0	; 0xf0 <_Z8DecToBinc>
     18c:	0e 94 88 00 	call	0x110	; 0x110 <_Z9I2CMRsendc>
     190:	80 e1       	ldi	r24, 0x10	; 16
     192:	0e 94 88 00 	call	0x110	; 0x110 <_Z9I2CMRsendc>
     196:	84 e9       	ldi	r24, 0x94	; 148
     198:	86 bf       	out	0x36, r24	; 54
     19a:	df 91       	pop	r29
     19c:	cf 91       	pop	r28
     19e:	08 95       	ret

000001a0 <_Z15DS1307_ReadTimePc>:
     1a0:	cf 93       	push	r28
     1a2:	df 93       	push	r29
     1a4:	ec 01       	movw	r28, r24
     1a6:	82 e4       	ldi	r24, 0x42	; 66
     1a8:	80 b9       	out	0x00, r24	; 0
     1aa:	81 b1       	in	r24, 0x01	; 1
     1ac:	81 b9       	out	0x01, r24	; 1
     1ae:	0e 94 82 00 	call	0x104	; 0x104 <_Z10I2CMRstartv>
     1b2:	80 ed       	ldi	r24, 0xD0	; 208
     1b4:	0e 94 88 00 	call	0x110	; 0x110 <_Z9I2CMRsendc>
     1b8:	80 e0       	ldi	r24, 0x00	; 0
     1ba:	0e 94 88 00 	call	0x110	; 0x110 <_Z9I2CMRsendc>
     1be:	0e 94 82 00 	call	0x104	; 0x104 <_Z10I2CMRstartv>
     1c2:	81 ed       	ldi	r24, 0xD1	; 209
     1c4:	0e 94 88 00 	call	0x110	; 0x110 <_Z9I2CMRsendc>
     1c8:	0e 94 8f 00 	call	0x11e	; 0x11e <_Z9I2CMRreadv>
     1cc:	0e 94 6c 00 	call	0xd8	; 0xd8 <_Z8BinToDecc>
     1d0:	88 83       	st	Y, r24
     1d2:	0e 94 8f 00 	call	0x11e	; 0x11e <_Z9I2CMRreadv>
     1d6:	0e 94 6c 00 	call	0xd8	; 0xd8 <_Z8BinToDecc>
     1da:	89 83       	std	Y+1, r24	; 0x01
     1dc:	0e 94 8f 00 	call	0x11e	; 0x11e <_Z9I2CMRreadv>
     1e0:	0e 94 6c 00 	call	0xd8	; 0xd8 <_Z8BinToDecc>
     1e4:	8a 83       	std	Y+2, r24	; 0x02
     1e6:	0e 94 8f 00 	call	0x11e	; 0x11e <_Z9I2CMRreadv>
     1ea:	0e 94 6c 00 	call	0xd8	; 0xd8 <_Z8BinToDecc>
     1ee:	8b 83       	std	Y+3, r24	; 0x03
     1f0:	0e 94 8f 00 	call	0x11e	; 0x11e <_Z9I2CMRreadv>
     1f4:	0e 94 6c 00 	call	0xd8	; 0xd8 <_Z8BinToDecc>
     1f8:	8c 83       	std	Y+4, r24	; 0x04
     1fa:	0e 94 8f 00 	call	0x11e	; 0x11e <_Z9I2CMRreadv>
     1fe:	0e 94 6c 00 	call	0xd8	; 0xd8 <_Z8BinToDecc>
     202:	8d 83       	std	Y+5, r24	; 0x05
     204:	84 e8       	ldi	r24, 0x84	; 132
     206:	86 bf       	out	0x36, r24	; 54
     208:	06 b6       	in	r0, 0x36	; 54
     20a:	07 fe       	sbrs	r0, 7
     20c:	fd cf       	rjmp	.-6      	; 0x208 <_Z15DS1307_ReadTimePc+0x68>
     20e:	83 b1       	in	r24, 0x03	; 3
     210:	0e 94 6c 00 	call	0xd8	; 0xd8 <_Z8BinToDecc>
     214:	8e 83       	std	Y+6, r24	; 0x06
     216:	84 e9       	ldi	r24, 0x94	; 148
     218:	86 bf       	out	0x36, r24	; 54
     21a:	df 91       	pop	r29
     21c:	cf 91       	pop	r28
     21e:	08 95       	ret

00000220 <_Z15Buttons_Handlerv>:
     220:	80 91 d0 05 	lds	r24, 0x05D0	; 0x8005d0 <button>
     224:	81 30       	cpi	r24, 0x01	; 1
     226:	09 f0       	breq	.+2      	; 0x22a <_Z15Buttons_Handlerv+0xa>
     228:	a9 c0       	rjmp	.+338    	; 0x37c <_Z15Buttons_Handlerv+0x15c>
     22a:	10 92 d0 05 	sts	0x05D0, r1	; 0x8005d0 <button>
     22e:	e0 91 cf 05 	lds	r30, 0x05CF	; 0x8005cf <mode>
     232:	8e 2f       	mov	r24, r30
     234:	90 e0       	ldi	r25, 0x00	; 0
     236:	fc 01       	movw	r30, r24
     238:	31 97       	sbiw	r30, 0x01	; 1
     23a:	eb 30       	cpi	r30, 0x0B	; 11
     23c:	f1 05       	cpc	r31, r1
     23e:	08 f0       	brcs	.+2      	; 0x242 <_Z15Buttons_Handlerv+0x22>
     240:	97 c1       	rjmp	.+814    	; 0x570 <__EEPROM_REGION_LENGTH__+0x170>
     242:	e6 5d       	subi	r30, 0xD6	; 214
     244:	ff 4f       	sbci	r31, 0xFF	; 255
     246:	0c 94 63 0b 	jmp	0x16c6	; 0x16c6 <__tablejump2__>
     24a:	80 91 cc 05 	lds	r24, 0x05CC	; 0x8005cc <__data_end>
     24e:	8f 5f       	subi	r24, 0xFF	; 255
     250:	8c 33       	cpi	r24, 0x3C	; 60
     252:	18 f4       	brcc	.+6      	; 0x25a <_Z15Buttons_Handlerv+0x3a>
     254:	80 93 cc 05 	sts	0x05CC, r24	; 0x8005cc <__data_end>
     258:	02 c0       	rjmp	.+4      	; 0x25e <_Z15Buttons_Handlerv+0x3e>
     25a:	10 92 cc 05 	sts	0x05CC, r1	; 0x8005cc <__data_end>
     25e:	81 e0       	ldi	r24, 0x01	; 1
     260:	80 93 7d 00 	sts	0x007D, r24	; 0x80007d <update_second>
     264:	8b c0       	rjmp	.+278    	; 0x37c <_Z15Buttons_Handlerv+0x15c>
     266:	80 91 cd 05 	lds	r24, 0x05CD	; 0x8005cd <__data_end+0x1>
     26a:	8f 5f       	subi	r24, 0xFF	; 255
     26c:	8c 33       	cpi	r24, 0x3C	; 60
     26e:	18 f4       	brcc	.+6      	; 0x276 <_Z15Buttons_Handlerv+0x56>
     270:	80 93 cd 05 	sts	0x05CD, r24	; 0x8005cd <__data_end+0x1>
     274:	02 c0       	rjmp	.+4      	; 0x27a <_Z15Buttons_Handlerv+0x5a>
     276:	10 92 cd 05 	sts	0x05CD, r1	; 0x8005cd <__data_end+0x1>
     27a:	81 e0       	ldi	r24, 0x01	; 1
     27c:	80 93 7c 00 	sts	0x007C, r24	; 0x80007c <update_minute>
     280:	7d c0       	rjmp	.+250    	; 0x37c <_Z15Buttons_Handlerv+0x15c>
     282:	80 91 ce 05 	lds	r24, 0x05CE	; 0x8005ce <__data_end+0x2>
     286:	8f 5f       	subi	r24, 0xFF	; 255
     288:	88 31       	cpi	r24, 0x18	; 24
     28a:	18 f4       	brcc	.+6      	; 0x292 <_Z15Buttons_Handlerv+0x72>
     28c:	80 93 ce 05 	sts	0x05CE, r24	; 0x8005ce <__data_end+0x2>
     290:	02 c0       	rjmp	.+4      	; 0x296 <_Z15Buttons_Handlerv+0x76>
     292:	10 92 ce 05 	sts	0x05CE, r1	; 0x8005ce <__data_end+0x2>
     296:	81 e0       	ldi	r24, 0x01	; 1
     298:	80 93 7b 00 	sts	0x007B, r24	; 0x80007b <update_hour>
     29c:	6f c0       	rjmp	.+222    	; 0x37c <_Z15Buttons_Handlerv+0x15c>
     29e:	80 91 64 00 	lds	r24, 0x0064	; 0x800064 <time_schedule>
     2a2:	8f 5f       	subi	r24, 0xFF	; 255
     2a4:	88 31       	cpi	r24, 0x18	; 24
     2a6:	18 f4       	brcc	.+6      	; 0x2ae <_Z15Buttons_Handlerv+0x8e>
     2a8:	80 93 64 00 	sts	0x0064, r24	; 0x800064 <time_schedule>
     2ac:	02 c0       	rjmp	.+4      	; 0x2b2 <_Z15Buttons_Handlerv+0x92>
     2ae:	10 92 64 00 	sts	0x0064, r1	; 0x800064 <time_schedule>
     2b2:	81 e0       	ldi	r24, 0x01	; 1
     2b4:	80 93 7a 00 	sts	0x007A, r24	; 0x80007a <update_hour_sunrise>
     2b8:	61 c0       	rjmp	.+194    	; 0x37c <_Z15Buttons_Handlerv+0x15c>
     2ba:	80 91 65 00 	lds	r24, 0x0065	; 0x800065 <time_schedule+0x1>
     2be:	8f 5f       	subi	r24, 0xFF	; 255
     2c0:	8c 33       	cpi	r24, 0x3C	; 60
     2c2:	18 f4       	brcc	.+6      	; 0x2ca <_Z15Buttons_Handlerv+0xaa>
     2c4:	80 93 65 00 	sts	0x0065, r24	; 0x800065 <time_schedule+0x1>
     2c8:	02 c0       	rjmp	.+4      	; 0x2ce <_Z15Buttons_Handlerv+0xae>
     2ca:	10 92 65 00 	sts	0x0065, r1	; 0x800065 <time_schedule+0x1>
     2ce:	81 e0       	ldi	r24, 0x01	; 1
     2d0:	80 93 79 00 	sts	0x0079, r24	; 0x800079 <update_minute_sunrise>
     2d4:	53 c0       	rjmp	.+166    	; 0x37c <_Z15Buttons_Handlerv+0x15c>
     2d6:	80 91 66 00 	lds	r24, 0x0066	; 0x800066 <time_schedule+0x2>
     2da:	8f 5f       	subi	r24, 0xFF	; 255
     2dc:	88 31       	cpi	r24, 0x18	; 24
     2de:	18 f4       	brcc	.+6      	; 0x2e6 <_Z15Buttons_Handlerv+0xc6>
     2e0:	80 93 66 00 	sts	0x0066, r24	; 0x800066 <time_schedule+0x2>
     2e4:	02 c0       	rjmp	.+4      	; 0x2ea <_Z15Buttons_Handlerv+0xca>
     2e6:	10 92 66 00 	sts	0x0066, r1	; 0x800066 <time_schedule+0x2>
     2ea:	81 e0       	ldi	r24, 0x01	; 1
     2ec:	80 93 78 00 	sts	0x0078, r24	; 0x800078 <update_hour_day>
     2f0:	45 c0       	rjmp	.+138    	; 0x37c <_Z15Buttons_Handlerv+0x15c>
     2f2:	80 91 67 00 	lds	r24, 0x0067	; 0x800067 <time_schedule+0x3>
     2f6:	8f 5f       	subi	r24, 0xFF	; 255
     2f8:	8c 33       	cpi	r24, 0x3C	; 60
     2fa:	18 f4       	brcc	.+6      	; 0x302 <_Z15Buttons_Handlerv+0xe2>
     2fc:	80 93 67 00 	sts	0x0067, r24	; 0x800067 <time_schedule+0x3>
     300:	02 c0       	rjmp	.+4      	; 0x306 <_Z15Buttons_Handlerv+0xe6>
     302:	10 92 67 00 	sts	0x0067, r1	; 0x800067 <time_schedule+0x3>
     306:	81 e0       	ldi	r24, 0x01	; 1
     308:	80 93 77 00 	sts	0x0077, r24	; 0x800077 <update_minute_day>
     30c:	37 c0       	rjmp	.+110    	; 0x37c <_Z15Buttons_Handlerv+0x15c>
     30e:	80 91 68 00 	lds	r24, 0x0068	; 0x800068 <time_schedule+0x4>
     312:	8f 5f       	subi	r24, 0xFF	; 255
     314:	88 31       	cpi	r24, 0x18	; 24
     316:	18 f4       	brcc	.+6      	; 0x31e <_Z15Buttons_Handlerv+0xfe>
     318:	80 93 68 00 	sts	0x0068, r24	; 0x800068 <time_schedule+0x4>
     31c:	02 c0       	rjmp	.+4      	; 0x322 <_Z15Buttons_Handlerv+0x102>
     31e:	10 92 68 00 	sts	0x0068, r1	; 0x800068 <time_schedule+0x4>
     322:	81 e0       	ldi	r24, 0x01	; 1
     324:	80 93 76 00 	sts	0x0076, r24	; 0x800076 <update_hour_sunset>
     328:	29 c0       	rjmp	.+82     	; 0x37c <_Z15Buttons_Handlerv+0x15c>
     32a:	80 91 69 00 	lds	r24, 0x0069	; 0x800069 <time_schedule+0x5>
     32e:	8f 5f       	subi	r24, 0xFF	; 255
     330:	8c 33       	cpi	r24, 0x3C	; 60
     332:	18 f4       	brcc	.+6      	; 0x33a <_Z15Buttons_Handlerv+0x11a>
     334:	80 93 69 00 	sts	0x0069, r24	; 0x800069 <time_schedule+0x5>
     338:	02 c0       	rjmp	.+4      	; 0x33e <_Z15Buttons_Handlerv+0x11e>
     33a:	10 92 69 00 	sts	0x0069, r1	; 0x800069 <time_schedule+0x5>
     33e:	81 e0       	ldi	r24, 0x01	; 1
     340:	80 93 75 00 	sts	0x0075, r24	; 0x800075 <update_minute_sunset>
     344:	1b c0       	rjmp	.+54     	; 0x37c <_Z15Buttons_Handlerv+0x15c>
     346:	80 91 6a 00 	lds	r24, 0x006A	; 0x80006a <time_schedule+0x6>
     34a:	8f 5f       	subi	r24, 0xFF	; 255
     34c:	88 31       	cpi	r24, 0x18	; 24
     34e:	18 f4       	brcc	.+6      	; 0x356 <_Z15Buttons_Handlerv+0x136>
     350:	80 93 6a 00 	sts	0x006A, r24	; 0x80006a <time_schedule+0x6>
     354:	02 c0       	rjmp	.+4      	; 0x35a <_Z15Buttons_Handlerv+0x13a>
     356:	10 92 6a 00 	sts	0x006A, r1	; 0x80006a <time_schedule+0x6>
     35a:	81 e0       	ldi	r24, 0x01	; 1
     35c:	80 93 74 00 	sts	0x0074, r24	; 0x800074 <update_hour_night>
     360:	0d c0       	rjmp	.+26     	; 0x37c <_Z15Buttons_Handlerv+0x15c>
     362:	80 91 6b 00 	lds	r24, 0x006B	; 0x80006b <time_schedule+0x7>
     366:	8f 5f       	subi	r24, 0xFF	; 255
     368:	8c 33       	cpi	r24, 0x3C	; 60
     36a:	18 f4       	brcc	.+6      	; 0x372 <_Z15Buttons_Handlerv+0x152>
     36c:	80 93 6b 00 	sts	0x006B, r24	; 0x80006b <time_schedule+0x7>
     370:	02 c0       	rjmp	.+4      	; 0x376 <_Z15Buttons_Handlerv+0x156>
     372:	10 92 6b 00 	sts	0x006B, r1	; 0x80006b <time_schedule+0x7>
     376:	81 e0       	ldi	r24, 0x01	; 1
     378:	80 93 73 00 	sts	0x0073, r24	; 0x800073 <update_minute_night>
     37c:	80 91 d0 05 	lds	r24, 0x05D0	; 0x8005d0 <button>
     380:	82 30       	cpi	r24, 0x02	; 2
     382:	71 f5       	brne	.+92     	; 0x3e0 <_Z15Buttons_Handlerv+0x1c0>
     384:	10 92 d0 05 	sts	0x05D0, r1	; 0x8005d0 <button>
     388:	80 91 cf 05 	lds	r24, 0x05CF	; 0x8005cf <mode>
     38c:	82 30       	cpi	r24, 0x02	; 2
     38e:	89 f0       	breq	.+34     	; 0x3b2 <_Z15Buttons_Handlerv+0x192>
     390:	83 30       	cpi	r24, 0x03	; 3
     392:	d9 f0       	breq	.+54     	; 0x3ca <_Z15Buttons_Handlerv+0x1aa>
     394:	81 30       	cpi	r24, 0x01	; 1
     396:	09 f0       	breq	.+2      	; 0x39a <_Z15Buttons_Handlerv+0x17a>
     398:	eb c0       	rjmp	.+470    	; 0x570 <__EEPROM_REGION_LENGTH__+0x170>
     39a:	80 91 cc 05 	lds	r24, 0x05CC	; 0x8005cc <__data_end>
     39e:	81 50       	subi	r24, 0x01	; 1
     3a0:	8c 33       	cpi	r24, 0x3C	; 60
     3a2:	08 f0       	brcs	.+2      	; 0x3a6 <_Z15Buttons_Handlerv+0x186>
     3a4:	8b e3       	ldi	r24, 0x3B	; 59
     3a6:	80 93 cc 05 	sts	0x05CC, r24	; 0x8005cc <__data_end>
     3aa:	81 e0       	ldi	r24, 0x01	; 1
     3ac:	80 93 7d 00 	sts	0x007D, r24	; 0x80007d <update_second>
     3b0:	17 c0       	rjmp	.+46     	; 0x3e0 <_Z15Buttons_Handlerv+0x1c0>
     3b2:	80 91 cd 05 	lds	r24, 0x05CD	; 0x8005cd <__data_end+0x1>
     3b6:	81 50       	subi	r24, 0x01	; 1
     3b8:	8c 33       	cpi	r24, 0x3C	; 60
     3ba:	08 f0       	brcs	.+2      	; 0x3be <_Z15Buttons_Handlerv+0x19e>
     3bc:	8b e3       	ldi	r24, 0x3B	; 59
     3be:	80 93 cd 05 	sts	0x05CD, r24	; 0x8005cd <__data_end+0x1>
     3c2:	81 e0       	ldi	r24, 0x01	; 1
     3c4:	80 93 7c 00 	sts	0x007C, r24	; 0x80007c <update_minute>
     3c8:	0b c0       	rjmp	.+22     	; 0x3e0 <_Z15Buttons_Handlerv+0x1c0>
     3ca:	80 91 ce 05 	lds	r24, 0x05CE	; 0x8005ce <__data_end+0x2>
     3ce:	81 50       	subi	r24, 0x01	; 1
     3d0:	88 31       	cpi	r24, 0x18	; 24
     3d2:	08 f0       	brcs	.+2      	; 0x3d6 <_Z15Buttons_Handlerv+0x1b6>
     3d4:	87 e1       	ldi	r24, 0x17	; 23
     3d6:	80 93 ce 05 	sts	0x05CE, r24	; 0x8005ce <__data_end+0x2>
     3da:	81 e0       	ldi	r24, 0x01	; 1
     3dc:	80 93 7b 00 	sts	0x007B, r24	; 0x80007b <update_hour>
     3e0:	90 91 d0 05 	lds	r25, 0x05D0	; 0x8005d0 <button>
     3e4:	93 30       	cpi	r25, 0x03	; 3
     3e6:	09 f0       	breq	.+2      	; 0x3ea <_Z15Buttons_Handlerv+0x1ca>
     3e8:	4e c0       	rjmp	.+156    	; 0x486 <__EEPROM_REGION_LENGTH__+0x86>
     3ea:	80 91 cf 05 	lds	r24, 0x05CF	; 0x8005cf <mode>
     3ee:	2c ef       	ldi	r18, 0xFC	; 252
     3f0:	28 0f       	add	r18, r24
     3f2:	28 30       	cpi	r18, 0x08	; 8
     3f4:	08 f4       	brcc	.+2      	; 0x3f8 <_Z15Buttons_Handlerv+0x1d8>
     3f6:	be c0       	rjmp	.+380    	; 0x574 <__EEPROM_REGION_LENGTH__+0x174>
     3f8:	10 92 d0 05 	sts	0x05D0, r1	; 0x8005d0 <button>
     3fc:	81 30       	cpi	r24, 0x01	; 1
     3fe:	b1 f1       	breq	.+108    	; 0x46c <__EEPROM_REGION_LENGTH__+0x6c>
     400:	08 f1       	brcs	.+66     	; 0x444 <__EEPROM_REGION_LENGTH__+0x44>
     402:	82 30       	cpi	r24, 0x02	; 2
     404:	c9 f1       	breq	.+114    	; 0x478 <__EEPROM_REGION_LENGTH__+0x78>
     406:	83 30       	cpi	r24, 0x03	; 3
     408:	09 f0       	breq	.+2      	; 0x40c <__EEPROM_REGION_LENGTH__+0xc>
     40a:	b2 c0       	rjmp	.+356    	; 0x570 <__EEPROM_REGION_LENGTH__+0x170>
     40c:	10 92 cf 05 	sts	0x05CF, r1	; 0x8005cf <mode>
     410:	81 e0       	ldi	r24, 0x01	; 1
     412:	80 93 7d 00 	sts	0x007D, r24	; 0x80007d <update_second>
     416:	80 93 7c 00 	sts	0x007C, r24	; 0x80007c <update_minute>
     41a:	80 93 7b 00 	sts	0x007B, r24	; 0x80007b <update_hour>
     41e:	80 93 d2 05 	sts	0x05D2, r24	; 0x8005d2 <update_clock>
     422:	80 91 cc 05 	lds	r24, 0x05CC	; 0x8005cc <__data_end>
     426:	80 93 6c 00 	sts	0x006C, r24	; 0x80006c <time>
     42a:	80 91 cd 05 	lds	r24, 0x05CD	; 0x8005cd <__data_end+0x1>
     42e:	80 93 6d 00 	sts	0x006D, r24	; 0x80006d <time+0x1>
     432:	80 91 ce 05 	lds	r24, 0x05CE	; 0x8005ce <__data_end+0x2>
     436:	80 93 6e 00 	sts	0x006E, r24	; 0x80006e <time+0x2>
     43a:	8c e6       	ldi	r24, 0x6C	; 108
     43c:	90 e0       	ldi	r25, 0x00	; 0
     43e:	0e 94 96 00 	call	0x12c	; 0x12c <_Z16DS1307_WriteTimePc>
     442:	21 c0       	rjmp	.+66     	; 0x486 <__EEPROM_REGION_LENGTH__+0x86>
     444:	81 e0       	ldi	r24, 0x01	; 1
     446:	80 93 cf 05 	sts	0x05CF, r24	; 0x8005cf <mode>
     44a:	80 93 7d 00 	sts	0x007D, r24	; 0x80007d <update_second>
     44e:	80 93 d2 05 	sts	0x05D2, r24	; 0x8005d2 <update_clock>
     452:	80 91 6c 00 	lds	r24, 0x006C	; 0x80006c <time>
     456:	80 93 cc 05 	sts	0x05CC, r24	; 0x8005cc <__data_end>
     45a:	80 91 6d 00 	lds	r24, 0x006D	; 0x80006d <time+0x1>
     45e:	80 93 cd 05 	sts	0x05CD, r24	; 0x8005cd <__data_end+0x1>
     462:	80 91 6e 00 	lds	r24, 0x006E	; 0x80006e <time+0x2>
     466:	80 93 ce 05 	sts	0x05CE, r24	; 0x8005ce <__data_end+0x2>
     46a:	0d c0       	rjmp	.+26     	; 0x486 <__EEPROM_REGION_LENGTH__+0x86>
     46c:	92 e0       	ldi	r25, 0x02	; 2
     46e:	90 93 cf 05 	sts	0x05CF, r25	; 0x8005cf <mode>
     472:	80 93 7c 00 	sts	0x007C, r24	; 0x80007c <update_minute>
     476:	05 c0       	rjmp	.+10     	; 0x482 <__EEPROM_REGION_LENGTH__+0x82>
     478:	90 93 cf 05 	sts	0x05CF, r25	; 0x8005cf <mode>
     47c:	81 e0       	ldi	r24, 0x01	; 1
     47e:	80 93 7b 00 	sts	0x007B, r24	; 0x80007b <update_hour>
     482:	80 93 d2 05 	sts	0x05D2, r24	; 0x8005d2 <update_clock>
     486:	80 91 d0 05 	lds	r24, 0x05D0	; 0x8005d0 <button>
     48a:	84 30       	cpi	r24, 0x04	; 4
     48c:	09 f0       	breq	.+2      	; 0x490 <__EEPROM_REGION_LENGTH__+0x90>
     48e:	72 c0       	rjmp	.+228    	; 0x574 <__EEPROM_REGION_LENGTH__+0x174>
     490:	e0 91 cf 05 	lds	r30, 0x05CF	; 0x8005cf <mode>
     494:	8f ef       	ldi	r24, 0xFF	; 255
     496:	8e 0f       	add	r24, r30
     498:	83 30       	cpi	r24, 0x03	; 3
     49a:	08 f4       	brcc	.+2      	; 0x49e <__EEPROM_REGION_LENGTH__+0x9e>
     49c:	6b c0       	rjmp	.+214    	; 0x574 <__EEPROM_REGION_LENGTH__+0x174>
     49e:	10 92 d0 05 	sts	0x05D0, r1	; 0x8005d0 <button>
     4a2:	8e 2f       	mov	r24, r30
     4a4:	90 e0       	ldi	r25, 0x00	; 0
     4a6:	8c 30       	cpi	r24, 0x0C	; 12
     4a8:	91 05       	cpc	r25, r1
     4aa:	08 f0       	brcs	.+2      	; 0x4ae <__EEPROM_REGION_LENGTH__+0xae>
     4ac:	61 c0       	rjmp	.+194    	; 0x570 <__EEPROM_REGION_LENGTH__+0x170>
     4ae:	fc 01       	movw	r30, r24
     4b0:	eb 5c       	subi	r30, 0xCB	; 203
     4b2:	ff 4f       	sbci	r31, 0xFF	; 255
     4b4:	0c 94 63 0b 	jmp	0x16c6	; 0x16c6 <__tablejump2__>
     4b8:	84 e0       	ldi	r24, 0x04	; 4
     4ba:	80 93 cf 05 	sts	0x05CF, r24	; 0x8005cf <mode>
     4be:	81 e0       	ldi	r24, 0x01	; 1
     4c0:	80 93 d1 05 	sts	0x05D1, r24	; 0x8005d1 <update_schedule>
     4c4:	80 93 7a 00 	sts	0x007A, r24	; 0x80007a <update_hour_sunrise>
     4c8:	08 95       	ret
     4ca:	85 e0       	ldi	r24, 0x05	; 5
     4cc:	80 93 cf 05 	sts	0x05CF, r24	; 0x8005cf <mode>
     4d0:	81 e0       	ldi	r24, 0x01	; 1
     4d2:	80 93 d1 05 	sts	0x05D1, r24	; 0x8005d1 <update_schedule>
     4d6:	80 93 79 00 	sts	0x0079, r24	; 0x800079 <update_minute_sunrise>
     4da:	08 95       	ret
     4dc:	86 e0       	ldi	r24, 0x06	; 6
     4de:	80 93 cf 05 	sts	0x05CF, r24	; 0x8005cf <mode>
     4e2:	81 e0       	ldi	r24, 0x01	; 1
     4e4:	80 93 d1 05 	sts	0x05D1, r24	; 0x8005d1 <update_schedule>
     4e8:	80 93 78 00 	sts	0x0078, r24	; 0x800078 <update_hour_day>
     4ec:	08 95       	ret
     4ee:	87 e0       	ldi	r24, 0x07	; 7
     4f0:	80 93 cf 05 	sts	0x05CF, r24	; 0x8005cf <mode>
     4f4:	81 e0       	ldi	r24, 0x01	; 1
     4f6:	80 93 d1 05 	sts	0x05D1, r24	; 0x8005d1 <update_schedule>
     4fa:	80 93 77 00 	sts	0x0077, r24	; 0x800077 <update_minute_day>
     4fe:	08 95       	ret
     500:	88 e0       	ldi	r24, 0x08	; 8
     502:	80 93 cf 05 	sts	0x05CF, r24	; 0x8005cf <mode>
     506:	81 e0       	ldi	r24, 0x01	; 1
     508:	80 93 d1 05 	sts	0x05D1, r24	; 0x8005d1 <update_schedule>
     50c:	80 93 76 00 	sts	0x0076, r24	; 0x800076 <update_hour_sunset>
     510:	08 95       	ret
     512:	89 e0       	ldi	r24, 0x09	; 9
     514:	80 93 cf 05 	sts	0x05CF, r24	; 0x8005cf <mode>
     518:	81 e0       	ldi	r24, 0x01	; 1
     51a:	80 93 d1 05 	sts	0x05D1, r24	; 0x8005d1 <update_schedule>
     51e:	80 93 75 00 	sts	0x0075, r24	; 0x800075 <update_minute_sunset>
     522:	08 95       	ret
     524:	8a e0       	ldi	r24, 0x0A	; 10
     526:	80 93 cf 05 	sts	0x05CF, r24	; 0x8005cf <mode>
     52a:	81 e0       	ldi	r24, 0x01	; 1
     52c:	80 93 d1 05 	sts	0x05D1, r24	; 0x8005d1 <update_schedule>
     530:	80 93 74 00 	sts	0x0074, r24	; 0x800074 <update_hour_night>
     534:	08 95       	ret
     536:	8b e0       	ldi	r24, 0x0B	; 11
     538:	80 93 cf 05 	sts	0x05CF, r24	; 0x8005cf <mode>
     53c:	81 e0       	ldi	r24, 0x01	; 1
     53e:	80 93 d1 05 	sts	0x05D1, r24	; 0x8005d1 <update_schedule>
     542:	13 c0       	rjmp	.+38     	; 0x56a <__EEPROM_REGION_LENGTH__+0x16a>
     544:	10 92 cf 05 	sts	0x05CF, r1	; 0x8005cf <mode>
     548:	81 e0       	ldi	r24, 0x01	; 1
     54a:	80 93 d1 05 	sts	0x05D1, r24	; 0x8005d1 <update_schedule>
     54e:	80 93 7a 00 	sts	0x007A, r24	; 0x80007a <update_hour_sunrise>
     552:	80 93 78 00 	sts	0x0078, r24	; 0x800078 <update_hour_day>
     556:	80 93 76 00 	sts	0x0076, r24	; 0x800076 <update_hour_sunset>
     55a:	80 93 74 00 	sts	0x0074, r24	; 0x800074 <update_hour_night>
     55e:	80 93 79 00 	sts	0x0079, r24	; 0x800079 <update_minute_sunrise>
     562:	80 93 77 00 	sts	0x0077, r24	; 0x800077 <update_minute_day>
     566:	80 93 75 00 	sts	0x0075, r24	; 0x800075 <update_minute_sunset>
     56a:	80 93 73 00 	sts	0x0073, r24	; 0x800073 <update_minute_night>
     56e:	08 95       	ret
     570:	10 92 cf 05 	sts	0x05CF, r1	; 0x8005cf <mode>
     574:	08 95       	ret

00000576 <_Z10Setup_TIM1v>:
     576:	8e e3       	ldi	r24, 0x3E	; 62
     578:	98 e3       	ldi	r25, 0x38	; 56
     57a:	9b bd       	out	0x2b, r25	; 43
     57c:	8a bd       	out	0x2a, r24	; 42
     57e:	8f b5       	in	r24, 0x2f	; 47
     580:	8f bd       	out	0x2f, r24	; 47
     582:	8e b5       	in	r24, 0x2e	; 46
     584:	8d 60       	ori	r24, 0x0D	; 13
     586:	8e bd       	out	0x2e, r24	; 46
     588:	89 b7       	in	r24, 0x39	; 57
     58a:	80 61       	ori	r24, 0x10	; 16
     58c:	89 bf       	out	0x39, r24	; 57
     58e:	78 94       	sei
     590:	08 95       	ret

00000592 <_Z9Setup_INTv>:
     592:	8b b7       	in	r24, 0x3b	; 59
     594:	80 64       	ori	r24, 0x40	; 64
     596:	8b bf       	out	0x3b, r24	; 59
     598:	85 b7       	in	r24, 0x35	; 53
     59a:	8a 60       	ori	r24, 0x0A	; 10
     59c:	85 bf       	out	0x35, r24	; 53
     59e:	84 b7       	in	r24, 0x34	; 52
     5a0:	84 bf       	out	0x34, r24	; 52
     5a2:	78 94       	sei
     5a4:	08 95       	ret

000005a6 <_Z10Setup_GPIOv>:
     5a6:	8f ef       	ldi	r24, 0xFF	; 255
     5a8:	8b bb       	out	0x1b, r24	; 27
     5aa:	1a ba       	out	0x1a, r1	; 26
     5ac:	08 95       	ret

000005ae <main>:
     5ae:	cf 93       	push	r28
     5b0:	df 93       	push	r29
     5b2:	cd b7       	in	r28, 0x3d	; 61
     5b4:	de b7       	in	r29, 0x3e	; 62
     5b6:	6b 97       	sbiw	r28, 0x1b	; 27
     5b8:	0f b6       	in	r0, 0x3f	; 63
     5ba:	f8 94       	cli
     5bc:	de bf       	out	0x3e, r29	; 62
     5be:	0f be       	out	0x3f, r0	; 63
     5c0:	cd bf       	out	0x3d, r28	; 61
     5c2:	2f ef       	ldi	r18, 0xFF	; 255
     5c4:	8f e7       	ldi	r24, 0x7F	; 127
     5c6:	94 e0       	ldi	r25, 0x04	; 4
     5c8:	21 50       	subi	r18, 0x01	; 1
     5ca:	80 40       	sbci	r24, 0x00	; 0
     5cc:	90 40       	sbci	r25, 0x00	; 0
     5ce:	e1 f7       	brne	.-8      	; 0x5c8 <main+0x1a>
     5d0:	00 c0       	rjmp	.+0      	; 0x5d2 <main+0x24>
     5d2:	00 00       	nop
     5d4:	0e 94 c9 02 	call	0x592	; 0x592 <_Z9Setup_INTv>
     5d8:	0e 94 d3 02 	call	0x5a6	; 0x5a6 <_Z10Setup_GPIOv>
     5dc:	0e 94 bb 02 	call	0x576	; 0x576 <_Z10Setup_TIM1v>
     5e0:	8c e6       	ldi	r24, 0x6C	; 108
     5e2:	90 e0       	ldi	r25, 0x00	; 0
     5e4:	0e 94 d0 00 	call	0x1a0	; 0x1a0 <_Z15DS1307_ReadTimePc>
     5e8:	0e 94 8a 09 	call	0x1314	; 0x1314 <_Z14ST7789_InitSPIv>
     5ec:	0e 94 98 09 	call	0x1330	; 0x1330 <_Z17ST7789_InitST7789v>
     5f0:	60 91 85 00 	lds	r22, 0x0085	; 0x800085 <_ZL5BLACK>
     5f4:	70 91 86 00 	lds	r23, 0x0086	; 0x800086 <_ZL5BLACK+0x1>
     5f8:	80 91 87 00 	lds	r24, 0x0087	; 0x800087 <_ZL5BLACK+0x2>
     5fc:	0e 94 26 0a 	call	0x144c	; 0x144c <_Z17ST7789_FillScreen6colour>
     600:	60 e0       	ldi	r22, 0x00	; 0
     602:	80 e0       	ldi	r24, 0x00	; 0
     604:	0e 94 14 0a 	call	0x1428	; 0x1428 <_Z15ST7789_SetXYposcc>
     608:	8e e1       	ldi	r24, 0x1E	; 30
     60a:	e8 2e       	mov	r14, r24
     60c:	f1 2c       	mov	r15, r1
     60e:	9c e3       	ldi	r25, 0x3C	; 60
     610:	69 2e       	mov	r6, r25
     612:	71 2c       	mov	r7, r1
     614:	20 91 88 00 	lds	r18, 0x0088	; 0x800088 <_ZL3RED>
     618:	2a 8f       	std	Y+26, r18	; 0x1a
     61a:	80 91 89 00 	lds	r24, 0x0089	; 0x800089 <_ZL3RED+0x1>
     61e:	8b 8f       	std	Y+27, r24	; 0x1b
     620:	90 90 8a 00 	lds	r9, 0x008A	; 0x80008a <_ZL3RED+0x2>
     624:	29 83       	std	Y+1, r18	; 0x01
     626:	8a 83       	std	Y+2, r24	; 0x02
     628:	9b 82       	std	Y+3, r9	; 0x03
     62a:	2c 83       	std	Y+4, r18	; 0x04
     62c:	8d 83       	std	Y+5, r24	; 0x05
     62e:	9e 82       	std	Y+6, r9	; 0x06
     630:	2f 83       	std	Y+7, r18	; 0x07
     632:	88 87       	std	Y+8, r24	; 0x08
     634:	99 86       	std	Y+9, r9	; 0x09
     636:	2a 87       	std	Y+10, r18	; 0x0a
     638:	8b 87       	std	Y+11, r24	; 0x0b
     63a:	9c 86       	std	Y+12, r9	; 0x0c
     63c:	2d 87       	std	Y+13, r18	; 0x0d
     63e:	8e 87       	std	Y+14, r24	; 0x0e
     640:	9f 86       	std	Y+15, r9	; 0x0f
     642:	28 8b       	std	Y+16, r18	; 0x10
     644:	89 8b       	std	Y+17, r24	; 0x11
     646:	9a 8a       	std	Y+18, r9	; 0x12
     648:	2b 8b       	std	Y+19, r18	; 0x13
     64a:	8c 8b       	std	Y+20, r24	; 0x14
     64c:	9d 8a       	std	Y+21, r9	; 0x15
     64e:	2e 8b       	std	Y+22, r18	; 0x16
     650:	8f 8b       	std	Y+23, r24	; 0x17
     652:	29 2c       	mov	r2, r9
     654:	32 2e       	mov	r3, r18
     656:	48 2e       	mov	r4, r24
     658:	59 2c       	mov	r5, r9
     65a:	28 8f       	std	Y+24, r18	; 0x18
     65c:	89 8f       	std	Y+25, r24	; 0x19
     65e:	89 2c       	mov	r8, r9
     660:	0e 94 c9 0b 	call	0x1792	; 0x1792 <rand>
     664:	b7 01       	movw	r22, r14
     666:	0e 94 4f 0b 	call	0x169e	; 0x169e <__divmodhi4>
     66a:	d8 2e       	mov	r13, r24
     66c:	0e 94 c9 0b 	call	0x1792	; 0x1792 <rand>
     670:	b3 01       	movw	r22, r6
     672:	0e 94 4f 0b 	call	0x169e	; 0x169e <__divmodhi4>
     676:	08 2f       	mov	r16, r24
     678:	0e 94 c9 0b 	call	0x1792	; 0x1792 <rand>
     67c:	b7 01       	movw	r22, r14
     67e:	0e 94 4f 0b 	call	0x169e	; 0x169e <__divmodhi4>
     682:	18 2f       	mov	r17, r24
     684:	0e 94 10 01 	call	0x220	; 0x220 <_Z15Buttons_Handlerv>
     688:	90 91 cf 05 	lds	r25, 0x05CF	; 0x8005cf <mode>
     68c:	80 91 7d 00 	lds	r24, 0x007D	; 0x80007d <update_second>
     690:	91 30       	cpi	r25, 0x01	; 1
     692:	29 f1       	breq	.+74     	; 0x6de <main+0x130>
     694:	88 23       	and	r24, r24
     696:	09 f4       	brne	.+2      	; 0x69a <main+0xec>
     698:	4a c0       	rjmp	.+148    	; 0x72e <main+0x180>
     69a:	10 92 7d 00 	sts	0x007D, r1	; 0x80007d <update_second>
     69e:	60 e0       	ldi	r22, 0x00	; 0
     6a0:	84 eb       	ldi	r24, 0xB4	; 180
     6a2:	0e 94 14 0a 	call	0x1428	; 0x1428 <_Z15ST7789_SetXYposcc>
     6a6:	80 91 6c 00 	lds	r24, 0x006C	; 0x80006c <time>
     6aa:	8a 30       	cpi	r24, 0x0A	; 10
     6ac:	40 f4       	brcc	.+16     	; 0x6be <main+0x110>
     6ae:	25 e0       	ldi	r18, 0x05	; 5
     6b0:	4d 2d       	mov	r20, r13
     6b2:	50 2f       	mov	r21, r16
     6b4:	61 2f       	mov	r22, r17
     6b6:	8f e7       	ldi	r24, 0x7F	; 127
     6b8:	90 e0       	ldi	r25, 0x00	; 0
     6ba:	0e 94 1e 0b 	call	0x163c	; 0x163c <_Z18ST7789_PrintStringPc6colourc>
     6be:	80 91 6c 00 	lds	r24, 0x006C	; 0x80006c <time>
     6c2:	4a e0       	ldi	r20, 0x0A	; 10
     6c4:	50 e0       	ldi	r21, 0x00	; 0
     6c6:	63 ed       	ldi	r22, 0xD3	; 211
     6c8:	75 e0       	ldi	r23, 0x05	; 5
     6ca:	90 e0       	ldi	r25, 0x00	; 0
     6cc:	0e 94 d9 0b 	call	0x17b2	; 0x17b2 <itoa>
     6d0:	25 e0       	ldi	r18, 0x05	; 5
     6d2:	4d 2d       	mov	r20, r13
     6d4:	50 2f       	mov	r21, r16
     6d6:	61 2f       	mov	r22, r17
     6d8:	0e 94 1e 0b 	call	0x163c	; 0x163c <_Z18ST7789_PrintStringPc6colourc>
     6dc:	28 c0       	rjmp	.+80     	; 0x72e <main+0x180>
     6de:	88 23       	and	r24, r24
     6e0:	51 f1       	breq	.+84     	; 0x736 <main+0x188>
     6e2:	10 92 7d 00 	sts	0x007D, r1	; 0x80007d <update_second>
     6e6:	60 e0       	ldi	r22, 0x00	; 0
     6e8:	84 eb       	ldi	r24, 0xB4	; 180
     6ea:	0e 94 14 0a 	call	0x1428	; 0x1428 <_Z15ST7789_SetXYposcc>
     6ee:	80 91 cc 05 	lds	r24, 0x05CC	; 0x8005cc <__data_end>
     6f2:	8a 30       	cpi	r24, 0x0A	; 10
     6f4:	40 f4       	brcc	.+16     	; 0x706 <main+0x158>
     6f6:	25 e0       	ldi	r18, 0x05	; 5
     6f8:	48 8d       	ldd	r20, Y+24	; 0x18
     6fa:	59 8d       	ldd	r21, Y+25	; 0x19
     6fc:	68 2d       	mov	r22, r8
     6fe:	8f e7       	ldi	r24, 0x7F	; 127
     700:	90 e0       	ldi	r25, 0x00	; 0
     702:	0e 94 1e 0b 	call	0x163c	; 0x163c <_Z18ST7789_PrintStringPc6colourc>
     706:	80 91 cc 05 	lds	r24, 0x05CC	; 0x8005cc <__data_end>
     70a:	4a e0       	ldi	r20, 0x0A	; 10
     70c:	50 e0       	ldi	r21, 0x00	; 0
     70e:	63 ed       	ldi	r22, 0xD3	; 211
     710:	75 e0       	ldi	r23, 0x05	; 5
     712:	90 e0       	ldi	r25, 0x00	; 0
     714:	0e 94 d9 0b 	call	0x17b2	; 0x17b2 <itoa>
     718:	25 e0       	ldi	r18, 0x05	; 5
     71a:	48 8d       	ldd	r20, Y+24	; 0x18
     71c:	59 8d       	ldd	r21, Y+25	; 0x19
     71e:	68 2d       	mov	r22, r8
     720:	0e 94 1e 0b 	call	0x163c	; 0x163c <_Z18ST7789_PrintStringPc6colourc>
     724:	80 91 d2 05 	lds	r24, 0x05D2	; 0x8005d2 <update_clock>
     728:	81 11       	cpse	r24, r1
     72a:	10 92 d2 05 	sts	0x05D2, r1	; 0x8005d2 <update_clock>
     72e:	80 91 cf 05 	lds	r24, 0x05CF	; 0x8005cf <mode>
     732:	82 30       	cpi	r24, 0x02	; 2
     734:	69 f1       	breq	.+90     	; 0x790 <main+0x1e2>
     736:	80 91 7c 00 	lds	r24, 0x007C	; 0x80007c <update_minute>
     73a:	88 23       	and	r24, r24
     73c:	09 f4       	brne	.+2      	; 0x740 <main+0x192>
     73e:	73 c0       	rjmp	.+230    	; 0x826 <__DATA_REGION_LENGTH__+0x26>
     740:	10 92 7c 00 	sts	0x007C, r1	; 0x80007c <update_minute>
     744:	60 e0       	ldi	r22, 0x00	; 0
     746:	8a e5       	ldi	r24, 0x5A	; 90
     748:	0e 94 14 0a 	call	0x1428	; 0x1428 <_Z15ST7789_SetXYposcc>
     74c:	80 91 6d 00 	lds	r24, 0x006D	; 0x80006d <time+0x1>
     750:	8a 30       	cpi	r24, 0x0A	; 10
     752:	40 f4       	brcc	.+16     	; 0x764 <main+0x1b6>
     754:	25 e0       	ldi	r18, 0x05	; 5
     756:	4d 2d       	mov	r20, r13
     758:	50 2f       	mov	r21, r16
     75a:	61 2f       	mov	r22, r17
     75c:	8f e7       	ldi	r24, 0x7F	; 127
     75e:	90 e0       	ldi	r25, 0x00	; 0
     760:	0e 94 1e 0b 	call	0x163c	; 0x163c <_Z18ST7789_PrintStringPc6colourc>
     764:	80 91 6d 00 	lds	r24, 0x006D	; 0x80006d <time+0x1>
     768:	4a e0       	ldi	r20, 0x0A	; 10
     76a:	50 e0       	ldi	r21, 0x00	; 0
     76c:	63 ed       	ldi	r22, 0xD3	; 211
     76e:	75 e0       	ldi	r23, 0x05	; 5
     770:	90 e0       	ldi	r25, 0x00	; 0
     772:	0e 94 d9 0b 	call	0x17b2	; 0x17b2 <itoa>
     776:	25 e0       	ldi	r18, 0x05	; 5
     778:	4d 2d       	mov	r20, r13
     77a:	50 2f       	mov	r21, r16
     77c:	61 2f       	mov	r22, r17
     77e:	0e 94 1e 0b 	call	0x163c	; 0x163c <_Z18ST7789_PrintStringPc6colourc>
     782:	25 e0       	ldi	r18, 0x05	; 5
     784:	4d 2d       	mov	r20, r13
     786:	50 2f       	mov	r21, r16
     788:	61 2f       	mov	r22, r17
     78a:	81 e8       	ldi	r24, 0x81	; 129
     78c:	90 e0       	ldi	r25, 0x00	; 0
     78e:	49 c0       	rjmp	.+146    	; 0x822 <__DATA_REGION_LENGTH__+0x22>
     790:	80 91 7c 00 	lds	r24, 0x007C	; 0x80007c <update_minute>
     794:	88 23       	and	r24, r24
     796:	09 f4       	brne	.+2      	; 0x79a <main+0x1ec>
     798:	4a c0       	rjmp	.+148    	; 0x82e <__DATA_REGION_LENGTH__+0x2e>
     79a:	10 92 7c 00 	sts	0x007C, r1	; 0x80007c <update_minute>
     79e:	60 e0       	ldi	r22, 0x00	; 0
     7a0:	8a e5       	ldi	r24, 0x5A	; 90
     7a2:	0e 94 14 0a 	call	0x1428	; 0x1428 <_Z15ST7789_SetXYposcc>
     7a6:	80 91 cd 05 	lds	r24, 0x05CD	; 0x8005cd <__data_end+0x1>
     7aa:	8a 30       	cpi	r24, 0x0A	; 10
     7ac:	40 f4       	brcc	.+16     	; 0x7be <main+0x210>
     7ae:	25 e0       	ldi	r18, 0x05	; 5
     7b0:	43 2d       	mov	r20, r3
     7b2:	54 2d       	mov	r21, r4
     7b4:	65 2d       	mov	r22, r5
     7b6:	8f e7       	ldi	r24, 0x7F	; 127
     7b8:	90 e0       	ldi	r25, 0x00	; 0
     7ba:	0e 94 1e 0b 	call	0x163c	; 0x163c <_Z18ST7789_PrintStringPc6colourc>
     7be:	80 91 cd 05 	lds	r24, 0x05CD	; 0x8005cd <__data_end+0x1>
     7c2:	4a e0       	ldi	r20, 0x0A	; 10
     7c4:	50 e0       	ldi	r21, 0x00	; 0
     7c6:	63 ed       	ldi	r22, 0xD3	; 211
     7c8:	75 e0       	ldi	r23, 0x05	; 5
     7ca:	90 e0       	ldi	r25, 0x00	; 0
     7cc:	0e 94 d9 0b 	call	0x17b2	; 0x17b2 <itoa>
     7d0:	25 e0       	ldi	r18, 0x05	; 5
     7d2:	43 2d       	mov	r20, r3
     7d4:	54 2d       	mov	r21, r4
     7d6:	65 2d       	mov	r22, r5
     7d8:	0e 94 1e 0b 	call	0x163c	; 0x163c <_Z18ST7789_PrintStringPc6colourc>
     7dc:	80 91 d2 05 	lds	r24, 0x05D2	; 0x8005d2 <update_clock>
     7e0:	88 23       	and	r24, r24
     7e2:	09 f1       	breq	.+66     	; 0x826 <__DATA_REGION_LENGTH__+0x26>
     7e4:	10 92 d2 05 	sts	0x05D2, r1	; 0x8005d2 <update_clock>
     7e8:	60 e0       	ldi	r22, 0x00	; 0
     7ea:	84 eb       	ldi	r24, 0xB4	; 180
     7ec:	0e 94 14 0a 	call	0x1428	; 0x1428 <_Z15ST7789_SetXYposcc>
     7f0:	80 91 cc 05 	lds	r24, 0x05CC	; 0x8005cc <__data_end>
     7f4:	8a 30       	cpi	r24, 0x0A	; 10
     7f6:	40 f4       	brcc	.+16     	; 0x808 <__DATA_REGION_LENGTH__+0x8>
     7f8:	25 e0       	ldi	r18, 0x05	; 5
     7fa:	4d 2d       	mov	r20, r13
     7fc:	50 2f       	mov	r21, r16
     7fe:	61 2f       	mov	r22, r17
     800:	8f e7       	ldi	r24, 0x7F	; 127
     802:	90 e0       	ldi	r25, 0x00	; 0
     804:	0e 94 1e 0b 	call	0x163c	; 0x163c <_Z18ST7789_PrintStringPc6colourc>
     808:	80 91 cc 05 	lds	r24, 0x05CC	; 0x8005cc <__data_end>
     80c:	4a e0       	ldi	r20, 0x0A	; 10
     80e:	50 e0       	ldi	r21, 0x00	; 0
     810:	63 ed       	ldi	r22, 0xD3	; 211
     812:	75 e0       	ldi	r23, 0x05	; 5
     814:	90 e0       	ldi	r25, 0x00	; 0
     816:	0e 94 d9 0b 	call	0x17b2	; 0x17b2 <itoa>
     81a:	25 e0       	ldi	r18, 0x05	; 5
     81c:	4d 2d       	mov	r20, r13
     81e:	50 2f       	mov	r21, r16
     820:	61 2f       	mov	r22, r17
     822:	0e 94 1e 0b 	call	0x163c	; 0x163c <_Z18ST7789_PrintStringPc6colourc>
     826:	80 91 cf 05 	lds	r24, 0x05CF	; 0x8005cf <mode>
     82a:	83 30       	cpi	r24, 0x03	; 3
     82c:	69 f1       	breq	.+90     	; 0x888 <__stack+0x29>
     82e:	80 91 7b 00 	lds	r24, 0x007B	; 0x80007b <update_hour>
     832:	88 23       	and	r24, r24
     834:	09 f4       	brne	.+2      	; 0x838 <__DATA_REGION_LENGTH__+0x38>
     836:	73 c0       	rjmp	.+230    	; 0x91e <__stack+0xbf>
     838:	10 92 7b 00 	sts	0x007B, r1	; 0x80007b <update_hour>
     83c:	60 e0       	ldi	r22, 0x00	; 0
     83e:	80 e0       	ldi	r24, 0x00	; 0
     840:	0e 94 14 0a 	call	0x1428	; 0x1428 <_Z15ST7789_SetXYposcc>
     844:	80 91 6e 00 	lds	r24, 0x006E	; 0x80006e <time+0x2>
     848:	8a 30       	cpi	r24, 0x0A	; 10
     84a:	40 f4       	brcc	.+16     	; 0x85c <__DATA_REGION_LENGTH__+0x5c>
     84c:	25 e0       	ldi	r18, 0x05	; 5
     84e:	4d 2d       	mov	r20, r13
     850:	50 2f       	mov	r21, r16
     852:	61 2f       	mov	r22, r17
     854:	8f e7       	ldi	r24, 0x7F	; 127
     856:	90 e0       	ldi	r25, 0x00	; 0
     858:	0e 94 1e 0b 	call	0x163c	; 0x163c <_Z18ST7789_PrintStringPc6colourc>
     85c:	80 91 6e 00 	lds	r24, 0x006E	; 0x80006e <time+0x2>
     860:	4a e0       	ldi	r20, 0x0A	; 10
     862:	50 e0       	ldi	r21, 0x00	; 0
     864:	63 ed       	ldi	r22, 0xD3	; 211
     866:	75 e0       	ldi	r23, 0x05	; 5
     868:	90 e0       	ldi	r25, 0x00	; 0
     86a:	0e 94 d9 0b 	call	0x17b2	; 0x17b2 <itoa>
     86e:	25 e0       	ldi	r18, 0x05	; 5
     870:	4d 2d       	mov	r20, r13
     872:	50 2f       	mov	r21, r16
     874:	61 2f       	mov	r22, r17
     876:	0e 94 1e 0b 	call	0x163c	; 0x163c <_Z18ST7789_PrintStringPc6colourc>
     87a:	25 e0       	ldi	r18, 0x05	; 5
     87c:	4d 2d       	mov	r20, r13
     87e:	50 2f       	mov	r21, r16
     880:	61 2f       	mov	r22, r17
     882:	81 e8       	ldi	r24, 0x81	; 129
     884:	90 e0       	ldi	r25, 0x00	; 0
     886:	49 c0       	rjmp	.+146    	; 0x91a <__stack+0xbb>
     888:	80 91 7b 00 	lds	r24, 0x007B	; 0x80007b <update_hour>
     88c:	88 23       	and	r24, r24
     88e:	09 f4       	brne	.+2      	; 0x892 <__stack+0x33>
     890:	4a c0       	rjmp	.+148    	; 0x926 <__stack+0xc7>
     892:	10 92 7b 00 	sts	0x007B, r1	; 0x80007b <update_hour>
     896:	60 e0       	ldi	r22, 0x00	; 0
     898:	80 e0       	ldi	r24, 0x00	; 0
     89a:	0e 94 14 0a 	call	0x1428	; 0x1428 <_Z15ST7789_SetXYposcc>
     89e:	80 91 ce 05 	lds	r24, 0x05CE	; 0x8005ce <__data_end+0x2>
     8a2:	8a 30       	cpi	r24, 0x0A	; 10
     8a4:	40 f4       	brcc	.+16     	; 0x8b6 <__stack+0x57>
     8a6:	25 e0       	ldi	r18, 0x05	; 5
     8a8:	4e 89       	ldd	r20, Y+22	; 0x16
     8aa:	5f 89       	ldd	r21, Y+23	; 0x17
     8ac:	62 2d       	mov	r22, r2
     8ae:	8f e7       	ldi	r24, 0x7F	; 127
     8b0:	90 e0       	ldi	r25, 0x00	; 0
     8b2:	0e 94 1e 0b 	call	0x163c	; 0x163c <_Z18ST7789_PrintStringPc6colourc>
     8b6:	80 91 ce 05 	lds	r24, 0x05CE	; 0x8005ce <__data_end+0x2>
     8ba:	4a e0       	ldi	r20, 0x0A	; 10
     8bc:	50 e0       	ldi	r21, 0x00	; 0
     8be:	63 ed       	ldi	r22, 0xD3	; 211
     8c0:	75 e0       	ldi	r23, 0x05	; 5
     8c2:	90 e0       	ldi	r25, 0x00	; 0
     8c4:	0e 94 d9 0b 	call	0x17b2	; 0x17b2 <itoa>
     8c8:	25 e0       	ldi	r18, 0x05	; 5
     8ca:	4e 89       	ldd	r20, Y+22	; 0x16
     8cc:	5f 89       	ldd	r21, Y+23	; 0x17
     8ce:	62 2d       	mov	r22, r2
     8d0:	0e 94 1e 0b 	call	0x163c	; 0x163c <_Z18ST7789_PrintStringPc6colourc>
     8d4:	80 91 d2 05 	lds	r24, 0x05D2	; 0x8005d2 <update_clock>
     8d8:	88 23       	and	r24, r24
     8da:	09 f1       	breq	.+66     	; 0x91e <__stack+0xbf>
     8dc:	10 92 d2 05 	sts	0x05D2, r1	; 0x8005d2 <update_clock>
     8e0:	60 e0       	ldi	r22, 0x00	; 0
     8e2:	8a e5       	ldi	r24, 0x5A	; 90
     8e4:	0e 94 14 0a 	call	0x1428	; 0x1428 <_Z15ST7789_SetXYposcc>
     8e8:	80 91 cd 05 	lds	r24, 0x05CD	; 0x8005cd <__data_end+0x1>
     8ec:	8a 30       	cpi	r24, 0x0A	; 10
     8ee:	40 f4       	brcc	.+16     	; 0x900 <__stack+0xa1>
     8f0:	25 e0       	ldi	r18, 0x05	; 5
     8f2:	4d 2d       	mov	r20, r13
     8f4:	50 2f       	mov	r21, r16
     8f6:	61 2f       	mov	r22, r17
     8f8:	8f e7       	ldi	r24, 0x7F	; 127
     8fa:	90 e0       	ldi	r25, 0x00	; 0
     8fc:	0e 94 1e 0b 	call	0x163c	; 0x163c <_Z18ST7789_PrintStringPc6colourc>
     900:	80 91 cd 05 	lds	r24, 0x05CD	; 0x8005cd <__data_end+0x1>
     904:	4a e0       	ldi	r20, 0x0A	; 10
     906:	50 e0       	ldi	r21, 0x00	; 0
     908:	63 ed       	ldi	r22, 0xD3	; 211
     90a:	75 e0       	ldi	r23, 0x05	; 5
     90c:	90 e0       	ldi	r25, 0x00	; 0
     90e:	0e 94 d9 0b 	call	0x17b2	; 0x17b2 <itoa>
     912:	25 e0       	ldi	r18, 0x05	; 5
     914:	4d 2d       	mov	r20, r13
     916:	50 2f       	mov	r21, r16
     918:	61 2f       	mov	r22, r17
     91a:	0e 94 1e 0b 	call	0x163c	; 0x163c <_Z18ST7789_PrintStringPc6colourc>
     91e:	80 91 cf 05 	lds	r24, 0x05CF	; 0x8005cf <mode>
     922:	84 30       	cpi	r24, 0x04	; 4
     924:	11 f1       	breq	.+68     	; 0x96a <__stack+0x10b>
     926:	80 91 7a 00 	lds	r24, 0x007A	; 0x80007a <update_hour_sunrise>
     92a:	88 23       	and	r24, r24
     92c:	09 f4       	brne	.+2      	; 0x930 <__stack+0xd1>
     92e:	68 c0       	rjmp	.+208    	; 0xa00 <__stack+0x1a1>
     930:	10 92 7a 00 	sts	0x007A, r1	; 0x80007a <update_hour_sunrise>
     934:	68 e8       	ldi	r22, 0x88	; 136
     936:	80 e0       	ldi	r24, 0x00	; 0
     938:	0e 94 14 0a 	call	0x1428	; 0x1428 <_Z15ST7789_SetXYposcc>
     93c:	80 91 64 00 	lds	r24, 0x0064	; 0x800064 <time_schedule>
     940:	8a 30       	cpi	r24, 0x0A	; 10
     942:	40 f4       	brcc	.+16     	; 0x954 <__stack+0xf5>
     944:	23 e0       	ldi	r18, 0x03	; 3
     946:	4d 2d       	mov	r20, r13
     948:	50 2f       	mov	r21, r16
     94a:	61 2f       	mov	r22, r17
     94c:	8f e7       	ldi	r24, 0x7F	; 127
     94e:	90 e0       	ldi	r25, 0x00	; 0
     950:	0e 94 1e 0b 	call	0x163c	; 0x163c <_Z18ST7789_PrintStringPc6colourc>
     954:	80 91 64 00 	lds	r24, 0x0064	; 0x800064 <time_schedule>
     958:	4a e0       	ldi	r20, 0x0A	; 10
     95a:	50 e0       	ldi	r21, 0x00	; 0
     95c:	63 ed       	ldi	r22, 0xD3	; 211
     95e:	75 e0       	ldi	r23, 0x05	; 5
     960:	90 e0       	ldi	r25, 0x00	; 0
     962:	0e 94 d9 0b 	call	0x17b2	; 0x17b2 <itoa>
     966:	23 e0       	ldi	r18, 0x03	; 3
     968:	46 c0       	rjmp	.+140    	; 0x9f6 <__stack+0x197>
     96a:	80 91 7a 00 	lds	r24, 0x007A	; 0x80007a <update_hour_sunrise>
     96e:	88 23       	and	r24, r24
     970:	09 f4       	brne	.+2      	; 0x974 <__stack+0x115>
     972:	4a c0       	rjmp	.+148    	; 0xa08 <__stack+0x1a9>
     974:	10 92 7a 00 	sts	0x007A, r1	; 0x80007a <update_hour_sunrise>
     978:	68 e8       	ldi	r22, 0x88	; 136
     97a:	80 e0       	ldi	r24, 0x00	; 0
     97c:	0e 94 14 0a 	call	0x1428	; 0x1428 <_Z15ST7789_SetXYposcc>
     980:	80 91 64 00 	lds	r24, 0x0064	; 0x800064 <time_schedule>
     984:	8a 30       	cpi	r24, 0x0A	; 10
     986:	40 f4       	brcc	.+16     	; 0x998 <__stack+0x139>
     988:	23 e0       	ldi	r18, 0x03	; 3
     98a:	4b 89       	ldd	r20, Y+19	; 0x13
     98c:	5c 89       	ldd	r21, Y+20	; 0x14
     98e:	6d 89       	ldd	r22, Y+21	; 0x15
     990:	8f e7       	ldi	r24, 0x7F	; 127
     992:	90 e0       	ldi	r25, 0x00	; 0
     994:	0e 94 1e 0b 	call	0x163c	; 0x163c <_Z18ST7789_PrintStringPc6colourc>
     998:	80 91 64 00 	lds	r24, 0x0064	; 0x800064 <time_schedule>
     99c:	4a e0       	ldi	r20, 0x0A	; 10
     99e:	50 e0       	ldi	r21, 0x00	; 0
     9a0:	63 ed       	ldi	r22, 0xD3	; 211
     9a2:	75 e0       	ldi	r23, 0x05	; 5
     9a4:	90 e0       	ldi	r25, 0x00	; 0
     9a6:	0e 94 d9 0b 	call	0x17b2	; 0x17b2 <itoa>
     9aa:	23 e0       	ldi	r18, 0x03	; 3
     9ac:	4b 89       	ldd	r20, Y+19	; 0x13
     9ae:	5c 89       	ldd	r21, Y+20	; 0x14
     9b0:	6d 89       	ldd	r22, Y+21	; 0x15
     9b2:	0e 94 1e 0b 	call	0x163c	; 0x163c <_Z18ST7789_PrintStringPc6colourc>
     9b6:	80 91 d1 05 	lds	r24, 0x05D1	; 0x8005d1 <update_schedule>
     9ba:	88 23       	and	r24, r24
     9bc:	09 f1       	breq	.+66     	; 0xa00 <__stack+0x1a1>
     9be:	10 92 d1 05 	sts	0x05D1, r1	; 0x8005d1 <update_schedule>
     9c2:	60 e0       	ldi	r22, 0x00	; 0
     9c4:	80 e0       	ldi	r24, 0x00	; 0
     9c6:	0e 94 14 0a 	call	0x1428	; 0x1428 <_Z15ST7789_SetXYposcc>
     9ca:	80 91 6e 00 	lds	r24, 0x006E	; 0x80006e <time+0x2>
     9ce:	8a 30       	cpi	r24, 0x0A	; 10
     9d0:	40 f4       	brcc	.+16     	; 0x9e2 <__stack+0x183>
     9d2:	25 e0       	ldi	r18, 0x05	; 5
     9d4:	4d 2d       	mov	r20, r13
     9d6:	50 2f       	mov	r21, r16
     9d8:	61 2f       	mov	r22, r17
     9da:	8f e7       	ldi	r24, 0x7F	; 127
     9dc:	90 e0       	ldi	r25, 0x00	; 0
     9de:	0e 94 1e 0b 	call	0x163c	; 0x163c <_Z18ST7789_PrintStringPc6colourc>
     9e2:	80 91 6e 00 	lds	r24, 0x006E	; 0x80006e <time+0x2>
     9e6:	4a e0       	ldi	r20, 0x0A	; 10
     9e8:	50 e0       	ldi	r21, 0x00	; 0
     9ea:	63 ed       	ldi	r22, 0xD3	; 211
     9ec:	75 e0       	ldi	r23, 0x05	; 5
     9ee:	90 e0       	ldi	r25, 0x00	; 0
     9f0:	0e 94 d9 0b 	call	0x17b2	; 0x17b2 <itoa>
     9f4:	25 e0       	ldi	r18, 0x05	; 5
     9f6:	4d 2d       	mov	r20, r13
     9f8:	50 2f       	mov	r21, r16
     9fa:	61 2f       	mov	r22, r17
     9fc:	0e 94 1e 0b 	call	0x163c	; 0x163c <_Z18ST7789_PrintStringPc6colourc>
     a00:	80 91 cf 05 	lds	r24, 0x05CF	; 0x8005cf <mode>
     a04:	85 30       	cpi	r24, 0x05	; 5
     a06:	d1 f0       	breq	.+52     	; 0xa3c <__stack+0x1dd>
     a08:	80 91 79 00 	lds	r24, 0x0079	; 0x800079 <update_minute_sunrise>
     a0c:	88 23       	and	r24, r24
     a0e:	09 f4       	brne	.+2      	; 0xa12 <__stack+0x1b3>
     a10:	60 c0       	rjmp	.+192    	; 0xad2 <__stack+0x273>
     a12:	10 92 79 00 	sts	0x0079, r1	; 0x800079 <update_minute_sunrise>
     a16:	68 e8       	ldi	r22, 0x88	; 136
     a18:	86 e3       	ldi	r24, 0x36	; 54
     a1a:	0e 94 14 0a 	call	0x1428	; 0x1428 <_Z15ST7789_SetXYposcc>
     a1e:	80 91 65 00 	lds	r24, 0x0065	; 0x800065 <time_schedule+0x1>
     a22:	8a 30       	cpi	r24, 0x0A	; 10
     a24:	40 f4       	brcc	.+16     	; 0xa36 <__stack+0x1d7>
     a26:	23 e0       	ldi	r18, 0x03	; 3
     a28:	4d 2d       	mov	r20, r13
     a2a:	50 2f       	mov	r21, r16
     a2c:	61 2f       	mov	r22, r17
     a2e:	8f e7       	ldi	r24, 0x7F	; 127
     a30:	90 e0       	ldi	r25, 0x00	; 0
     a32:	0e 94 1e 0b 	call	0x163c	; 0x163c <_Z18ST7789_PrintStringPc6colourc>
     a36:	80 91 65 00 	lds	r24, 0x0065	; 0x800065 <time_schedule+0x1>
     a3a:	3e c0       	rjmp	.+124    	; 0xab8 <__stack+0x259>
     a3c:	80 91 79 00 	lds	r24, 0x0079	; 0x800079 <update_minute_sunrise>
     a40:	88 23       	and	r24, r24
     a42:	09 f4       	brne	.+2      	; 0xa46 <__stack+0x1e7>
     a44:	4a c0       	rjmp	.+148    	; 0xada <__stack+0x27b>
     a46:	10 92 79 00 	sts	0x0079, r1	; 0x800079 <update_minute_sunrise>
     a4a:	68 e8       	ldi	r22, 0x88	; 136
     a4c:	86 e3       	ldi	r24, 0x36	; 54
     a4e:	0e 94 14 0a 	call	0x1428	; 0x1428 <_Z15ST7789_SetXYposcc>
     a52:	80 91 65 00 	lds	r24, 0x0065	; 0x800065 <time_schedule+0x1>
     a56:	8a 30       	cpi	r24, 0x0A	; 10
     a58:	40 f4       	brcc	.+16     	; 0xa6a <__stack+0x20b>
     a5a:	23 e0       	ldi	r18, 0x03	; 3
     a5c:	48 89       	ldd	r20, Y+16	; 0x10
     a5e:	59 89       	ldd	r21, Y+17	; 0x11
     a60:	6a 89       	ldd	r22, Y+18	; 0x12
     a62:	8f e7       	ldi	r24, 0x7F	; 127
     a64:	90 e0       	ldi	r25, 0x00	; 0
     a66:	0e 94 1e 0b 	call	0x163c	; 0x163c <_Z18ST7789_PrintStringPc6colourc>
     a6a:	80 91 65 00 	lds	r24, 0x0065	; 0x800065 <time_schedule+0x1>
     a6e:	4a e0       	ldi	r20, 0x0A	; 10
     a70:	50 e0       	ldi	r21, 0x00	; 0
     a72:	63 ed       	ldi	r22, 0xD3	; 211
     a74:	75 e0       	ldi	r23, 0x05	; 5
     a76:	90 e0       	ldi	r25, 0x00	; 0
     a78:	0e 94 d9 0b 	call	0x17b2	; 0x17b2 <itoa>
     a7c:	23 e0       	ldi	r18, 0x03	; 3
     a7e:	48 89       	ldd	r20, Y+16	; 0x10
     a80:	59 89       	ldd	r21, Y+17	; 0x11
     a82:	6a 89       	ldd	r22, Y+18	; 0x12
     a84:	0e 94 1e 0b 	call	0x163c	; 0x163c <_Z18ST7789_PrintStringPc6colourc>
     a88:	80 91 d1 05 	lds	r24, 0x05D1	; 0x8005d1 <update_schedule>
     a8c:	88 23       	and	r24, r24
     a8e:	09 f1       	breq	.+66     	; 0xad2 <__stack+0x273>
     a90:	10 92 d1 05 	sts	0x05D1, r1	; 0x8005d1 <update_schedule>
     a94:	68 e8       	ldi	r22, 0x88	; 136
     a96:	80 e0       	ldi	r24, 0x00	; 0
     a98:	0e 94 14 0a 	call	0x1428	; 0x1428 <_Z15ST7789_SetXYposcc>
     a9c:	80 91 64 00 	lds	r24, 0x0064	; 0x800064 <time_schedule>
     aa0:	8a 30       	cpi	r24, 0x0A	; 10
     aa2:	40 f4       	brcc	.+16     	; 0xab4 <__stack+0x255>
     aa4:	23 e0       	ldi	r18, 0x03	; 3
     aa6:	4d 2d       	mov	r20, r13
     aa8:	50 2f       	mov	r21, r16
     aaa:	61 2f       	mov	r22, r17
     aac:	8f e7       	ldi	r24, 0x7F	; 127
     aae:	90 e0       	ldi	r25, 0x00	; 0
     ab0:	0e 94 1e 0b 	call	0x163c	; 0x163c <_Z18ST7789_PrintStringPc6colourc>
     ab4:	80 91 64 00 	lds	r24, 0x0064	; 0x800064 <time_schedule>
     ab8:	4a e0       	ldi	r20, 0x0A	; 10
     aba:	50 e0       	ldi	r21, 0x00	; 0
     abc:	63 ed       	ldi	r22, 0xD3	; 211
     abe:	75 e0       	ldi	r23, 0x05	; 5
     ac0:	90 e0       	ldi	r25, 0x00	; 0
     ac2:	0e 94 d9 0b 	call	0x17b2	; 0x17b2 <itoa>
     ac6:	23 e0       	ldi	r18, 0x03	; 3
     ac8:	4d 2d       	mov	r20, r13
     aca:	50 2f       	mov	r21, r16
     acc:	61 2f       	mov	r22, r17
     ace:	0e 94 1e 0b 	call	0x163c	; 0x163c <_Z18ST7789_PrintStringPc6colourc>
     ad2:	80 91 cf 05 	lds	r24, 0x05CF	; 0x8005cf <mode>
     ad6:	86 30       	cpi	r24, 0x06	; 6
     ad8:	d1 f0       	breq	.+52     	; 0xb0e <__stack+0x2af>
     ada:	80 91 78 00 	lds	r24, 0x0078	; 0x800078 <update_hour_day>
     ade:	88 23       	and	r24, r24
     ae0:	09 f4       	brne	.+2      	; 0xae4 <__stack+0x285>
     ae2:	60 c0       	rjmp	.+192    	; 0xba4 <__stack+0x345>
     ae4:	10 92 78 00 	sts	0x0078, r1	; 0x800078 <update_hour_day>
     ae8:	62 ea       	ldi	r22, 0xA2	; 162
     aea:	80 e0       	ldi	r24, 0x00	; 0
     aec:	0e 94 14 0a 	call	0x1428	; 0x1428 <_Z15ST7789_SetXYposcc>
     af0:	80 91 66 00 	lds	r24, 0x0066	; 0x800066 <time_schedule+0x2>
     af4:	8a 30       	cpi	r24, 0x0A	; 10
     af6:	40 f4       	brcc	.+16     	; 0xb08 <__stack+0x2a9>
     af8:	23 e0       	ldi	r18, 0x03	; 3
     afa:	4d 2d       	mov	r20, r13
     afc:	50 2f       	mov	r21, r16
     afe:	61 2f       	mov	r22, r17
     b00:	8f e7       	ldi	r24, 0x7F	; 127
     b02:	90 e0       	ldi	r25, 0x00	; 0
     b04:	0e 94 1e 0b 	call	0x163c	; 0x163c <_Z18ST7789_PrintStringPc6colourc>
     b08:	80 91 66 00 	lds	r24, 0x0066	; 0x800066 <time_schedule+0x2>
     b0c:	3e c0       	rjmp	.+124    	; 0xb8a <__stack+0x32b>
     b0e:	80 91 78 00 	lds	r24, 0x0078	; 0x800078 <update_hour_day>
     b12:	88 23       	and	r24, r24
     b14:	09 f4       	brne	.+2      	; 0xb18 <__stack+0x2b9>
     b16:	4a c0       	rjmp	.+148    	; 0xbac <__stack+0x34d>
     b18:	10 92 78 00 	sts	0x0078, r1	; 0x800078 <update_hour_day>
     b1c:	62 ea       	ldi	r22, 0xA2	; 162
     b1e:	80 e0       	ldi	r24, 0x00	; 0
     b20:	0e 94 14 0a 	call	0x1428	; 0x1428 <_Z15ST7789_SetXYposcc>
     b24:	80 91 66 00 	lds	r24, 0x0066	; 0x800066 <time_schedule+0x2>
     b28:	8a 30       	cpi	r24, 0x0A	; 10
     b2a:	40 f4       	brcc	.+16     	; 0xb3c <__stack+0x2dd>
     b2c:	23 e0       	ldi	r18, 0x03	; 3
     b2e:	4d 85       	ldd	r20, Y+13	; 0x0d
     b30:	5e 85       	ldd	r21, Y+14	; 0x0e
     b32:	6f 85       	ldd	r22, Y+15	; 0x0f
     b34:	8f e7       	ldi	r24, 0x7F	; 127
     b36:	90 e0       	ldi	r25, 0x00	; 0
     b38:	0e 94 1e 0b 	call	0x163c	; 0x163c <_Z18ST7789_PrintStringPc6colourc>
     b3c:	80 91 66 00 	lds	r24, 0x0066	; 0x800066 <time_schedule+0x2>
     b40:	4a e0       	ldi	r20, 0x0A	; 10
     b42:	50 e0       	ldi	r21, 0x00	; 0
     b44:	63 ed       	ldi	r22, 0xD3	; 211
     b46:	75 e0       	ldi	r23, 0x05	; 5
     b48:	90 e0       	ldi	r25, 0x00	; 0
     b4a:	0e 94 d9 0b 	call	0x17b2	; 0x17b2 <itoa>
     b4e:	23 e0       	ldi	r18, 0x03	; 3
     b50:	4d 85       	ldd	r20, Y+13	; 0x0d
     b52:	5e 85       	ldd	r21, Y+14	; 0x0e
     b54:	6f 85       	ldd	r22, Y+15	; 0x0f
     b56:	0e 94 1e 0b 	call	0x163c	; 0x163c <_Z18ST7789_PrintStringPc6colourc>
     b5a:	80 91 d1 05 	lds	r24, 0x05D1	; 0x8005d1 <update_schedule>
     b5e:	88 23       	and	r24, r24
     b60:	09 f1       	breq	.+66     	; 0xba4 <__stack+0x345>
     b62:	10 92 d1 05 	sts	0x05D1, r1	; 0x8005d1 <update_schedule>
     b66:	68 e8       	ldi	r22, 0x88	; 136
     b68:	86 e3       	ldi	r24, 0x36	; 54
     b6a:	0e 94 14 0a 	call	0x1428	; 0x1428 <_Z15ST7789_SetXYposcc>
     b6e:	80 91 65 00 	lds	r24, 0x0065	; 0x800065 <time_schedule+0x1>
     b72:	8a 30       	cpi	r24, 0x0A	; 10
     b74:	40 f4       	brcc	.+16     	; 0xb86 <__stack+0x327>
     b76:	23 e0       	ldi	r18, 0x03	; 3
     b78:	4d 2d       	mov	r20, r13
     b7a:	50 2f       	mov	r21, r16
     b7c:	61 2f       	mov	r22, r17
     b7e:	8f e7       	ldi	r24, 0x7F	; 127
     b80:	90 e0       	ldi	r25, 0x00	; 0
     b82:	0e 94 1e 0b 	call	0x163c	; 0x163c <_Z18ST7789_PrintStringPc6colourc>
     b86:	80 91 65 00 	lds	r24, 0x0065	; 0x800065 <time_schedule+0x1>
     b8a:	4a e0       	ldi	r20, 0x0A	; 10
     b8c:	50 e0       	ldi	r21, 0x00	; 0
     b8e:	63 ed       	ldi	r22, 0xD3	; 211
     b90:	75 e0       	ldi	r23, 0x05	; 5
     b92:	90 e0       	ldi	r25, 0x00	; 0
     b94:	0e 94 d9 0b 	call	0x17b2	; 0x17b2 <itoa>
     b98:	23 e0       	ldi	r18, 0x03	; 3
     b9a:	4d 2d       	mov	r20, r13
     b9c:	50 2f       	mov	r21, r16
     b9e:	61 2f       	mov	r22, r17
     ba0:	0e 94 1e 0b 	call	0x163c	; 0x163c <_Z18ST7789_PrintStringPc6colourc>
     ba4:	80 91 cf 05 	lds	r24, 0x05CF	; 0x8005cf <mode>
     ba8:	87 30       	cpi	r24, 0x07	; 7
     baa:	d1 f0       	breq	.+52     	; 0xbe0 <__stack+0x381>
     bac:	80 91 77 00 	lds	r24, 0x0077	; 0x800077 <update_minute_day>
     bb0:	88 23       	and	r24, r24
     bb2:	09 f4       	brne	.+2      	; 0xbb6 <__stack+0x357>
     bb4:	60 c0       	rjmp	.+192    	; 0xc76 <__stack+0x417>
     bb6:	10 92 77 00 	sts	0x0077, r1	; 0x800077 <update_minute_day>
     bba:	62 ea       	ldi	r22, 0xA2	; 162
     bbc:	86 e3       	ldi	r24, 0x36	; 54
     bbe:	0e 94 14 0a 	call	0x1428	; 0x1428 <_Z15ST7789_SetXYposcc>
     bc2:	80 91 67 00 	lds	r24, 0x0067	; 0x800067 <time_schedule+0x3>
     bc6:	8a 30       	cpi	r24, 0x0A	; 10
     bc8:	40 f4       	brcc	.+16     	; 0xbda <__stack+0x37b>
     bca:	23 e0       	ldi	r18, 0x03	; 3
     bcc:	4d 2d       	mov	r20, r13
     bce:	50 2f       	mov	r21, r16
     bd0:	61 2f       	mov	r22, r17
     bd2:	8f e7       	ldi	r24, 0x7F	; 127
     bd4:	90 e0       	ldi	r25, 0x00	; 0
     bd6:	0e 94 1e 0b 	call	0x163c	; 0x163c <_Z18ST7789_PrintStringPc6colourc>
     bda:	80 91 67 00 	lds	r24, 0x0067	; 0x800067 <time_schedule+0x3>
     bde:	3e c0       	rjmp	.+124    	; 0xc5c <__stack+0x3fd>
     be0:	80 91 77 00 	lds	r24, 0x0077	; 0x800077 <update_minute_day>
     be4:	88 23       	and	r24, r24
     be6:	09 f4       	brne	.+2      	; 0xbea <__stack+0x38b>
     be8:	4a c0       	rjmp	.+148    	; 0xc7e <__stack+0x41f>
     bea:	10 92 77 00 	sts	0x0077, r1	; 0x800077 <update_minute_day>
     bee:	62 ea       	ldi	r22, 0xA2	; 162
     bf0:	86 e3       	ldi	r24, 0x36	; 54
     bf2:	0e 94 14 0a 	call	0x1428	; 0x1428 <_Z15ST7789_SetXYposcc>
     bf6:	80 91 67 00 	lds	r24, 0x0067	; 0x800067 <time_schedule+0x3>
     bfa:	8a 30       	cpi	r24, 0x0A	; 10
     bfc:	40 f4       	brcc	.+16     	; 0xc0e <__stack+0x3af>
     bfe:	23 e0       	ldi	r18, 0x03	; 3
     c00:	4a 85       	ldd	r20, Y+10	; 0x0a
     c02:	5b 85       	ldd	r21, Y+11	; 0x0b
     c04:	6c 85       	ldd	r22, Y+12	; 0x0c
     c06:	8f e7       	ldi	r24, 0x7F	; 127
     c08:	90 e0       	ldi	r25, 0x00	; 0
     c0a:	0e 94 1e 0b 	call	0x163c	; 0x163c <_Z18ST7789_PrintStringPc6colourc>
     c0e:	80 91 67 00 	lds	r24, 0x0067	; 0x800067 <time_schedule+0x3>
     c12:	4a e0       	ldi	r20, 0x0A	; 10
     c14:	50 e0       	ldi	r21, 0x00	; 0
     c16:	63 ed       	ldi	r22, 0xD3	; 211
     c18:	75 e0       	ldi	r23, 0x05	; 5
     c1a:	90 e0       	ldi	r25, 0x00	; 0
     c1c:	0e 94 d9 0b 	call	0x17b2	; 0x17b2 <itoa>
     c20:	23 e0       	ldi	r18, 0x03	; 3
     c22:	4a 85       	ldd	r20, Y+10	; 0x0a
     c24:	5b 85       	ldd	r21, Y+11	; 0x0b
     c26:	6c 85       	ldd	r22, Y+12	; 0x0c
     c28:	0e 94 1e 0b 	call	0x163c	; 0x163c <_Z18ST7789_PrintStringPc6colourc>
     c2c:	80 91 d1 05 	lds	r24, 0x05D1	; 0x8005d1 <update_schedule>
     c30:	88 23       	and	r24, r24
     c32:	09 f1       	breq	.+66     	; 0xc76 <__stack+0x417>
     c34:	10 92 d1 05 	sts	0x05D1, r1	; 0x8005d1 <update_schedule>
     c38:	62 ea       	ldi	r22, 0xA2	; 162
     c3a:	80 e0       	ldi	r24, 0x00	; 0
     c3c:	0e 94 14 0a 	call	0x1428	; 0x1428 <_Z15ST7789_SetXYposcc>
     c40:	80 91 66 00 	lds	r24, 0x0066	; 0x800066 <time_schedule+0x2>
     c44:	8a 30       	cpi	r24, 0x0A	; 10
     c46:	40 f4       	brcc	.+16     	; 0xc58 <__stack+0x3f9>
     c48:	23 e0       	ldi	r18, 0x03	; 3
     c4a:	4d 2d       	mov	r20, r13
     c4c:	50 2f       	mov	r21, r16
     c4e:	61 2f       	mov	r22, r17
     c50:	8f e7       	ldi	r24, 0x7F	; 127
     c52:	90 e0       	ldi	r25, 0x00	; 0
     c54:	0e 94 1e 0b 	call	0x163c	; 0x163c <_Z18ST7789_PrintStringPc6colourc>
     c58:	80 91 66 00 	lds	r24, 0x0066	; 0x800066 <time_schedule+0x2>
     c5c:	4a e0       	ldi	r20, 0x0A	; 10
     c5e:	50 e0       	ldi	r21, 0x00	; 0
     c60:	63 ed       	ldi	r22, 0xD3	; 211
     c62:	75 e0       	ldi	r23, 0x05	; 5
     c64:	90 e0       	ldi	r25, 0x00	; 0
     c66:	0e 94 d9 0b 	call	0x17b2	; 0x17b2 <itoa>
     c6a:	23 e0       	ldi	r18, 0x03	; 3
     c6c:	4d 2d       	mov	r20, r13
     c6e:	50 2f       	mov	r21, r16
     c70:	61 2f       	mov	r22, r17
     c72:	0e 94 1e 0b 	call	0x163c	; 0x163c <_Z18ST7789_PrintStringPc6colourc>
     c76:	80 91 cf 05 	lds	r24, 0x05CF	; 0x8005cf <mode>
     c7a:	88 30       	cpi	r24, 0x08	; 8
     c7c:	d1 f0       	breq	.+52     	; 0xcb2 <__stack+0x453>
     c7e:	80 91 76 00 	lds	r24, 0x0076	; 0x800076 <update_hour_sunset>
     c82:	88 23       	and	r24, r24
     c84:	09 f4       	brne	.+2      	; 0xc88 <__stack+0x429>
     c86:	60 c0       	rjmp	.+192    	; 0xd48 <__stack+0x4e9>
     c88:	10 92 76 00 	sts	0x0076, r1	; 0x800076 <update_hour_sunset>
     c8c:	6c eb       	ldi	r22, 0xBC	; 188
     c8e:	80 e0       	ldi	r24, 0x00	; 0
     c90:	0e 94 14 0a 	call	0x1428	; 0x1428 <_Z15ST7789_SetXYposcc>
     c94:	80 91 68 00 	lds	r24, 0x0068	; 0x800068 <time_schedule+0x4>
     c98:	8a 30       	cpi	r24, 0x0A	; 10
     c9a:	40 f4       	brcc	.+16     	; 0xcac <__stack+0x44d>
     c9c:	23 e0       	ldi	r18, 0x03	; 3
     c9e:	4d 2d       	mov	r20, r13
     ca0:	50 2f       	mov	r21, r16
     ca2:	61 2f       	mov	r22, r17
     ca4:	8f e7       	ldi	r24, 0x7F	; 127
     ca6:	90 e0       	ldi	r25, 0x00	; 0
     ca8:	0e 94 1e 0b 	call	0x163c	; 0x163c <_Z18ST7789_PrintStringPc6colourc>
     cac:	80 91 68 00 	lds	r24, 0x0068	; 0x800068 <time_schedule+0x4>
     cb0:	3e c0       	rjmp	.+124    	; 0xd2e <__stack+0x4cf>
     cb2:	80 91 76 00 	lds	r24, 0x0076	; 0x800076 <update_hour_sunset>
     cb6:	88 23       	and	r24, r24
     cb8:	09 f4       	brne	.+2      	; 0xcbc <__stack+0x45d>
     cba:	4a c0       	rjmp	.+148    	; 0xd50 <__stack+0x4f1>
     cbc:	10 92 76 00 	sts	0x0076, r1	; 0x800076 <update_hour_sunset>
     cc0:	6c eb       	ldi	r22, 0xBC	; 188
     cc2:	80 e0       	ldi	r24, 0x00	; 0
     cc4:	0e 94 14 0a 	call	0x1428	; 0x1428 <_Z15ST7789_SetXYposcc>
     cc8:	80 91 68 00 	lds	r24, 0x0068	; 0x800068 <time_schedule+0x4>
     ccc:	8a 30       	cpi	r24, 0x0A	; 10
     cce:	40 f4       	brcc	.+16     	; 0xce0 <__stack+0x481>
     cd0:	23 e0       	ldi	r18, 0x03	; 3
     cd2:	4f 81       	ldd	r20, Y+7	; 0x07
     cd4:	58 85       	ldd	r21, Y+8	; 0x08
     cd6:	69 85       	ldd	r22, Y+9	; 0x09
     cd8:	8f e7       	ldi	r24, 0x7F	; 127
     cda:	90 e0       	ldi	r25, 0x00	; 0
     cdc:	0e 94 1e 0b 	call	0x163c	; 0x163c <_Z18ST7789_PrintStringPc6colourc>
     ce0:	80 91 68 00 	lds	r24, 0x0068	; 0x800068 <time_schedule+0x4>
     ce4:	4a e0       	ldi	r20, 0x0A	; 10
     ce6:	50 e0       	ldi	r21, 0x00	; 0
     ce8:	63 ed       	ldi	r22, 0xD3	; 211
     cea:	75 e0       	ldi	r23, 0x05	; 5
     cec:	90 e0       	ldi	r25, 0x00	; 0
     cee:	0e 94 d9 0b 	call	0x17b2	; 0x17b2 <itoa>
     cf2:	23 e0       	ldi	r18, 0x03	; 3
     cf4:	4f 81       	ldd	r20, Y+7	; 0x07
     cf6:	58 85       	ldd	r21, Y+8	; 0x08
     cf8:	69 85       	ldd	r22, Y+9	; 0x09
     cfa:	0e 94 1e 0b 	call	0x163c	; 0x163c <_Z18ST7789_PrintStringPc6colourc>
     cfe:	80 91 d1 05 	lds	r24, 0x05D1	; 0x8005d1 <update_schedule>
     d02:	88 23       	and	r24, r24
     d04:	09 f1       	breq	.+66     	; 0xd48 <__stack+0x4e9>
     d06:	10 92 d1 05 	sts	0x05D1, r1	; 0x8005d1 <update_schedule>
     d0a:	62 ea       	ldi	r22, 0xA2	; 162
     d0c:	86 e3       	ldi	r24, 0x36	; 54
     d0e:	0e 94 14 0a 	call	0x1428	; 0x1428 <_Z15ST7789_SetXYposcc>
     d12:	80 91 67 00 	lds	r24, 0x0067	; 0x800067 <time_schedule+0x3>
     d16:	8a 30       	cpi	r24, 0x0A	; 10
     d18:	40 f4       	brcc	.+16     	; 0xd2a <__stack+0x4cb>
     d1a:	23 e0       	ldi	r18, 0x03	; 3
     d1c:	4d 2d       	mov	r20, r13
     d1e:	50 2f       	mov	r21, r16
     d20:	61 2f       	mov	r22, r17
     d22:	8f e7       	ldi	r24, 0x7F	; 127
     d24:	90 e0       	ldi	r25, 0x00	; 0
     d26:	0e 94 1e 0b 	call	0x163c	; 0x163c <_Z18ST7789_PrintStringPc6colourc>
     d2a:	80 91 67 00 	lds	r24, 0x0067	; 0x800067 <time_schedule+0x3>
     d2e:	4a e0       	ldi	r20, 0x0A	; 10
     d30:	50 e0       	ldi	r21, 0x00	; 0
     d32:	63 ed       	ldi	r22, 0xD3	; 211
     d34:	75 e0       	ldi	r23, 0x05	; 5
     d36:	90 e0       	ldi	r25, 0x00	; 0
     d38:	0e 94 d9 0b 	call	0x17b2	; 0x17b2 <itoa>
     d3c:	23 e0       	ldi	r18, 0x03	; 3
     d3e:	4d 2d       	mov	r20, r13
     d40:	50 2f       	mov	r21, r16
     d42:	61 2f       	mov	r22, r17
     d44:	0e 94 1e 0b 	call	0x163c	; 0x163c <_Z18ST7789_PrintStringPc6colourc>
     d48:	80 91 cf 05 	lds	r24, 0x05CF	; 0x8005cf <mode>
     d4c:	89 30       	cpi	r24, 0x09	; 9
     d4e:	d1 f0       	breq	.+52     	; 0xd84 <__stack+0x525>
     d50:	80 91 75 00 	lds	r24, 0x0075	; 0x800075 <update_minute_sunset>
     d54:	88 23       	and	r24, r24
     d56:	09 f4       	brne	.+2      	; 0xd5a <__stack+0x4fb>
     d58:	60 c0       	rjmp	.+192    	; 0xe1a <__stack+0x5bb>
     d5a:	10 92 75 00 	sts	0x0075, r1	; 0x800075 <update_minute_sunset>
     d5e:	6c eb       	ldi	r22, 0xBC	; 188
     d60:	86 e3       	ldi	r24, 0x36	; 54
     d62:	0e 94 14 0a 	call	0x1428	; 0x1428 <_Z15ST7789_SetXYposcc>
     d66:	80 91 69 00 	lds	r24, 0x0069	; 0x800069 <time_schedule+0x5>
     d6a:	8a 30       	cpi	r24, 0x0A	; 10
     d6c:	40 f4       	brcc	.+16     	; 0xd7e <__stack+0x51f>
     d6e:	23 e0       	ldi	r18, 0x03	; 3
     d70:	4d 2d       	mov	r20, r13
     d72:	50 2f       	mov	r21, r16
     d74:	61 2f       	mov	r22, r17
     d76:	8f e7       	ldi	r24, 0x7F	; 127
     d78:	90 e0       	ldi	r25, 0x00	; 0
     d7a:	0e 94 1e 0b 	call	0x163c	; 0x163c <_Z18ST7789_PrintStringPc6colourc>
     d7e:	80 91 69 00 	lds	r24, 0x0069	; 0x800069 <time_schedule+0x5>
     d82:	3e c0       	rjmp	.+124    	; 0xe00 <__stack+0x5a1>
     d84:	80 91 75 00 	lds	r24, 0x0075	; 0x800075 <update_minute_sunset>
     d88:	88 23       	and	r24, r24
     d8a:	09 f4       	brne	.+2      	; 0xd8e <__stack+0x52f>
     d8c:	4a c0       	rjmp	.+148    	; 0xe22 <__stack+0x5c3>
     d8e:	10 92 75 00 	sts	0x0075, r1	; 0x800075 <update_minute_sunset>
     d92:	6c eb       	ldi	r22, 0xBC	; 188
     d94:	86 e3       	ldi	r24, 0x36	; 54
     d96:	0e 94 14 0a 	call	0x1428	; 0x1428 <_Z15ST7789_SetXYposcc>
     d9a:	80 91 69 00 	lds	r24, 0x0069	; 0x800069 <time_schedule+0x5>
     d9e:	8a 30       	cpi	r24, 0x0A	; 10
     da0:	40 f4       	brcc	.+16     	; 0xdb2 <__stack+0x553>
     da2:	23 e0       	ldi	r18, 0x03	; 3
     da4:	4c 81       	ldd	r20, Y+4	; 0x04
     da6:	5d 81       	ldd	r21, Y+5	; 0x05
     da8:	6e 81       	ldd	r22, Y+6	; 0x06
     daa:	8f e7       	ldi	r24, 0x7F	; 127
     dac:	90 e0       	ldi	r25, 0x00	; 0
     dae:	0e 94 1e 0b 	call	0x163c	; 0x163c <_Z18ST7789_PrintStringPc6colourc>
     db2:	80 91 69 00 	lds	r24, 0x0069	; 0x800069 <time_schedule+0x5>
     db6:	4a e0       	ldi	r20, 0x0A	; 10
     db8:	50 e0       	ldi	r21, 0x00	; 0
     dba:	63 ed       	ldi	r22, 0xD3	; 211
     dbc:	75 e0       	ldi	r23, 0x05	; 5
     dbe:	90 e0       	ldi	r25, 0x00	; 0
     dc0:	0e 94 d9 0b 	call	0x17b2	; 0x17b2 <itoa>
     dc4:	23 e0       	ldi	r18, 0x03	; 3
     dc6:	4c 81       	ldd	r20, Y+4	; 0x04
     dc8:	5d 81       	ldd	r21, Y+5	; 0x05
     dca:	6e 81       	ldd	r22, Y+6	; 0x06
     dcc:	0e 94 1e 0b 	call	0x163c	; 0x163c <_Z18ST7789_PrintStringPc6colourc>
     dd0:	80 91 d1 05 	lds	r24, 0x05D1	; 0x8005d1 <update_schedule>
     dd4:	88 23       	and	r24, r24
     dd6:	09 f1       	breq	.+66     	; 0xe1a <__stack+0x5bb>
     dd8:	10 92 d1 05 	sts	0x05D1, r1	; 0x8005d1 <update_schedule>
     ddc:	6c eb       	ldi	r22, 0xBC	; 188
     dde:	80 e0       	ldi	r24, 0x00	; 0
     de0:	0e 94 14 0a 	call	0x1428	; 0x1428 <_Z15ST7789_SetXYposcc>
     de4:	80 91 68 00 	lds	r24, 0x0068	; 0x800068 <time_schedule+0x4>
     de8:	8a 30       	cpi	r24, 0x0A	; 10
     dea:	40 f4       	brcc	.+16     	; 0xdfc <__stack+0x59d>
     dec:	23 e0       	ldi	r18, 0x03	; 3
     dee:	4d 2d       	mov	r20, r13
     df0:	50 2f       	mov	r21, r16
     df2:	61 2f       	mov	r22, r17
     df4:	8f e7       	ldi	r24, 0x7F	; 127
     df6:	90 e0       	ldi	r25, 0x00	; 0
     df8:	0e 94 1e 0b 	call	0x163c	; 0x163c <_Z18ST7789_PrintStringPc6colourc>
     dfc:	80 91 68 00 	lds	r24, 0x0068	; 0x800068 <time_schedule+0x4>
     e00:	4a e0       	ldi	r20, 0x0A	; 10
     e02:	50 e0       	ldi	r21, 0x00	; 0
     e04:	63 ed       	ldi	r22, 0xD3	; 211
     e06:	75 e0       	ldi	r23, 0x05	; 5
     e08:	90 e0       	ldi	r25, 0x00	; 0
     e0a:	0e 94 d9 0b 	call	0x17b2	; 0x17b2 <itoa>
     e0e:	23 e0       	ldi	r18, 0x03	; 3
     e10:	4d 2d       	mov	r20, r13
     e12:	50 2f       	mov	r21, r16
     e14:	61 2f       	mov	r22, r17
     e16:	0e 94 1e 0b 	call	0x163c	; 0x163c <_Z18ST7789_PrintStringPc6colourc>
     e1a:	80 91 cf 05 	lds	r24, 0x05CF	; 0x8005cf <mode>
     e1e:	8a 30       	cpi	r24, 0x0A	; 10
     e20:	d1 f0       	breq	.+52     	; 0xe56 <__stack+0x5f7>
     e22:	80 91 74 00 	lds	r24, 0x0074	; 0x800074 <update_hour_night>
     e26:	88 23       	and	r24, r24
     e28:	09 f4       	brne	.+2      	; 0xe2c <__stack+0x5cd>
     e2a:	60 c0       	rjmp	.+192    	; 0xeec <__stack+0x68d>
     e2c:	10 92 74 00 	sts	0x0074, r1	; 0x800074 <update_hour_night>
     e30:	66 ed       	ldi	r22, 0xD6	; 214
     e32:	80 e0       	ldi	r24, 0x00	; 0
     e34:	0e 94 14 0a 	call	0x1428	; 0x1428 <_Z15ST7789_SetXYposcc>
     e38:	80 91 6a 00 	lds	r24, 0x006A	; 0x80006a <time_schedule+0x6>
     e3c:	8a 30       	cpi	r24, 0x0A	; 10
     e3e:	40 f4       	brcc	.+16     	; 0xe50 <__stack+0x5f1>
     e40:	23 e0       	ldi	r18, 0x03	; 3
     e42:	4d 2d       	mov	r20, r13
     e44:	50 2f       	mov	r21, r16
     e46:	61 2f       	mov	r22, r17
     e48:	8f e7       	ldi	r24, 0x7F	; 127
     e4a:	90 e0       	ldi	r25, 0x00	; 0
     e4c:	0e 94 1e 0b 	call	0x163c	; 0x163c <_Z18ST7789_PrintStringPc6colourc>
     e50:	80 91 6a 00 	lds	r24, 0x006A	; 0x80006a <time_schedule+0x6>
     e54:	3e c0       	rjmp	.+124    	; 0xed2 <__stack+0x673>
     e56:	80 91 74 00 	lds	r24, 0x0074	; 0x800074 <update_hour_night>
     e5a:	88 23       	and	r24, r24
     e5c:	09 f4       	brne	.+2      	; 0xe60 <__stack+0x601>
     e5e:	4a c0       	rjmp	.+148    	; 0xef4 <__stack+0x695>
     e60:	10 92 74 00 	sts	0x0074, r1	; 0x800074 <update_hour_night>
     e64:	66 ed       	ldi	r22, 0xD6	; 214
     e66:	80 e0       	ldi	r24, 0x00	; 0
     e68:	0e 94 14 0a 	call	0x1428	; 0x1428 <_Z15ST7789_SetXYposcc>
     e6c:	80 91 6a 00 	lds	r24, 0x006A	; 0x80006a <time_schedule+0x6>
     e70:	8a 30       	cpi	r24, 0x0A	; 10
     e72:	40 f4       	brcc	.+16     	; 0xe84 <__stack+0x625>
     e74:	23 e0       	ldi	r18, 0x03	; 3
     e76:	49 81       	ldd	r20, Y+1	; 0x01
     e78:	5a 81       	ldd	r21, Y+2	; 0x02
     e7a:	6b 81       	ldd	r22, Y+3	; 0x03
     e7c:	8f e7       	ldi	r24, 0x7F	; 127
     e7e:	90 e0       	ldi	r25, 0x00	; 0
     e80:	0e 94 1e 0b 	call	0x163c	; 0x163c <_Z18ST7789_PrintStringPc6colourc>
     e84:	80 91 6a 00 	lds	r24, 0x006A	; 0x80006a <time_schedule+0x6>
     e88:	4a e0       	ldi	r20, 0x0A	; 10
     e8a:	50 e0       	ldi	r21, 0x00	; 0
     e8c:	63 ed       	ldi	r22, 0xD3	; 211
     e8e:	75 e0       	ldi	r23, 0x05	; 5
     e90:	90 e0       	ldi	r25, 0x00	; 0
     e92:	0e 94 d9 0b 	call	0x17b2	; 0x17b2 <itoa>
     e96:	23 e0       	ldi	r18, 0x03	; 3
     e98:	49 81       	ldd	r20, Y+1	; 0x01
     e9a:	5a 81       	ldd	r21, Y+2	; 0x02
     e9c:	6b 81       	ldd	r22, Y+3	; 0x03
     e9e:	0e 94 1e 0b 	call	0x163c	; 0x163c <_Z18ST7789_PrintStringPc6colourc>
     ea2:	80 91 d1 05 	lds	r24, 0x05D1	; 0x8005d1 <update_schedule>
     ea6:	88 23       	and	r24, r24
     ea8:	09 f1       	breq	.+66     	; 0xeec <__stack+0x68d>
     eaa:	10 92 d1 05 	sts	0x05D1, r1	; 0x8005d1 <update_schedule>
     eae:	6c eb       	ldi	r22, 0xBC	; 188
     eb0:	86 e3       	ldi	r24, 0x36	; 54
     eb2:	0e 94 14 0a 	call	0x1428	; 0x1428 <_Z15ST7789_SetXYposcc>
     eb6:	80 91 69 00 	lds	r24, 0x0069	; 0x800069 <time_schedule+0x5>
     eba:	8a 30       	cpi	r24, 0x0A	; 10
     ebc:	40 f4       	brcc	.+16     	; 0xece <__stack+0x66f>
     ebe:	23 e0       	ldi	r18, 0x03	; 3
     ec0:	4d 2d       	mov	r20, r13
     ec2:	50 2f       	mov	r21, r16
     ec4:	61 2f       	mov	r22, r17
     ec6:	8f e7       	ldi	r24, 0x7F	; 127
     ec8:	90 e0       	ldi	r25, 0x00	; 0
     eca:	0e 94 1e 0b 	call	0x163c	; 0x163c <_Z18ST7789_PrintStringPc6colourc>
     ece:	80 91 69 00 	lds	r24, 0x0069	; 0x800069 <time_schedule+0x5>
     ed2:	4a e0       	ldi	r20, 0x0A	; 10
     ed4:	50 e0       	ldi	r21, 0x00	; 0
     ed6:	63 ed       	ldi	r22, 0xD3	; 211
     ed8:	75 e0       	ldi	r23, 0x05	; 5
     eda:	90 e0       	ldi	r25, 0x00	; 0
     edc:	0e 94 d9 0b 	call	0x17b2	; 0x17b2 <itoa>
     ee0:	23 e0       	ldi	r18, 0x03	; 3
     ee2:	4d 2d       	mov	r20, r13
     ee4:	50 2f       	mov	r21, r16
     ee6:	61 2f       	mov	r22, r17
     ee8:	0e 94 1e 0b 	call	0x163c	; 0x163c <_Z18ST7789_PrintStringPc6colourc>
     eec:	80 91 cf 05 	lds	r24, 0x05CF	; 0x8005cf <mode>
     ef0:	8b 30       	cpi	r24, 0x0B	; 11
     ef2:	d1 f0       	breq	.+52     	; 0xf28 <__stack+0x6c9>
     ef4:	80 91 73 00 	lds	r24, 0x0073	; 0x800073 <update_minute_night>
     ef8:	88 23       	and	r24, r24
     efa:	09 f4       	brne	.+2      	; 0xefe <__stack+0x69f>
     efc:	60 c0       	rjmp	.+192    	; 0xfbe <__stack+0x75f>
     efe:	10 92 73 00 	sts	0x0073, r1	; 0x800073 <update_minute_night>
     f02:	66 ed       	ldi	r22, 0xD6	; 214
     f04:	86 e3       	ldi	r24, 0x36	; 54
     f06:	0e 94 14 0a 	call	0x1428	; 0x1428 <_Z15ST7789_SetXYposcc>
     f0a:	80 91 6b 00 	lds	r24, 0x006B	; 0x80006b <time_schedule+0x7>
     f0e:	8a 30       	cpi	r24, 0x0A	; 10
     f10:	40 f4       	brcc	.+16     	; 0xf22 <__stack+0x6c3>
     f12:	23 e0       	ldi	r18, 0x03	; 3
     f14:	4d 2d       	mov	r20, r13
     f16:	50 2f       	mov	r21, r16
     f18:	61 2f       	mov	r22, r17
     f1a:	8f e7       	ldi	r24, 0x7F	; 127
     f1c:	90 e0       	ldi	r25, 0x00	; 0
     f1e:	0e 94 1e 0b 	call	0x163c	; 0x163c <_Z18ST7789_PrintStringPc6colourc>
     f22:	80 91 6b 00 	lds	r24, 0x006B	; 0x80006b <time_schedule+0x7>
     f26:	3e c0       	rjmp	.+124    	; 0xfa4 <__stack+0x745>
     f28:	80 91 73 00 	lds	r24, 0x0073	; 0x800073 <update_minute_night>
     f2c:	88 23       	and	r24, r24
     f2e:	09 f4       	brne	.+2      	; 0xf32 <__stack+0x6d3>
     f30:	46 c0       	rjmp	.+140    	; 0xfbe <__stack+0x75f>
     f32:	10 92 73 00 	sts	0x0073, r1	; 0x800073 <update_minute_night>
     f36:	66 ed       	ldi	r22, 0xD6	; 214
     f38:	86 e3       	ldi	r24, 0x36	; 54
     f3a:	0e 94 14 0a 	call	0x1428	; 0x1428 <_Z15ST7789_SetXYposcc>
     f3e:	80 91 6b 00 	lds	r24, 0x006B	; 0x80006b <time_schedule+0x7>
     f42:	8a 30       	cpi	r24, 0x0A	; 10
     f44:	40 f4       	brcc	.+16     	; 0xf56 <__stack+0x6f7>
     f46:	23 e0       	ldi	r18, 0x03	; 3
     f48:	4a 8d       	ldd	r20, Y+26	; 0x1a
     f4a:	5b 8d       	ldd	r21, Y+27	; 0x1b
     f4c:	69 2d       	mov	r22, r9
     f4e:	8f e7       	ldi	r24, 0x7F	; 127
     f50:	90 e0       	ldi	r25, 0x00	; 0
     f52:	0e 94 1e 0b 	call	0x163c	; 0x163c <_Z18ST7789_PrintStringPc6colourc>
     f56:	80 91 6b 00 	lds	r24, 0x006B	; 0x80006b <time_schedule+0x7>
     f5a:	4a e0       	ldi	r20, 0x0A	; 10
     f5c:	50 e0       	ldi	r21, 0x00	; 0
     f5e:	63 ed       	ldi	r22, 0xD3	; 211
     f60:	75 e0       	ldi	r23, 0x05	; 5
     f62:	90 e0       	ldi	r25, 0x00	; 0
     f64:	0e 94 d9 0b 	call	0x17b2	; 0x17b2 <itoa>
     f68:	23 e0       	ldi	r18, 0x03	; 3
     f6a:	4a 8d       	ldd	r20, Y+26	; 0x1a
     f6c:	5b 8d       	ldd	r21, Y+27	; 0x1b
     f6e:	69 2d       	mov	r22, r9
     f70:	0e 94 1e 0b 	call	0x163c	; 0x163c <_Z18ST7789_PrintStringPc6colourc>
     f74:	80 91 d1 05 	lds	r24, 0x05D1	; 0x8005d1 <update_schedule>
     f78:	88 23       	and	r24, r24
     f7a:	09 f1       	breq	.+66     	; 0xfbe <__stack+0x75f>
     f7c:	10 92 d1 05 	sts	0x05D1, r1	; 0x8005d1 <update_schedule>
     f80:	66 ed       	ldi	r22, 0xD6	; 214
     f82:	80 e0       	ldi	r24, 0x00	; 0
     f84:	0e 94 14 0a 	call	0x1428	; 0x1428 <_Z15ST7789_SetXYposcc>
     f88:	80 91 6a 00 	lds	r24, 0x006A	; 0x80006a <time_schedule+0x6>
     f8c:	8a 30       	cpi	r24, 0x0A	; 10
     f8e:	40 f4       	brcc	.+16     	; 0xfa0 <__stack+0x741>
     f90:	23 e0       	ldi	r18, 0x03	; 3
     f92:	4d 2d       	mov	r20, r13
     f94:	50 2f       	mov	r21, r16
     f96:	61 2f       	mov	r22, r17
     f98:	8f e7       	ldi	r24, 0x7F	; 127
     f9a:	90 e0       	ldi	r25, 0x00	; 0
     f9c:	0e 94 1e 0b 	call	0x163c	; 0x163c <_Z18ST7789_PrintStringPc6colourc>
     fa0:	80 91 6a 00 	lds	r24, 0x006A	; 0x80006a <time_schedule+0x6>
     fa4:	4a e0       	ldi	r20, 0x0A	; 10
     fa6:	50 e0       	ldi	r21, 0x00	; 0
     fa8:	63 ed       	ldi	r22, 0xD3	; 211
     faa:	75 e0       	ldi	r23, 0x05	; 5
     fac:	90 e0       	ldi	r25, 0x00	; 0
     fae:	0e 94 d9 0b 	call	0x17b2	; 0x17b2 <itoa>
     fb2:	23 e0       	ldi	r18, 0x03	; 3
     fb4:	4d 2d       	mov	r20, r13
     fb6:	50 2f       	mov	r21, r16
     fb8:	61 2f       	mov	r22, r17
     fba:	0e 94 1e 0b 	call	0x163c	; 0x163c <_Z18ST7789_PrintStringPc6colourc>
     fbe:	62 ed       	ldi	r22, 0xD2	; 210
     fc0:	84 eb       	ldi	r24, 0xB4	; 180
     fc2:	0e 94 14 0a 	call	0x1428	; 0x1428 <_Z15ST7789_SetXYposcc>
     fc6:	0e 94 c9 0b 	call	0x1792	; 0x1792 <rand>
     fca:	5c 01       	movw	r10, r24
     fcc:	0e 94 c9 0b 	call	0x1792	; 0x1792 <rand>
     fd0:	6c 01       	movw	r12, r24
     fd2:	0e 94 c9 0b 	call	0x1792	; 0x1792 <rand>
     fd6:	8c 01       	movw	r16, r24
     fd8:	80 91 cf 05 	lds	r24, 0x05CF	; 0x8005cf <mode>
     fdc:	4a e0       	ldi	r20, 0x0A	; 10
     fde:	50 e0       	ldi	r21, 0x00	; 0
     fe0:	63 ed       	ldi	r22, 0xD3	; 211
     fe2:	75 e0       	ldi	r23, 0x05	; 5
     fe4:	90 e0       	ldi	r25, 0x00	; 0
     fe6:	0e 94 d9 0b 	call	0x17b2	; 0x17b2 <itoa>
     fea:	fc 01       	movw	r30, r24
     fec:	c5 01       	movw	r24, r10
     fee:	b7 01       	movw	r22, r14
     ff0:	0e 94 4f 0b 	call	0x169e	; 0x169e <__divmodhi4>
     ff4:	28 2f       	mov	r18, r24
     ff6:	c6 01       	movw	r24, r12
     ff8:	b3 01       	movw	r22, r6
     ffa:	0e 94 4f 0b 	call	0x169e	; 0x169e <__divmodhi4>
     ffe:	48 2f       	mov	r20, r24
    1000:	c8 01       	movw	r24, r16
    1002:	b7 01       	movw	r22, r14
    1004:	0e 94 4f 0b 	call	0x169e	; 0x169e <__divmodhi4>
    1008:	03 e0       	ldi	r16, 0x03	; 3
    100a:	68 2f       	mov	r22, r24
    100c:	cf 01       	movw	r24, r30
    100e:	0e 94 0f 0b 	call	0x161e	; 0x161e <_Z18ST7789_PrintStringPccccc>
    1012:	63 e0       	ldi	r22, 0x03	; 3
    1014:	83 e8       	ldi	r24, 0x83	; 131
    1016:	90 e0       	ldi	r25, 0x00	; 0
    1018:	0e 94 31 0b 	call	0x1662	; 0x1662 <_Z18ST7789_PrintStringPcc>
    101c:	62 ed       	ldi	r22, 0xD2	; 210
    101e:	82 ed       	ldi	r24, 0xD2	; 210
    1020:	0e 94 14 0a 	call	0x1428	; 0x1428 <_Z15ST7789_SetXYposcc>
    1024:	0e 94 c9 0b 	call	0x1792	; 0x1792 <rand>
    1028:	5c 01       	movw	r10, r24
    102a:	0e 94 c9 0b 	call	0x1792	; 0x1792 <rand>
    102e:	6c 01       	movw	r12, r24
    1030:	0e 94 c9 0b 	call	0x1792	; 0x1792 <rand>
    1034:	8c 01       	movw	r16, r24
    1036:	80 91 7e 00 	lds	r24, 0x007E	; 0x80007e <update_sync_DS1307>
    103a:	4a e0       	ldi	r20, 0x0A	; 10
    103c:	50 e0       	ldi	r21, 0x00	; 0
    103e:	63 ed       	ldi	r22, 0xD3	; 211
    1040:	75 e0       	ldi	r23, 0x05	; 5
    1042:	90 e0       	ldi	r25, 0x00	; 0
    1044:	0e 94 d9 0b 	call	0x17b2	; 0x17b2 <itoa>
    1048:	fc 01       	movw	r30, r24
    104a:	c5 01       	movw	r24, r10
    104c:	b7 01       	movw	r22, r14
    104e:	0e 94 4f 0b 	call	0x169e	; 0x169e <__divmodhi4>
    1052:	28 2f       	mov	r18, r24
    1054:	c6 01       	movw	r24, r12
    1056:	b3 01       	movw	r22, r6
    1058:	0e 94 4f 0b 	call	0x169e	; 0x169e <__divmodhi4>
    105c:	48 2f       	mov	r20, r24
    105e:	c8 01       	movw	r24, r16
    1060:	b7 01       	movw	r22, r14
    1062:	0e 94 4f 0b 	call	0x169e	; 0x169e <__divmodhi4>
    1066:	03 e0       	ldi	r16, 0x03	; 3
    1068:	68 2f       	mov	r22, r24
    106a:	cf 01       	movw	r24, r30
    106c:	0e 94 0f 0b 	call	0x161e	; 0x161e <_Z18ST7789_PrintStringPccccc>
    1070:	f7 ca       	rjmp	.-2578   	; 0x660 <main+0xb2>

00001072 <__vector_1>:
    1072:	1f 92       	push	r1
    1074:	0f 92       	push	r0
    1076:	0f b6       	in	r0, 0x3f	; 63
    1078:	0f 92       	push	r0
    107a:	11 24       	eor	r1, r1
    107c:	2f 93       	push	r18
    107e:	8f 93       	push	r24
    1080:	9f 93       	push	r25
    1082:	ef 93       	push	r30
    1084:	ff 93       	push	r31
    1086:	f8 94       	cli
    1088:	2f ef       	ldi	r18, 0xFF	; 255
    108a:	8f e3       	ldi	r24, 0x3F	; 63
    108c:	92 e0       	ldi	r25, 0x02	; 2
    108e:	21 50       	subi	r18, 0x01	; 1
    1090:	80 40       	sbci	r24, 0x00	; 0
    1092:	90 40       	sbci	r25, 0x00	; 0
    1094:	e1 f7       	brne	.-8      	; 0x108e <__vector_1+0x1c>
    1096:	00 c0       	rjmp	.+0      	; 0x1098 <__vector_1+0x26>
    1098:	00 00       	nop
    109a:	8b e0       	ldi	r24, 0x0B	; 11
    109c:	99 b3       	in	r25, 0x19	; 25
    109e:	9e 3f       	cpi	r25, 0xFE	; 254
    10a0:	91 f0       	breq	.+36     	; 0x10c6 <__vector_1+0x54>
    10a2:	99 b3       	in	r25, 0x19	; 25
    10a4:	9d 3f       	cpi	r25, 0xFD	; 253
    10a6:	79 f0       	breq	.+30     	; 0x10c6 <__vector_1+0x54>
    10a8:	99 b3       	in	r25, 0x19	; 25
    10aa:	9b 3f       	cpi	r25, 0xFB	; 251
    10ac:	61 f0       	breq	.+24     	; 0x10c6 <__vector_1+0x54>
    10ae:	99 b3       	in	r25, 0x19	; 25
    10b0:	97 3f       	cpi	r25, 0xF7	; 247
    10b2:	49 f0       	breq	.+18     	; 0x10c6 <__vector_1+0x54>
    10b4:	ef ef       	ldi	r30, 0xFF	; 255
    10b6:	f7 e4       	ldi	r31, 0x47	; 71
    10b8:	31 97       	sbiw	r30, 0x01	; 1
    10ba:	f1 f7       	brne	.-4      	; 0x10b8 <__vector_1+0x46>
    10bc:	00 c0       	rjmp	.+0      	; 0x10be <__vector_1+0x4c>
    10be:	00 00       	nop
    10c0:	81 50       	subi	r24, 0x01	; 1
    10c2:	61 f7       	brne	.-40     	; 0x109c <__vector_1+0x2a>
    10c4:	16 c0       	rjmp	.+44     	; 0x10f2 <__vector_1+0x80>
    10c6:	89 b3       	in	r24, 0x19	; 25
    10c8:	8b 3f       	cpi	r24, 0xFB	; 251
    10ca:	49 f4       	brne	.+18     	; 0x10de <__vector_1+0x6c>
    10cc:	83 e0       	ldi	r24, 0x03	; 3
    10ce:	03 c0       	rjmp	.+6      	; 0x10d6 <__vector_1+0x64>
    10d0:	8e 3f       	cpi	r24, 0xFE	; 254
    10d2:	79 f4       	brne	.+30     	; 0x10f2 <__vector_1+0x80>
    10d4:	81 e0       	ldi	r24, 0x01	; 1
    10d6:	80 93 d0 05 	sts	0x05D0, r24	; 0x8005d0 <button>
    10da:	78 94       	sei
    10dc:	0a c0       	rjmp	.+20     	; 0x10f2 <__vector_1+0x80>
    10de:	8c 3f       	cpi	r24, 0xFC	; 252
    10e0:	20 f4       	brcc	.+8      	; 0x10ea <__vector_1+0x78>
    10e2:	87 3f       	cpi	r24, 0xF7	; 247
    10e4:	31 f4       	brne	.+12     	; 0x10f2 <__vector_1+0x80>
    10e6:	84 e0       	ldi	r24, 0x04	; 4
    10e8:	f6 cf       	rjmp	.-20     	; 0x10d6 <__vector_1+0x64>
    10ea:	8d 3f       	cpi	r24, 0xFD	; 253
    10ec:	89 f7       	brne	.-30     	; 0x10d0 <__vector_1+0x5e>
    10ee:	82 e0       	ldi	r24, 0x02	; 2
    10f0:	f2 cf       	rjmp	.-28     	; 0x10d6 <__vector_1+0x64>
    10f2:	ff 91       	pop	r31
    10f4:	ef 91       	pop	r30
    10f6:	9f 91       	pop	r25
    10f8:	8f 91       	pop	r24
    10fa:	2f 91       	pop	r18
    10fc:	0f 90       	pop	r0
    10fe:	0f be       	out	0x3f, r0	; 63
    1100:	0f 90       	pop	r0
    1102:	1f 90       	pop	r1
    1104:	18 95       	reti

00001106 <__vector_7>:
    1106:	1f 92       	push	r1
    1108:	0f 92       	push	r0
    110a:	0f b6       	in	r0, 0x3f	; 63
    110c:	0f 92       	push	r0
    110e:	11 24       	eor	r1, r1
    1110:	2f 93       	push	r18
    1112:	3f 93       	push	r19
    1114:	4f 93       	push	r20
    1116:	5f 93       	push	r21
    1118:	6f 93       	push	r22
    111a:	7f 93       	push	r23
    111c:	8f 93       	push	r24
    111e:	9f 93       	push	r25
    1120:	af 93       	push	r26
    1122:	bf 93       	push	r27
    1124:	ef 93       	push	r30
    1126:	ff 93       	push	r31
    1128:	f8 94       	cli
    112a:	80 91 6c 00 	lds	r24, 0x006C	; 0x80006c <time>
    112e:	8f 5f       	subi	r24, 0xFF	; 255
    1130:	80 93 6c 00 	sts	0x006C, r24	; 0x80006c <time>
    1134:	90 91 cf 05 	lds	r25, 0x05CF	; 0x8005cf <mode>
    1138:	91 50       	subi	r25, 0x01	; 1
    113a:	93 30       	cpi	r25, 0x03	; 3
    113c:	30 f0       	brcs	.+12     	; 0x114a <__vector_7+0x44>
    113e:	91 e0       	ldi	r25, 0x01	; 1
    1140:	90 93 7d 00 	sts	0x007D, r25	; 0x80007d <update_second>
    1144:	8c 33       	cpi	r24, 0x3C	; 60
    1146:	70 f4       	brcc	.+28     	; 0x1164 <__vector_7+0x5e>
    1148:	25 c0       	rjmp	.+74     	; 0x1194 <__vector_7+0x8e>
    114a:	8c 33       	cpi	r24, 0x3C	; 60
    114c:	18 f1       	brcs	.+70     	; 0x1194 <__vector_7+0x8e>
    114e:	10 92 6c 00 	sts	0x006C, r1	; 0x80006c <time>
    1152:	80 91 6d 00 	lds	r24, 0x006D	; 0x80006d <time+0x1>
    1156:	8f 5f       	subi	r24, 0xFF	; 255
    1158:	80 93 6d 00 	sts	0x006D, r24	; 0x80006d <time+0x1>
    115c:	8c 33       	cpi	r24, 0x3C	; 60
    115e:	08 f0       	brcs	.+2      	; 0x1162 <__vector_7+0x5c>
    1160:	47 c0       	rjmp	.+142    	; 0x11f0 <__vector_7+0xea>
    1162:	1c c0       	rjmp	.+56     	; 0x119c <__vector_7+0x96>
    1164:	10 92 6c 00 	sts	0x006C, r1	; 0x80006c <time>
    1168:	80 91 6d 00 	lds	r24, 0x006D	; 0x80006d <time+0x1>
    116c:	8f 5f       	subi	r24, 0xFF	; 255
    116e:	80 93 6d 00 	sts	0x006D, r24	; 0x80006d <time+0x1>
    1172:	90 93 7c 00 	sts	0x007C, r25	; 0x80007c <update_minute>
    1176:	8c 33       	cpi	r24, 0x3C	; 60
    1178:	68 f0       	brcs	.+26     	; 0x1194 <__vector_7+0x8e>
    117a:	10 92 6d 00 	sts	0x006D, r1	; 0x80006d <time+0x1>
    117e:	80 91 6e 00 	lds	r24, 0x006E	; 0x80006e <time+0x2>
    1182:	8f 5f       	subi	r24, 0xFF	; 255
    1184:	80 93 6e 00 	sts	0x006E, r24	; 0x80006e <time+0x2>
    1188:	90 93 7b 00 	sts	0x007B, r25	; 0x80007b <update_hour>
    118c:	88 31       	cpi	r24, 0x18	; 24
    118e:	10 f0       	brcs	.+4      	; 0x1194 <__vector_7+0x8e>
    1190:	10 92 6e 00 	sts	0x006E, r1	; 0x80006e <time+0x2>
    1194:	80 91 6c 00 	lds	r24, 0x006C	; 0x80006c <time>
    1198:	81 11       	cpse	r24, r1
    119a:	0e c0       	rjmp	.+28     	; 0x11b8 <__vector_7+0xb2>
    119c:	80 91 6d 00 	lds	r24, 0x006D	; 0x80006d <time+0x1>
    11a0:	81 11       	cpse	r24, r1
    11a2:	0a c0       	rjmp	.+20     	; 0x11b8 <__vector_7+0xb2>
    11a4:	80 91 7e 00 	lds	r24, 0x007E	; 0x80007e <update_sync_DS1307>
    11a8:	88 23       	and	r24, r24
    11aa:	31 f0       	breq	.+12     	; 0x11b8 <__vector_7+0xb2>
    11ac:	10 92 7e 00 	sts	0x007E, r1	; 0x80007e <update_sync_DS1307>
    11b0:	8c e6       	ldi	r24, 0x6C	; 108
    11b2:	90 e0       	ldi	r25, 0x00	; 0
    11b4:	0e 94 d0 00 	call	0x1a0	; 0x1a0 <_Z15DS1307_ReadTimePc>
    11b8:	80 91 6c 00 	lds	r24, 0x006C	; 0x80006c <time>
    11bc:	81 11       	cpse	r24, r1
    11be:	06 c0       	rjmp	.+12     	; 0x11cc <__vector_7+0xc6>
    11c0:	80 91 6d 00 	lds	r24, 0x006D	; 0x80006d <time+0x1>
    11c4:	81 30       	cpi	r24, 0x01	; 1
    11c6:	11 f4       	brne	.+4      	; 0x11cc <__vector_7+0xc6>
    11c8:	80 93 7e 00 	sts	0x007E, r24	; 0x80007e <update_sync_DS1307>
    11cc:	78 94       	sei
    11ce:	ff 91       	pop	r31
    11d0:	ef 91       	pop	r30
    11d2:	bf 91       	pop	r27
    11d4:	af 91       	pop	r26
    11d6:	9f 91       	pop	r25
    11d8:	8f 91       	pop	r24
    11da:	7f 91       	pop	r23
    11dc:	6f 91       	pop	r22
    11de:	5f 91       	pop	r21
    11e0:	4f 91       	pop	r20
    11e2:	3f 91       	pop	r19
    11e4:	2f 91       	pop	r18
    11e6:	0f 90       	pop	r0
    11e8:	0f be       	out	0x3f, r0	; 63
    11ea:	0f 90       	pop	r0
    11ec:	1f 90       	pop	r1
    11ee:	18 95       	reti
    11f0:	10 92 6d 00 	sts	0x006D, r1	; 0x80006d <time+0x1>
    11f4:	80 91 6e 00 	lds	r24, 0x006E	; 0x80006e <time+0x2>
    11f8:	8f 5f       	subi	r24, 0xFF	; 255
    11fa:	80 93 6e 00 	sts	0x006E, r24	; 0x80006e <time+0x2>
    11fe:	c6 cf       	rjmp	.-116    	; 0x118c <__vector_7+0x86>

00001200 <_GLOBAL__sub_I_itoa_temp>:
    1200:	ec ec       	ldi	r30, 0xCC	; 204
    1202:	f5 e0       	ldi	r31, 0x05	; 5
    1204:	ac e6       	ldi	r26, 0x6C	; 108
    1206:	b0 e0       	ldi	r27, 0x00	; 0
    1208:	8c 91       	ld	r24, X
    120a:	80 83       	st	Z, r24
    120c:	11 96       	adiw	r26, 0x01	; 1
    120e:	8c 91       	ld	r24, X
    1210:	11 97       	sbiw	r26, 0x01	; 1
    1212:	81 83       	std	Z+1, r24	; 0x01
    1214:	12 96       	adiw	r26, 0x02	; 2
    1216:	8c 91       	ld	r24, X
    1218:	82 83       	std	Z+2, r24	; 0x02
    121a:	08 95       	ret

0000121c <_Z4Sendc>:
    121c:	8f b9       	out	0x0f, r24	; 15
    121e:	77 9b       	sbis	0x0e, 7	; 14
    1220:	fe cf       	rjmp	.-4      	; 0x121e <_Z4Sendc+0x2>
    1222:	08 95       	ret

00001224 <_Z20ST7789_DrawRectangleccccccc.part.0>:
    1224:	cf 92       	push	r12
    1226:	df 92       	push	r13
    1228:	ef 92       	push	r14
    122a:	ff 92       	push	r15
    122c:	0f 93       	push	r16
    122e:	1f 93       	push	r17
    1230:	cf 93       	push	r28
    1232:	df 93       	push	r29
    1234:	18 2f       	mov	r17, r24
    1236:	d6 2f       	mov	r29, r22
    1238:	c4 2f       	mov	r28, r20
    123a:	f2 2e       	mov	r15, r18
    123c:	aa 98       	cbi	0x15, 2	; 21
    123e:	8a e2       	ldi	r24, 0x2A	; 42
    1240:	0e 94 0e 09 	call	0x121c	; 0x121c <_Z4Sendc>
    1244:	aa 9a       	sbi	0x15, 2	; 21
    1246:	80 e0       	ldi	r24, 0x00	; 0
    1248:	0e 94 0e 09 	call	0x121c	; 0x121c <_Z4Sendc>
    124c:	81 2f       	mov	r24, r17
    124e:	0e 94 0e 09 	call	0x121c	; 0x121c <_Z4Sendc>
    1252:	8c 2f       	mov	r24, r28
    1254:	90 e0       	ldi	r25, 0x00	; 0
    1256:	81 0f       	add	r24, r17
    1258:	91 1d       	adc	r25, r1
    125a:	01 97       	sbiw	r24, 0x01	; 1
    125c:	89 2f       	mov	r24, r25
    125e:	0e 94 0e 09 	call	0x121c	; 0x121c <_Z4Sendc>
    1262:	8f ef       	ldi	r24, 0xFF	; 255
    1264:	8c 0f       	add	r24, r28
    1266:	81 0f       	add	r24, r17
    1268:	0e 94 0e 09 	call	0x121c	; 0x121c <_Z4Sendc>
    126c:	aa 98       	cbi	0x15, 2	; 21
    126e:	8b e2       	ldi	r24, 0x2B	; 43
    1270:	0e 94 0e 09 	call	0x121c	; 0x121c <_Z4Sendc>
    1274:	aa 9a       	sbi	0x15, 2	; 21
    1276:	80 e0       	ldi	r24, 0x00	; 0
    1278:	0e 94 0e 09 	call	0x121c	; 0x121c <_Z4Sendc>
    127c:	8d 2f       	mov	r24, r29
    127e:	0e 94 0e 09 	call	0x121c	; 0x121c <_Z4Sendc>
    1282:	8f 2d       	mov	r24, r15
    1284:	90 e0       	ldi	r25, 0x00	; 0
    1286:	8d 0f       	add	r24, r29
    1288:	91 1d       	adc	r25, r1
    128a:	01 97       	sbiw	r24, 0x01	; 1
    128c:	89 2f       	mov	r24, r25
    128e:	0e 94 0e 09 	call	0x121c	; 0x121c <_Z4Sendc>
    1292:	8f ef       	ldi	r24, 0xFF	; 255
    1294:	8f 0d       	add	r24, r15
    1296:	8d 0f       	add	r24, r29
    1298:	0e 94 0e 09 	call	0x121c	; 0x121c <_Z4Sendc>
    129c:	aa 98       	cbi	0x15, 2	; 21
    129e:	8c e2       	ldi	r24, 0x2C	; 44
    12a0:	0e 94 0e 09 	call	0x121c	; 0x121c <_Z4Sendc>
    12a4:	aa 9a       	sbi	0x15, 2	; 21
    12a6:	cf 9d       	mul	r28, r15
    12a8:	e0 01       	movw	r28, r0
    12aa:	11 24       	eor	r1, r1
    12ac:	f1 2c       	mov	r15, r1
    12ae:	88 e0       	ldi	r24, 0x08	; 8
    12b0:	08 9f       	mul	r16, r24
    12b2:	80 01       	movw	r16, r0
    12b4:	11 24       	eor	r1, r1
    12b6:	c7 01       	movw	r24, r14
    12b8:	23 e0       	ldi	r18, 0x03	; 3
    12ba:	95 95       	asr	r25
    12bc:	87 95       	ror	r24
    12be:	2a 95       	dec	r18
    12c0:	e1 f7       	brne	.-8      	; 0x12ba <_Z20ST7789_DrawRectangleccccccc.part.0+0x96>
    12c2:	08 2b       	or	r16, r24
    12c4:	35 e0       	ldi	r19, 0x05	; 5
    12c6:	ee 0c       	add	r14, r14
    12c8:	ff 1c       	adc	r15, r15
    12ca:	3a 95       	dec	r19
    12cc:	e1 f7       	brne	.-8      	; 0x12c6 <_Z20ST7789_DrawRectangleccccccc.part.0+0xa2>
    12ce:	ec 28       	or	r14, r12
    12d0:	c1 2c       	mov	r12, r1
    12d2:	d1 2c       	mov	r13, r1
    12d4:	cc 15       	cp	r28, r12
    12d6:	dd 05       	cpc	r29, r13
    12d8:	51 f0       	breq	.+20     	; 0x12ee <_Z20ST7789_DrawRectangleccccccc.part.0+0xca>
    12da:	80 2f       	mov	r24, r16
    12dc:	0e 94 0e 09 	call	0x121c	; 0x121c <_Z4Sendc>
    12e0:	8e 2d       	mov	r24, r14
    12e2:	0e 94 0e 09 	call	0x121c	; 0x121c <_Z4Sendc>
    12e6:	8f ef       	ldi	r24, 0xFF	; 255
    12e8:	c8 1a       	sub	r12, r24
    12ea:	d8 0a       	sbc	r13, r24
    12ec:	f3 cf       	rjmp	.-26     	; 0x12d4 <_Z20ST7789_DrawRectangleccccccc.part.0+0xb0>
    12ee:	df 91       	pop	r29
    12f0:	cf 91       	pop	r28
    12f2:	1f 91       	pop	r17
    12f4:	0f 91       	pop	r16
    12f6:	ff 90       	pop	r15
    12f8:	ef 90       	pop	r14
    12fa:	df 90       	pop	r13
    12fc:	cf 90       	pop	r12
    12fe:	08 95       	ret

00001300 <_Z8SendDatac>:
    1300:	aa 9a       	sbi	0x15, 2	; 21
    1302:	8f b9       	out	0x0f, r24	; 15
    1304:	77 9b       	sbis	0x0e, 7	; 14
    1306:	fe cf       	rjmp	.-4      	; 0x1304 <_Z8SendDatac+0x4>
    1308:	08 95       	ret

0000130a <_Z11SendCommandc>:
    130a:	aa 98       	cbi	0x15, 2	; 21
    130c:	8f b9       	out	0x0f, r24	; 15
    130e:	77 9b       	sbis	0x0e, 7	; 14
    1310:	fe cf       	rjmp	.-4      	; 0x130e <_Z11SendCommandc+0x4>
    1312:	08 95       	ret

00001314 <_Z14ST7789_InitSPIv>:
    1314:	87 b3       	in	r24, 0x17	; 23
    1316:	80 6b       	ori	r24, 0xB0	; 176
    1318:	87 bb       	out	0x17, r24	; 23
    131a:	88 b3       	in	r24, 0x18	; 24
    131c:	80 6f       	ori	r24, 0xF0	; 240
    131e:	88 bb       	out	0x18, r24	; 24
    1320:	8c e5       	ldi	r24, 0x5C	; 92
    1322:	8d b9       	out	0x0d, r24	; 13
    1324:	1e b8       	out	0x0e, r1	; 14
    1326:	a3 9a       	sbi	0x14, 3	; 20
    1328:	ab 9a       	sbi	0x15, 3	; 21
    132a:	a2 9a       	sbi	0x14, 2	; 20
    132c:	aa 9a       	sbi	0x15, 2	; 21
    132e:	08 95       	ret

00001330 <_Z17ST7789_InitST7789v>:
    1330:	ab 9a       	sbi	0x15, 3	; 21
    1332:	81 ee       	ldi	r24, 0xE1	; 225
    1334:	94 e0       	ldi	r25, 0x04	; 4
    1336:	01 97       	sbiw	r24, 0x01	; 1
    1338:	f1 f7       	brne	.-4      	; 0x1336 <_Z17ST7789_InitST7789v+0x6>
    133a:	00 c0       	rjmp	.+0      	; 0x133c <_Z17ST7789_InitST7789v+0xc>
    133c:	00 00       	nop
    133e:	ab 98       	cbi	0x15, 3	; 21
    1340:	81 ee       	ldi	r24, 0xE1	; 225
    1342:	94 e0       	ldi	r25, 0x04	; 4
    1344:	01 97       	sbiw	r24, 0x01	; 1
    1346:	f1 f7       	brne	.-4      	; 0x1344 <_Z17ST7789_InitST7789v+0x14>
    1348:	00 c0       	rjmp	.+0      	; 0x134a <_Z17ST7789_InitST7789v+0x1a>
    134a:	00 00       	nop
    134c:	ab 9a       	sbi	0x15, 3	; 21
    134e:	81 ee       	ldi	r24, 0xE1	; 225
    1350:	94 e0       	ldi	r25, 0x04	; 4
    1352:	01 97       	sbiw	r24, 0x01	; 1
    1354:	f1 f7       	brne	.-4      	; 0x1352 <_Z17ST7789_InitST7789v+0x22>
    1356:	00 c0       	rjmp	.+0      	; 0x1358 <_Z17ST7789_InitST7789v+0x28>
    1358:	00 00       	nop
    135a:	81 e0       	ldi	r24, 0x01	; 1
    135c:	0e 94 85 09 	call	0x130a	; 0x130a <_Z11SendCommandc>
    1360:	83 ec       	ldi	r24, 0xC3	; 195
    1362:	99 e0       	ldi	r25, 0x09	; 9
    1364:	01 97       	sbiw	r24, 0x01	; 1
    1366:	f1 f7       	brne	.-4      	; 0x1364 <_Z17ST7789_InitST7789v+0x34>
    1368:	00 c0       	rjmp	.+0      	; 0x136a <_Z17ST7789_InitST7789v+0x3a>
    136a:	00 00       	nop
    136c:	81 e1       	ldi	r24, 0x11	; 17
    136e:	0e 94 85 09 	call	0x130a	; 0x130a <_Z11SendCommandc>
    1372:	83 ec       	ldi	r24, 0xC3	; 195
    1374:	99 e0       	ldi	r25, 0x09	; 9
    1376:	01 97       	sbiw	r24, 0x01	; 1
    1378:	f1 f7       	brne	.-4      	; 0x1376 <_Z17ST7789_InitST7789v+0x46>
    137a:	00 c0       	rjmp	.+0      	; 0x137c <_Z17ST7789_InitST7789v+0x4c>
    137c:	00 00       	nop
    137e:	8a e3       	ldi	r24, 0x3A	; 58
    1380:	0e 94 85 09 	call	0x130a	; 0x130a <_Z11SendCommandc>
    1384:	85 e0       	ldi	r24, 0x05	; 5
    1386:	0e 94 80 09 	call	0x1300	; 0x1300 <_Z8SendDatac>
    138a:	83 ec       	ldi	r24, 0xC3	; 195
    138c:	99 e0       	ldi	r25, 0x09	; 9
    138e:	01 97       	sbiw	r24, 0x01	; 1
    1390:	f1 f7       	brne	.-4      	; 0x138e <_Z17ST7789_InitST7789v+0x5e>
    1392:	00 c0       	rjmp	.+0      	; 0x1394 <_Z17ST7789_InitST7789v+0x64>
    1394:	00 00       	nop
    1396:	86 e3       	ldi	r24, 0x36	; 54
    1398:	0e 94 85 09 	call	0x130a	; 0x130a <_Z11SendCommandc>
    139c:	80 e0       	ldi	r24, 0x00	; 0
    139e:	0e 94 80 09 	call	0x1300	; 0x1300 <_Z8SendDatac>
    13a2:	83 ec       	ldi	r24, 0xC3	; 195
    13a4:	99 e0       	ldi	r25, 0x09	; 9
    13a6:	01 97       	sbiw	r24, 0x01	; 1
    13a8:	f1 f7       	brne	.-4      	; 0x13a6 <_Z17ST7789_InitST7789v+0x76>
    13aa:	00 c0       	rjmp	.+0      	; 0x13ac <_Z17ST7789_InitST7789v+0x7c>
    13ac:	00 00       	nop
    13ae:	8a e2       	ldi	r24, 0x2A	; 42
    13b0:	0e 94 85 09 	call	0x130a	; 0x130a <_Z11SendCommandc>
    13b4:	80 e0       	ldi	r24, 0x00	; 0
    13b6:	0e 94 80 09 	call	0x1300	; 0x1300 <_Z8SendDatac>
    13ba:	80 e0       	ldi	r24, 0x00	; 0
    13bc:	0e 94 80 09 	call	0x1300	; 0x1300 <_Z8SendDatac>
    13c0:	80 e0       	ldi	r24, 0x00	; 0
    13c2:	0e 94 80 09 	call	0x1300	; 0x1300 <_Z8SendDatac>
    13c6:	80 ef       	ldi	r24, 0xF0	; 240
    13c8:	0e 94 80 09 	call	0x1300	; 0x1300 <_Z8SendDatac>
    13cc:	83 ec       	ldi	r24, 0xC3	; 195
    13ce:	99 e0       	ldi	r25, 0x09	; 9
    13d0:	01 97       	sbiw	r24, 0x01	; 1
    13d2:	f1 f7       	brne	.-4      	; 0x13d0 <_Z17ST7789_InitST7789v+0xa0>
    13d4:	00 c0       	rjmp	.+0      	; 0x13d6 <_Z17ST7789_InitST7789v+0xa6>
    13d6:	00 00       	nop
    13d8:	8b e2       	ldi	r24, 0x2B	; 43
    13da:	0e 94 85 09 	call	0x130a	; 0x130a <_Z11SendCommandc>
    13de:	80 e0       	ldi	r24, 0x00	; 0
    13e0:	0e 94 80 09 	call	0x1300	; 0x1300 <_Z8SendDatac>
    13e4:	80 e0       	ldi	r24, 0x00	; 0
    13e6:	0e 94 80 09 	call	0x1300	; 0x1300 <_Z8SendDatac>
    13ea:	80 e0       	ldi	r24, 0x00	; 0
    13ec:	0e 94 80 09 	call	0x1300	; 0x1300 <_Z8SendDatac>
    13f0:	80 ef       	ldi	r24, 0xF0	; 240
    13f2:	0e 94 80 09 	call	0x1300	; 0x1300 <_Z8SendDatac>
    13f6:	83 ec       	ldi	r24, 0xC3	; 195
    13f8:	99 e0       	ldi	r25, 0x09	; 9
    13fa:	01 97       	sbiw	r24, 0x01	; 1
    13fc:	f1 f7       	brne	.-4      	; 0x13fa <_Z17ST7789_InitST7789v+0xca>
    13fe:	00 c0       	rjmp	.+0      	; 0x1400 <_Z17ST7789_InitST7789v+0xd0>
    1400:	00 00       	nop
    1402:	81 e2       	ldi	r24, 0x21	; 33
    1404:	0e 94 85 09 	call	0x130a	; 0x130a <_Z11SendCommandc>
    1408:	83 ec       	ldi	r24, 0xC3	; 195
    140a:	99 e0       	ldi	r25, 0x09	; 9
    140c:	01 97       	sbiw	r24, 0x01	; 1
    140e:	f1 f7       	brne	.-4      	; 0x140c <_Z17ST7789_InitST7789v+0xdc>
    1410:	00 c0       	rjmp	.+0      	; 0x1412 <_Z17ST7789_InitST7789v+0xe2>
    1412:	00 00       	nop
    1414:	89 e2       	ldi	r24, 0x29	; 41
    1416:	0e 94 85 09 	call	0x130a	; 0x130a <_Z11SendCommandc>
    141a:	83 ec       	ldi	r24, 0xC3	; 195
    141c:	99 e0       	ldi	r25, 0x09	; 9
    141e:	01 97       	sbiw	r24, 0x01	; 1
    1420:	f1 f7       	brne	.-4      	; 0x141e <_Z17ST7789_InitST7789v+0xee>
    1422:	00 c0       	rjmp	.+0      	; 0x1424 <_Z17ST7789_InitST7789v+0xf4>
    1424:	00 00       	nop
    1426:	08 95       	ret

00001428 <_Z15ST7789_SetXYposcc>:
    1428:	80 93 dd 05 	sts	0x05DD, r24	; 0x8005dd <xpos>
    142c:	60 93 dc 05 	sts	0x05DC, r22	; 0x8005dc <ypos>
    1430:	08 95       	ret

00001432 <_Z20ST7789_DrawRectangleccccccc>:
    1432:	cf 92       	push	r12
    1434:	ef 92       	push	r14
    1436:	0f 93       	push	r16
    1438:	81 3f       	cpi	r24, 0xF1	; 241
    143a:	20 f4       	brcc	.+8      	; 0x1444 <_Z20ST7789_DrawRectangleccccccc+0x12>
    143c:	61 3f       	cpi	r22, 0xF1	; 241
    143e:	10 f4       	brcc	.+4      	; 0x1444 <_Z20ST7789_DrawRectangleccccccc+0x12>
    1440:	0e 94 12 09 	call	0x1224	; 0x1224 <_Z20ST7789_DrawRectangleccccccc.part.0>
    1444:	0f 91       	pop	r16
    1446:	ef 90       	pop	r14
    1448:	cf 90       	pop	r12
    144a:	08 95       	ret

0000144c <_Z17ST7789_FillScreen6colour>:
    144c:	cf 92       	push	r12
    144e:	ef 92       	push	r14
    1450:	0f 93       	push	r16
    1452:	c8 2e       	mov	r12, r24
    1454:	e7 2e       	mov	r14, r23
    1456:	06 2f       	mov	r16, r22
    1458:	20 ef       	ldi	r18, 0xF0	; 240
    145a:	40 ef       	ldi	r20, 0xF0	; 240
    145c:	60 e0       	ldi	r22, 0x00	; 0
    145e:	80 e0       	ldi	r24, 0x00	; 0
    1460:	0e 94 12 09 	call	0x1224	; 0x1224 <_Z20ST7789_DrawRectangleccccccc.part.0>
    1464:	0f 91       	pop	r16
    1466:	ef 90       	pop	r14
    1468:	cf 90       	pop	r12
    146a:	08 95       	ret

0000146c <_Z16ST7789_PrintCharcccccccc>:
    146c:	2f 92       	push	r2
    146e:	3f 92       	push	r3
    1470:	4f 92       	push	r4
    1472:	5f 92       	push	r5
    1474:	6f 92       	push	r6
    1476:	7f 92       	push	r7
    1478:	8f 92       	push	r8
    147a:	9f 92       	push	r9
    147c:	af 92       	push	r10
    147e:	bf 92       	push	r11
    1480:	cf 92       	push	r12
    1482:	df 92       	push	r13
    1484:	ef 92       	push	r14
    1486:	ff 92       	push	r15
    1488:	0f 93       	push	r16
    148a:	1f 93       	push	r17
    148c:	cf 93       	push	r28
    148e:	df 93       	push	r29
    1490:	00 d0       	rcall	.+0      	; 0x1492 <_Z16ST7789_PrintCharcccccccc+0x26>
    1492:	00 d0       	rcall	.+0      	; 0x1494 <_Z16ST7789_PrintCharcccccccc+0x28>
    1494:	00 d0       	rcall	.+0      	; 0x1496 <_Z16ST7789_PrintCharcccccccc+0x2a>
    1496:	cd b7       	in	r28, 0x3d	; 61
    1498:	de b7       	in	r29, 0x3e	; 62
    149a:	6b 83       	std	Y+3, r22	; 0x03
    149c:	4c 83       	std	Y+4, r20	; 0x04
    149e:	f2 2e       	mov	r15, r18
    14a0:	d0 2e       	mov	r13, r16
    14a2:	be 2c       	mov	r11, r14
    14a4:	3c 2c       	mov	r3, r12
    14a6:	90 91 dd 05 	lds	r25, 0x05DD	; 0x8005dd <xpos>
    14aa:	46 e0       	ldi	r20, 0x06	; 6
    14ac:	a4 9e       	mul	r10, r20
    14ae:	90 01       	movw	r18, r0
    14b0:	11 24       	eor	r1, r1
    14b2:	29 0f       	add	r18, r25
    14b4:	31 1d       	adc	r19, r1
    14b6:	1a 2d       	mov	r17, r10
    14b8:	11 0f       	add	r17, r17
    14ba:	11 0f       	add	r17, r17
    14bc:	11 0f       	add	r17, r17
    14be:	21 3f       	cpi	r18, 0xF1	; 241
    14c0:	31 05       	cpc	r19, r1
    14c2:	3c f0       	brlt	.+14     	; 0x14d2 <_Z16ST7789_PrintCharcccccccc+0x66>
    14c4:	10 92 dd 05 	sts	0x05DD, r1	; 0x8005dd <xpos>
    14c8:	90 91 dc 05 	lds	r25, 0x05DC	; 0x8005dc <ypos>
    14cc:	91 0f       	add	r25, r17
    14ce:	90 93 dc 05 	sts	0x05DC, r25	; 0x8005dc <ypos>
    14d2:	96 e0       	ldi	r25, 0x06	; 6
    14d4:	89 9f       	mul	r24, r25
    14d6:	30 01       	movw	r6, r0
    14d8:	11 24       	eor	r1, r1
    14da:	1e 82       	std	Y+6, r1	; 0x06
    14dc:	1d 82       	std	Y+5, r1	; 0x05
    14de:	44 24       	eor	r4, r4
    14e0:	43 94       	inc	r4
    14e2:	51 2c       	mov	r5, r1
    14e4:	8d 81       	ldd	r24, Y+5	; 0x05
    14e6:	9e 81       	ldd	r25, Y+6	; 0x06
    14e8:	86 0d       	add	r24, r6
    14ea:	97 1d       	adc	r25, r7
    14ec:	fc 01       	movw	r30, r24
    14ee:	e5 53       	subi	r30, 0x35	; 53
    14f0:	f0 40       	sbci	r31, 0x00	; 0
    14f2:	fa 83       	std	Y+2, r31	; 0x02
    14f4:	e9 83       	std	Y+1, r30	; 0x01
    14f6:	21 2c       	mov	r2, r1
    14f8:	87 e0       	ldi	r24, 0x07	; 7
    14fa:	88 2e       	mov	r8, r24
    14fc:	91 2c       	mov	r9, r1
    14fe:	e9 81       	ldd	r30, Y+1	; 0x01
    1500:	fa 81       	ldd	r31, Y+2	; 0x02
    1502:	80 81       	ld	r24, Z
    1504:	28 2f       	mov	r18, r24
    1506:	30 e0       	ldi	r19, 0x00	; 0
    1508:	c2 01       	movw	r24, r4
    150a:	08 2c       	mov	r0, r8
    150c:	02 c0       	rjmp	.+4      	; 0x1512 <_Z16ST7789_PrintCharcccccccc+0xa6>
    150e:	88 0f       	add	r24, r24
    1510:	99 1f       	adc	r25, r25
    1512:	0a 94       	dec	r0
    1514:	e2 f7       	brpl	.-8      	; 0x150e <_Z16ST7789_PrintCharcccccccc+0xa2>
    1516:	82 23       	and	r24, r18
    1518:	93 23       	and	r25, r19
    151a:	60 91 dc 05 	lds	r22, 0x05DC	; 0x8005dc <ypos>
    151e:	62 0d       	add	r22, r2
    1520:	89 2b       	or	r24, r25
    1522:	21 f0       	breq	.+8      	; 0x152c <_Z16ST7789_PrintCharcccccccc+0xc0>
    1524:	cf 2c       	mov	r12, r15
    1526:	ec 80       	ldd	r14, Y+4	; 0x04
    1528:	0b 81       	ldd	r16, Y+3	; 0x03
    152a:	03 c0       	rjmp	.+6      	; 0x1532 <_Z16ST7789_PrintCharcccccccc+0xc6>
    152c:	c3 2c       	mov	r12, r3
    152e:	eb 2c       	mov	r14, r11
    1530:	0d 2d       	mov	r16, r13
    1532:	2a 2d       	mov	r18, r10
    1534:	4a 2d       	mov	r20, r10
    1536:	80 91 dd 05 	lds	r24, 0x05DD	; 0x8005dd <xpos>
    153a:	0e 94 19 0a 	call	0x1432	; 0x1432 <_Z20ST7789_DrawRectangleccccccc>
    153e:	f1 e0       	ldi	r31, 0x01	; 1
    1540:	8f 1a       	sub	r8, r31
    1542:	91 08       	sbc	r9, r1
    1544:	2a 0c       	add	r2, r10
    1546:	2f ef       	ldi	r18, 0xFF	; 255
    1548:	82 16       	cp	r8, r18
    154a:	92 06       	cpc	r9, r18
    154c:	c1 f6       	brne	.-80     	; 0x14fe <_Z16ST7789_PrintCharcccccccc+0x92>
    154e:	80 91 dd 05 	lds	r24, 0x05DD	; 0x8005dd <xpos>
    1552:	8a 0d       	add	r24, r10
    1554:	80 3f       	cpi	r24, 0xF0	; 240
    1556:	18 f4       	brcc	.+6      	; 0x155e <_Z16ST7789_PrintCharcccccccc+0xf2>
    1558:	80 93 dd 05 	sts	0x05DD, r24	; 0x8005dd <xpos>
    155c:	07 c0       	rjmp	.+14     	; 0x156c <_Z16ST7789_PrintCharcccccccc+0x100>
    155e:	10 92 dd 05 	sts	0x05DD, r1	; 0x8005dd <xpos>
    1562:	80 91 dc 05 	lds	r24, 0x05DC	; 0x8005dc <ypos>
    1566:	81 0f       	add	r24, r17
    1568:	80 93 dc 05 	sts	0x05DC, r24	; 0x8005dc <ypos>
    156c:	80 91 dc 05 	lds	r24, 0x05DC	; 0x8005dc <ypos>
    1570:	80 3f       	cpi	r24, 0xF0	; 240
    1572:	20 f0       	brcs	.+8      	; 0x157c <_Z16ST7789_PrintCharcccccccc+0x110>
    1574:	10 92 dd 05 	sts	0x05DD, r1	; 0x8005dd <xpos>
    1578:	10 92 dc 05 	sts	0x05DC, r1	; 0x8005dc <ypos>
    157c:	8d 81       	ldd	r24, Y+5	; 0x05
    157e:	9e 81       	ldd	r25, Y+6	; 0x06
    1580:	01 96       	adiw	r24, 0x01	; 1
    1582:	9e 83       	std	Y+6, r25	; 0x06
    1584:	8d 83       	std	Y+5, r24	; 0x05
    1586:	06 97       	sbiw	r24, 0x06	; 6
    1588:	09 f0       	breq	.+2      	; 0x158c <_Z16ST7789_PrintCharcccccccc+0x120>
    158a:	ac cf       	rjmp	.-168    	; 0x14e4 <_Z16ST7789_PrintCharcccccccc+0x78>
    158c:	26 96       	adiw	r28, 0x06	; 6
    158e:	0f b6       	in	r0, 0x3f	; 63
    1590:	f8 94       	cli
    1592:	de bf       	out	0x3e, r29	; 62
    1594:	0f be       	out	0x3f, r0	; 63
    1596:	cd bf       	out	0x3d, r28	; 61
    1598:	df 91       	pop	r29
    159a:	cf 91       	pop	r28
    159c:	1f 91       	pop	r17
    159e:	0f 91       	pop	r16
    15a0:	ff 90       	pop	r15
    15a2:	ef 90       	pop	r14
    15a4:	df 90       	pop	r13
    15a6:	cf 90       	pop	r12
    15a8:	bf 90       	pop	r11
    15aa:	af 90       	pop	r10
    15ac:	9f 90       	pop	r9
    15ae:	8f 90       	pop	r8
    15b0:	7f 90       	pop	r7
    15b2:	6f 90       	pop	r6
    15b4:	5f 90       	pop	r5
    15b6:	4f 90       	pop	r4
    15b8:	3f 90       	pop	r3
    15ba:	2f 90       	pop	r2
    15bc:	08 95       	ret

000015be <_Z18ST7789_PrintStringPcccccccc>:
    15be:	7f 92       	push	r7
    15c0:	8f 92       	push	r8
    15c2:	9f 92       	push	r9
    15c4:	af 92       	push	r10
    15c6:	bf 92       	push	r11
    15c8:	cf 92       	push	r12
    15ca:	df 92       	push	r13
    15cc:	ef 92       	push	r14
    15ce:	ff 92       	push	r15
    15d0:	0f 93       	push	r16
    15d2:	1f 93       	push	r17
    15d4:	cf 93       	push	r28
    15d6:	df 93       	push	r29
    15d8:	16 2f       	mov	r17, r22
    15da:	f4 2e       	mov	r15, r20
    15dc:	d2 2e       	mov	r13, r18
    15de:	b0 2e       	mov	r11, r16
    15e0:	9e 2c       	mov	r9, r14
    15e2:	8c 2c       	mov	r8, r12
    15e4:	7a 2c       	mov	r7, r10
    15e6:	ec 01       	movw	r28, r24
    15e8:	89 91       	ld	r24, Y+
    15ea:	88 23       	and	r24, r24
    15ec:	51 f0       	breq	.+20     	; 0x1602 <_Z18ST7789_PrintStringPcccccccc+0x44>
    15ee:	a7 2c       	mov	r10, r7
    15f0:	c8 2c       	mov	r12, r8
    15f2:	e9 2c       	mov	r14, r9
    15f4:	0b 2d       	mov	r16, r11
    15f6:	2d 2d       	mov	r18, r13
    15f8:	4f 2d       	mov	r20, r15
    15fa:	61 2f       	mov	r22, r17
    15fc:	0e 94 36 0a 	call	0x146c	; 0x146c <_Z16ST7789_PrintCharcccccccc>
    1600:	f3 cf       	rjmp	.-26     	; 0x15e8 <_Z18ST7789_PrintStringPcccccccc+0x2a>
    1602:	df 91       	pop	r29
    1604:	cf 91       	pop	r28
    1606:	1f 91       	pop	r17
    1608:	0f 91       	pop	r16
    160a:	ff 90       	pop	r15
    160c:	ef 90       	pop	r14
    160e:	df 90       	pop	r13
    1610:	cf 90       	pop	r12
    1612:	bf 90       	pop	r11
    1614:	af 90       	pop	r10
    1616:	9f 90       	pop	r9
    1618:	8f 90       	pop	r8
    161a:	7f 90       	pop	r7
    161c:	08 95       	ret

0000161e <_Z18ST7789_PrintStringPccccc>:
    161e:	af 92       	push	r10
    1620:	cf 92       	push	r12
    1622:	ef 92       	push	r14
    1624:	0f 93       	push	r16
    1626:	a0 2e       	mov	r10, r16
    1628:	c1 2c       	mov	r12, r1
    162a:	e1 2c       	mov	r14, r1
    162c:	00 e0       	ldi	r16, 0x00	; 0
    162e:	0e 94 df 0a 	call	0x15be	; 0x15be <_Z18ST7789_PrintStringPcccccccc>
    1632:	0f 91       	pop	r16
    1634:	ef 90       	pop	r14
    1636:	cf 90       	pop	r12
    1638:	af 90       	pop	r10
    163a:	08 95       	ret

0000163c <_Z18ST7789_PrintStringPc6colourc>:
    163c:	af 92       	push	r10
    163e:	cf 92       	push	r12
    1640:	ef 92       	push	r14
    1642:	0f 93       	push	r16
    1644:	34 2f       	mov	r19, r20
    1646:	45 2f       	mov	r20, r21
    1648:	a2 2e       	mov	r10, r18
    164a:	c1 2c       	mov	r12, r1
    164c:	e1 2c       	mov	r14, r1
    164e:	00 e0       	ldi	r16, 0x00	; 0
    1650:	26 2f       	mov	r18, r22
    1652:	63 2f       	mov	r22, r19
    1654:	0e 94 df 0a 	call	0x15be	; 0x15be <_Z18ST7789_PrintStringPcccccccc>
    1658:	0f 91       	pop	r16
    165a:	ef 90       	pop	r14
    165c:	cf 90       	pop	r12
    165e:	af 90       	pop	r10
    1660:	08 95       	ret

00001662 <_Z18ST7789_PrintStringPcc>:
    1662:	af 92       	push	r10
    1664:	cf 92       	push	r12
    1666:	ef 92       	push	r14
    1668:	0f 93       	push	r16
    166a:	a6 2e       	mov	r10, r22
    166c:	c1 2c       	mov	r12, r1
    166e:	e1 2c       	mov	r14, r1
    1670:	00 e0       	ldi	r16, 0x00	; 0
    1672:	2f e1       	ldi	r18, 0x1F	; 31
    1674:	4d e3       	ldi	r20, 0x3D	; 61
    1676:	6f e1       	ldi	r22, 0x1F	; 31
    1678:	0e 94 df 0a 	call	0x15be	; 0x15be <_Z18ST7789_PrintStringPcccccccc>
    167c:	0f 91       	pop	r16
    167e:	ef 90       	pop	r14
    1680:	cf 90       	pop	r12
    1682:	af 90       	pop	r10
    1684:	08 95       	ret

00001686 <__udivmodqi4>:
    1686:	99 1b       	sub	r25, r25
    1688:	79 e0       	ldi	r23, 0x09	; 9
    168a:	04 c0       	rjmp	.+8      	; 0x1694 <__udivmodqi4_ep>

0000168c <__udivmodqi4_loop>:
    168c:	99 1f       	adc	r25, r25
    168e:	96 17       	cp	r25, r22
    1690:	08 f0       	brcs	.+2      	; 0x1694 <__udivmodqi4_ep>
    1692:	96 1b       	sub	r25, r22

00001694 <__udivmodqi4_ep>:
    1694:	88 1f       	adc	r24, r24
    1696:	7a 95       	dec	r23
    1698:	c9 f7       	brne	.-14     	; 0x168c <__udivmodqi4_loop>
    169a:	80 95       	com	r24
    169c:	08 95       	ret

0000169e <__divmodhi4>:
    169e:	97 fb       	bst	r25, 7
    16a0:	07 2e       	mov	r0, r23
    16a2:	16 f4       	brtc	.+4      	; 0x16a8 <__divmodhi4+0xa>
    16a4:	00 94       	com	r0
    16a6:	07 d0       	rcall	.+14     	; 0x16b6 <__divmodhi4_neg1>
    16a8:	77 fd       	sbrc	r23, 7
    16aa:	09 d0       	rcall	.+18     	; 0x16be <__divmodhi4_neg2>
    16ac:	0e 94 69 0b 	call	0x16d2	; 0x16d2 <__udivmodhi4>
    16b0:	07 fc       	sbrc	r0, 7
    16b2:	05 d0       	rcall	.+10     	; 0x16be <__divmodhi4_neg2>
    16b4:	3e f4       	brtc	.+14     	; 0x16c4 <__divmodhi4_exit>

000016b6 <__divmodhi4_neg1>:
    16b6:	90 95       	com	r25
    16b8:	81 95       	neg	r24
    16ba:	9f 4f       	sbci	r25, 0xFF	; 255
    16bc:	08 95       	ret

000016be <__divmodhi4_neg2>:
    16be:	70 95       	com	r23
    16c0:	61 95       	neg	r22
    16c2:	7f 4f       	sbci	r23, 0xFF	; 255

000016c4 <__divmodhi4_exit>:
    16c4:	08 95       	ret

000016c6 <__tablejump2__>:
    16c6:	ee 0f       	add	r30, r30
    16c8:	ff 1f       	adc	r31, r31
    16ca:	05 90       	lpm	r0, Z+
    16cc:	f4 91       	lpm	r31, Z
    16ce:	e0 2d       	mov	r30, r0
    16d0:	09 94       	ijmp

000016d2 <__udivmodhi4>:
    16d2:	aa 1b       	sub	r26, r26
    16d4:	bb 1b       	sub	r27, r27
    16d6:	51 e1       	ldi	r21, 0x11	; 17
    16d8:	07 c0       	rjmp	.+14     	; 0x16e8 <__udivmodhi4_ep>

000016da <__udivmodhi4_loop>:
    16da:	aa 1f       	adc	r26, r26
    16dc:	bb 1f       	adc	r27, r27
    16de:	a6 17       	cp	r26, r22
    16e0:	b7 07       	cpc	r27, r23
    16e2:	10 f0       	brcs	.+4      	; 0x16e8 <__udivmodhi4_ep>
    16e4:	a6 1b       	sub	r26, r22
    16e6:	b7 0b       	sbc	r27, r23

000016e8 <__udivmodhi4_ep>:
    16e8:	88 1f       	adc	r24, r24
    16ea:	99 1f       	adc	r25, r25
    16ec:	5a 95       	dec	r21
    16ee:	a9 f7       	brne	.-22     	; 0x16da <__udivmodhi4_loop>
    16f0:	80 95       	com	r24
    16f2:	90 95       	com	r25
    16f4:	bc 01       	movw	r22, r24
    16f6:	cd 01       	movw	r24, r26
    16f8:	08 95       	ret

000016fa <do_rand>:
    16fa:	8f 92       	push	r8
    16fc:	9f 92       	push	r9
    16fe:	af 92       	push	r10
    1700:	bf 92       	push	r11
    1702:	cf 92       	push	r12
    1704:	df 92       	push	r13
    1706:	ef 92       	push	r14
    1708:	ff 92       	push	r15
    170a:	cf 93       	push	r28
    170c:	df 93       	push	r29
    170e:	ec 01       	movw	r28, r24
    1710:	68 81       	ld	r22, Y
    1712:	79 81       	ldd	r23, Y+1	; 0x01
    1714:	8a 81       	ldd	r24, Y+2	; 0x02
    1716:	9b 81       	ldd	r25, Y+3	; 0x03
    1718:	61 15       	cp	r22, r1
    171a:	71 05       	cpc	r23, r1
    171c:	81 05       	cpc	r24, r1
    171e:	91 05       	cpc	r25, r1
    1720:	21 f4       	brne	.+8      	; 0x172a <do_rand+0x30>
    1722:	64 e2       	ldi	r22, 0x24	; 36
    1724:	79 ed       	ldi	r23, 0xD9	; 217
    1726:	8b e5       	ldi	r24, 0x5B	; 91
    1728:	97 e0       	ldi	r25, 0x07	; 7
    172a:	2d e1       	ldi	r18, 0x1D	; 29
    172c:	33 ef       	ldi	r19, 0xF3	; 243
    172e:	41 e0       	ldi	r20, 0x01	; 1
    1730:	50 e0       	ldi	r21, 0x00	; 0
    1732:	0e 94 19 0c 	call	0x1832	; 0x1832 <__divmodsi4>
    1736:	49 01       	movw	r8, r18
    1738:	5a 01       	movw	r10, r20
    173a:	9b 01       	movw	r18, r22
    173c:	ac 01       	movw	r20, r24
    173e:	a7 ea       	ldi	r26, 0xA7	; 167
    1740:	b1 e4       	ldi	r27, 0x41	; 65
    1742:	0e 94 38 0c 	call	0x1870	; 0x1870 <__muluhisi3>
    1746:	6b 01       	movw	r12, r22
    1748:	7c 01       	movw	r14, r24
    174a:	ac ee       	ldi	r26, 0xEC	; 236
    174c:	b4 ef       	ldi	r27, 0xF4	; 244
    174e:	a5 01       	movw	r20, r10
    1750:	94 01       	movw	r18, r8
    1752:	0e 94 46 0c 	call	0x188c	; 0x188c <__mulohisi3>
    1756:	dc 01       	movw	r26, r24
    1758:	cb 01       	movw	r24, r22
    175a:	8c 0d       	add	r24, r12
    175c:	9d 1d       	adc	r25, r13
    175e:	ae 1d       	adc	r26, r14
    1760:	bf 1d       	adc	r27, r15
    1762:	b7 ff       	sbrs	r27, 7
    1764:	03 c0       	rjmp	.+6      	; 0x176c <do_rand+0x72>
    1766:	01 97       	sbiw	r24, 0x01	; 1
    1768:	a1 09       	sbc	r26, r1
    176a:	b0 48       	sbci	r27, 0x80	; 128
    176c:	88 83       	st	Y, r24
    176e:	99 83       	std	Y+1, r25	; 0x01
    1770:	aa 83       	std	Y+2, r26	; 0x02
    1772:	bb 83       	std	Y+3, r27	; 0x03
    1774:	9f 77       	andi	r25, 0x7F	; 127
    1776:	df 91       	pop	r29
    1778:	cf 91       	pop	r28
    177a:	ff 90       	pop	r15
    177c:	ef 90       	pop	r14
    177e:	df 90       	pop	r13
    1780:	cf 90       	pop	r12
    1782:	bf 90       	pop	r11
    1784:	af 90       	pop	r10
    1786:	9f 90       	pop	r9
    1788:	8f 90       	pop	r8
    178a:	08 95       	ret

0000178c <rand_r>:
    178c:	0e 94 7d 0b 	call	0x16fa	; 0x16fa <do_rand>
    1790:	08 95       	ret

00001792 <rand>:
    1792:	80 e6       	ldi	r24, 0x60	; 96
    1794:	90 e0       	ldi	r25, 0x00	; 0
    1796:	0e 94 7d 0b 	call	0x16fa	; 0x16fa <do_rand>
    179a:	08 95       	ret

0000179c <srand>:
    179c:	a0 e0       	ldi	r26, 0x00	; 0
    179e:	b0 e0       	ldi	r27, 0x00	; 0
    17a0:	80 93 60 00 	sts	0x0060, r24	; 0x800060 <__DATA_REGION_ORIGIN__>
    17a4:	90 93 61 00 	sts	0x0061, r25	; 0x800061 <__DATA_REGION_ORIGIN__+0x1>
    17a8:	a0 93 62 00 	sts	0x0062, r26	; 0x800062 <__DATA_REGION_ORIGIN__+0x2>
    17ac:	b0 93 63 00 	sts	0x0063, r27	; 0x800063 <__DATA_REGION_ORIGIN__+0x3>
    17b0:	08 95       	ret

000017b2 <itoa>:
    17b2:	45 32       	cpi	r20, 0x25	; 37
    17b4:	51 05       	cpc	r21, r1
    17b6:	20 f4       	brcc	.+8      	; 0x17c0 <itoa+0xe>
    17b8:	42 30       	cpi	r20, 0x02	; 2
    17ba:	10 f0       	brcs	.+4      	; 0x17c0 <itoa+0xe>
    17bc:	0c 94 e4 0b 	jmp	0x17c8	; 0x17c8 <__itoa_ncheck>
    17c0:	fb 01       	movw	r30, r22
    17c2:	10 82       	st	Z, r1
    17c4:	cb 01       	movw	r24, r22
    17c6:	08 95       	ret

000017c8 <__itoa_ncheck>:
    17c8:	bb 27       	eor	r27, r27
    17ca:	4a 30       	cpi	r20, 0x0A	; 10
    17cc:	31 f4       	brne	.+12     	; 0x17da <__itoa_ncheck+0x12>
    17ce:	99 23       	and	r25, r25
    17d0:	22 f4       	brpl	.+8      	; 0x17da <__itoa_ncheck+0x12>
    17d2:	bd e2       	ldi	r27, 0x2D	; 45
    17d4:	90 95       	com	r25
    17d6:	81 95       	neg	r24
    17d8:	9f 4f       	sbci	r25, 0xFF	; 255
    17da:	0c 94 f0 0b 	jmp	0x17e0	; 0x17e0 <__utoa_common>

000017de <__utoa_ncheck>:
    17de:	bb 27       	eor	r27, r27

000017e0 <__utoa_common>:
    17e0:	fb 01       	movw	r30, r22
    17e2:	55 27       	eor	r21, r21
    17e4:	aa 27       	eor	r26, r26
    17e6:	88 0f       	add	r24, r24
    17e8:	99 1f       	adc	r25, r25
    17ea:	aa 1f       	adc	r26, r26
    17ec:	a4 17       	cp	r26, r20
    17ee:	10 f0       	brcs	.+4      	; 0x17f4 <__utoa_common+0x14>
    17f0:	a4 1b       	sub	r26, r20
    17f2:	83 95       	inc	r24
    17f4:	50 51       	subi	r21, 0x10	; 16
    17f6:	b9 f7       	brne	.-18     	; 0x17e6 <__utoa_common+0x6>
    17f8:	a0 5d       	subi	r26, 0xD0	; 208
    17fa:	aa 33       	cpi	r26, 0x3A	; 58
    17fc:	08 f0       	brcs	.+2      	; 0x1800 <__utoa_common+0x20>
    17fe:	a9 5d       	subi	r26, 0xD9	; 217
    1800:	a1 93       	st	Z+, r26
    1802:	00 97       	sbiw	r24, 0x00	; 0
    1804:	79 f7       	brne	.-34     	; 0x17e4 <__utoa_common+0x4>
    1806:	b1 11       	cpse	r27, r1
    1808:	b1 93       	st	Z+, r27
    180a:	11 92       	st	Z+, r1
    180c:	cb 01       	movw	r24, r22
    180e:	0c 94 09 0c 	jmp	0x1812	; 0x1812 <strrev>

00001812 <strrev>:
    1812:	dc 01       	movw	r26, r24
    1814:	fc 01       	movw	r30, r24
    1816:	67 2f       	mov	r22, r23
    1818:	71 91       	ld	r23, Z+
    181a:	77 23       	and	r23, r23
    181c:	e1 f7       	brne	.-8      	; 0x1816 <strrev+0x4>
    181e:	32 97       	sbiw	r30, 0x02	; 2
    1820:	04 c0       	rjmp	.+8      	; 0x182a <strrev+0x18>
    1822:	7c 91       	ld	r23, X
    1824:	6d 93       	st	X+, r22
    1826:	70 83       	st	Z, r23
    1828:	62 91       	ld	r22, -Z
    182a:	ae 17       	cp	r26, r30
    182c:	bf 07       	cpc	r27, r31
    182e:	c8 f3       	brcs	.-14     	; 0x1822 <strrev+0x10>
    1830:	08 95       	ret

00001832 <__divmodsi4>:
    1832:	05 2e       	mov	r0, r21
    1834:	97 fb       	bst	r25, 7
    1836:	1e f4       	brtc	.+6      	; 0x183e <__divmodsi4+0xc>
    1838:	00 94       	com	r0
    183a:	0e 94 30 0c 	call	0x1860	; 0x1860 <__negsi2>
    183e:	57 fd       	sbrc	r21, 7
    1840:	07 d0       	rcall	.+14     	; 0x1850 <__divmodsi4_neg2>
    1842:	0e 94 4b 0c 	call	0x1896	; 0x1896 <__udivmodsi4>
    1846:	07 fc       	sbrc	r0, 7
    1848:	03 d0       	rcall	.+6      	; 0x1850 <__divmodsi4_neg2>
    184a:	4e f4       	brtc	.+18     	; 0x185e <__divmodsi4_exit>
    184c:	0c 94 30 0c 	jmp	0x1860	; 0x1860 <__negsi2>

00001850 <__divmodsi4_neg2>:
    1850:	50 95       	com	r21
    1852:	40 95       	com	r20
    1854:	30 95       	com	r19
    1856:	21 95       	neg	r18
    1858:	3f 4f       	sbci	r19, 0xFF	; 255
    185a:	4f 4f       	sbci	r20, 0xFF	; 255
    185c:	5f 4f       	sbci	r21, 0xFF	; 255

0000185e <__divmodsi4_exit>:
    185e:	08 95       	ret

00001860 <__negsi2>:
    1860:	90 95       	com	r25
    1862:	80 95       	com	r24
    1864:	70 95       	com	r23
    1866:	61 95       	neg	r22
    1868:	7f 4f       	sbci	r23, 0xFF	; 255
    186a:	8f 4f       	sbci	r24, 0xFF	; 255
    186c:	9f 4f       	sbci	r25, 0xFF	; 255
    186e:	08 95       	ret

00001870 <__muluhisi3>:
    1870:	0e 94 6d 0c 	call	0x18da	; 0x18da <__umulhisi3>
    1874:	a5 9f       	mul	r26, r21
    1876:	90 0d       	add	r25, r0
    1878:	b4 9f       	mul	r27, r20
    187a:	90 0d       	add	r25, r0
    187c:	a4 9f       	mul	r26, r20
    187e:	80 0d       	add	r24, r0
    1880:	91 1d       	adc	r25, r1
    1882:	11 24       	eor	r1, r1
    1884:	08 95       	ret

00001886 <__mulshisi3>:
    1886:	b7 ff       	sbrs	r27, 7
    1888:	0c 94 38 0c 	jmp	0x1870	; 0x1870 <__muluhisi3>

0000188c <__mulohisi3>:
    188c:	0e 94 38 0c 	call	0x1870	; 0x1870 <__muluhisi3>
    1890:	82 1b       	sub	r24, r18
    1892:	93 0b       	sbc	r25, r19
    1894:	08 95       	ret

00001896 <__udivmodsi4>:
    1896:	a1 e2       	ldi	r26, 0x21	; 33
    1898:	1a 2e       	mov	r1, r26
    189a:	aa 1b       	sub	r26, r26
    189c:	bb 1b       	sub	r27, r27
    189e:	fd 01       	movw	r30, r26
    18a0:	0d c0       	rjmp	.+26     	; 0x18bc <__udivmodsi4_ep>

000018a2 <__udivmodsi4_loop>:
    18a2:	aa 1f       	adc	r26, r26
    18a4:	bb 1f       	adc	r27, r27
    18a6:	ee 1f       	adc	r30, r30
    18a8:	ff 1f       	adc	r31, r31
    18aa:	a2 17       	cp	r26, r18
    18ac:	b3 07       	cpc	r27, r19
    18ae:	e4 07       	cpc	r30, r20
    18b0:	f5 07       	cpc	r31, r21
    18b2:	20 f0       	brcs	.+8      	; 0x18bc <__udivmodsi4_ep>
    18b4:	a2 1b       	sub	r26, r18
    18b6:	b3 0b       	sbc	r27, r19
    18b8:	e4 0b       	sbc	r30, r20
    18ba:	f5 0b       	sbc	r31, r21

000018bc <__udivmodsi4_ep>:
    18bc:	66 1f       	adc	r22, r22
    18be:	77 1f       	adc	r23, r23
    18c0:	88 1f       	adc	r24, r24
    18c2:	99 1f       	adc	r25, r25
    18c4:	1a 94       	dec	r1
    18c6:	69 f7       	brne	.-38     	; 0x18a2 <__udivmodsi4_loop>
    18c8:	60 95       	com	r22
    18ca:	70 95       	com	r23
    18cc:	80 95       	com	r24
    18ce:	90 95       	com	r25
    18d0:	9b 01       	movw	r18, r22
    18d2:	ac 01       	movw	r20, r24
    18d4:	bd 01       	movw	r22, r26
    18d6:	cf 01       	movw	r24, r30
    18d8:	08 95       	ret

000018da <__umulhisi3>:
    18da:	a2 9f       	mul	r26, r18
    18dc:	b0 01       	movw	r22, r0
    18de:	b3 9f       	mul	r27, r19
    18e0:	c0 01       	movw	r24, r0
    18e2:	a3 9f       	mul	r26, r19
    18e4:	70 0d       	add	r23, r0
    18e6:	81 1d       	adc	r24, r1
    18e8:	11 24       	eor	r1, r1
    18ea:	91 1d       	adc	r25, r1
    18ec:	b2 9f       	mul	r27, r18
    18ee:	70 0d       	add	r23, r0
    18f0:	81 1d       	adc	r24, r1
    18f2:	11 24       	eor	r1, r1
    18f4:	91 1d       	adc	r25, r1
    18f6:	08 95       	ret

000018f8 <_exit>:
    18f8:	f8 94       	cli

000018fa <__stop_program>:
    18fa:	ff cf       	rjmp	.-2      	; 0x18fa <__stop_program>
