
LED_controller.elf:     file format elf32-avr

Sections:
Idx Name          Size      VMA       LMA       File off  Algn
  0 .text         00000552  00000000  00000000  00000094  2**1
                  CONTENTS, ALLOC, LOAD, READONLY, CODE
  1 .data         0000055e  00800060  00000552  000005e6  2**0
                  CONTENTS, ALLOC, LOAD, DATA
  2 .bss          00000002  008005be  008005be  00000b44  2**0
                  ALLOC
  3 .comment      00000030  00000000  00000000  00000b44  2**0
                  CONTENTS, READONLY
  4 .note.gnu.avr.deviceinfo 0000003c  00000000  00000000  00000b74  2**2
                  CONTENTS, READONLY
  5 .debug_info   000004e6  00000000  00000000  00000bb0  2**0
                  CONTENTS, READONLY, DEBUGGING
  6 .debug_abbrev 000004a3  00000000  00000000  00001096  2**0
                  CONTENTS, READONLY, DEBUGGING
  7 .debug_line   00000116  00000000  00000000  00001539  2**0
                  CONTENTS, READONLY, DEBUGGING
  8 .debug_str    00000196  00000000  00000000  0000164f  2**0
                  CONTENTS, READONLY, DEBUGGING

Disassembly of section .text:

00000000 <__vectors>:
   0:	0c 94 2a 00 	jmp	0x54	; 0x54 <__ctors_end>
   4:	0c 94 47 00 	jmp	0x8e	; 0x8e <__bad_interrupt>
   8:	0c 94 47 00 	jmp	0x8e	; 0x8e <__bad_interrupt>
   c:	0c 94 47 00 	jmp	0x8e	; 0x8e <__bad_interrupt>
  10:	0c 94 47 00 	jmp	0x8e	; 0x8e <__bad_interrupt>
  14:	0c 94 47 00 	jmp	0x8e	; 0x8e <__bad_interrupt>
  18:	0c 94 47 00 	jmp	0x8e	; 0x8e <__bad_interrupt>
  1c:	0c 94 47 00 	jmp	0x8e	; 0x8e <__bad_interrupt>
  20:	0c 94 47 00 	jmp	0x8e	; 0x8e <__bad_interrupt>
  24:	0c 94 47 00 	jmp	0x8e	; 0x8e <__bad_interrupt>
  28:	0c 94 47 00 	jmp	0x8e	; 0x8e <__bad_interrupt>
  2c:	0c 94 47 00 	jmp	0x8e	; 0x8e <__bad_interrupt>
  30:	0c 94 47 00 	jmp	0x8e	; 0x8e <__bad_interrupt>
  34:	0c 94 47 00 	jmp	0x8e	; 0x8e <__bad_interrupt>
  38:	0c 94 47 00 	jmp	0x8e	; 0x8e <__bad_interrupt>
  3c:	0c 94 47 00 	jmp	0x8e	; 0x8e <__bad_interrupt>
  40:	0c 94 47 00 	jmp	0x8e	; 0x8e <__bad_interrupt>
  44:	0c 94 47 00 	jmp	0x8e	; 0x8e <__bad_interrupt>
  48:	0c 94 47 00 	jmp	0x8e	; 0x8e <__bad_interrupt>
  4c:	0c 94 47 00 	jmp	0x8e	; 0x8e <__bad_interrupt>
  50:	0c 94 47 00 	jmp	0x8e	; 0x8e <__bad_interrupt>

00000054 <__ctors_end>:
  54:	11 24       	eor	r1, r1
  56:	1f be       	out	0x3f, r1	; 63
  58:	cf e5       	ldi	r28, 0x5F	; 95
  5a:	d8 e0       	ldi	r29, 0x08	; 8
  5c:	de bf       	out	0x3e, r29	; 62
  5e:	cd bf       	out	0x3d, r28	; 61

00000060 <__do_copy_data>:
  60:	15 e0       	ldi	r17, 0x05	; 5
  62:	a0 e6       	ldi	r26, 0x60	; 96
  64:	b0 e0       	ldi	r27, 0x00	; 0
  66:	e2 e5       	ldi	r30, 0x52	; 82
  68:	f5 e0       	ldi	r31, 0x05	; 5
  6a:	02 c0       	rjmp	.+4      	; 0x70 <__do_copy_data+0x10>
  6c:	05 90       	lpm	r0, Z+
  6e:	0d 92       	st	X+, r0
  70:	ae 3b       	cpi	r26, 0xBE	; 190
  72:	b1 07       	cpc	r27, r17
  74:	d9 f7       	brne	.-10     	; 0x6c <__do_copy_data+0xc>

00000076 <__do_clear_bss>:
  76:	25 e0       	ldi	r18, 0x05	; 5
  78:	ae eb       	ldi	r26, 0xBE	; 190
  7a:	b5 e0       	ldi	r27, 0x05	; 5
  7c:	01 c0       	rjmp	.+2      	; 0x80 <.do_clear_bss_start>

0000007e <.do_clear_bss_loop>:
  7e:	1d 92       	st	X+, r1

00000080 <.do_clear_bss_start>:
  80:	a0 3c       	cpi	r26, 0xC0	; 192
  82:	b2 07       	cpc	r27, r18
  84:	e1 f7       	brne	.-8      	; 0x7e <.do_clear_bss_loop>
  86:	0e 94 49 00 	call	0x92	; 0x92 <main>
  8a:	0c 94 a7 02 	jmp	0x54e	; 0x54e <_exit>

0000008e <__bad_interrupt>:
  8e:	0c 94 00 00 	jmp	0	; 0x0 <__vectors>

00000092 <main>:
  92:	2f ef       	ldi	r18, 0xFF	; 255
  94:	8f ef       	ldi	r24, 0xFF	; 255
  96:	98 e0       	ldi	r25, 0x08	; 8
  98:	21 50       	subi	r18, 0x01	; 1
  9a:	80 40       	sbci	r24, 0x00	; 0
  9c:	90 40       	sbci	r25, 0x00	; 0
  9e:	e1 f7       	brne	.-8      	; 0x98 <main+0x6>
  a0:	00 c0       	rjmp	.+0      	; 0xa2 <main+0x10>
  a2:	00 00       	nop
  a4:	0e 94 0b 01 	call	0x216	; 0x216 <_Z14ST7789_InitSPIv>
  a8:	0e 94 19 01 	call	0x232	; 0x232 <_Z17ST7789_InitST7789v>
  ac:	60 91 6e 00 	lds	r22, 0x006E	; 0x80006e <_ZL5BLACK>
  b0:	70 91 6f 00 	lds	r23, 0x006F	; 0x80006f <_ZL5BLACK+0x1>
  b4:	80 91 70 00 	lds	r24, 0x0070	; 0x800070 <_ZL5BLACK+0x2>
  b8:	0e 94 a0 01 	call	0x340	; 0x340 <_Z17ST7789_FillScreen6colour>
  bc:	c0 90 71 00 	lds	r12, 0x0071	; 0x800071 <_ZL5WHITE>
  c0:	d0 90 72 00 	lds	r13, 0x0072	; 0x800072 <_ZL5WHITE+0x1>
  c4:	e0 90 73 00 	lds	r14, 0x0073	; 0x800073 <_ZL5WHITE+0x2>
  c8:	80 91 74 00 	lds	r24, 0x0074	; 0x800074 <_ZL6YELLOW>
  cc:	90 91 75 00 	lds	r25, 0x0075	; 0x800075 <_ZL6YELLOW+0x1>
  d0:	a0 91 76 00 	lds	r26, 0x0076	; 0x800076 <_ZL6YELLOW+0x2>
  d4:	23 e0       	ldi	r18, 0x03	; 3
  d6:	a2 2e       	mov	r10, r18
  d8:	8c 01       	movw	r16, r24
  da:	2a 2f       	mov	r18, r26
  dc:	4e eb       	ldi	r20, 0xBE	; 190
  de:	55 e0       	ldi	r21, 0x05	; 5
  e0:	6f eb       	ldi	r22, 0xBF	; 191
  e2:	75 e0       	ldi	r23, 0x05	; 5
  e4:	80 e6       	ldi	r24, 0x60	; 96
  e6:	90 e0       	ldi	r25, 0x00	; 0
  e8:	0e 94 8e 02 	call	0x51c	; 0x51c <_Z18ST7789_PrintStringPcS_S_6colourS0_c>
  ec:	c0 90 7a 00 	lds	r12, 0x007A	; 0x80007a <_ZL3RED>
  f0:	d0 90 7b 00 	lds	r13, 0x007B	; 0x80007b <_ZL3RED+0x1>
  f4:	e0 90 7c 00 	lds	r14, 0x007C	; 0x80007c <_ZL3RED+0x2>
  f8:	80 91 77 00 	lds	r24, 0x0077	; 0x800077 <_ZL5GREEN>
  fc:	90 91 78 00 	lds	r25, 0x0078	; 0x800078 <_ZL5GREEN+0x1>
 100:	a0 91 79 00 	lds	r26, 0x0079	; 0x800079 <_ZL5GREEN+0x2>
 104:	8c 01       	movw	r16, r24
 106:	2a 2f       	mov	r18, r26
 108:	4e eb       	ldi	r20, 0xBE	; 190
 10a:	55 e0       	ldi	r21, 0x05	; 5
 10c:	6f eb       	ldi	r22, 0xBF	; 191
 10e:	75 e0       	ldi	r23, 0x05	; 5
 110:	87 e6       	ldi	r24, 0x67	; 103
 112:	90 e0       	ldi	r25, 0x00	; 0
 114:	0e 94 8e 02 	call	0x51c	; 0x51c <_Z18ST7789_PrintStringPcS_S_6colourS0_c>
 118:	ff cf       	rjmp	.-2      	; 0x118 <main+0x86>

0000011a <_Z4Sendc>:
 11a:	8f b9       	out	0x0f, r24	; 15
 11c:	77 9b       	sbis	0x0e, 7	; 14
 11e:	fe cf       	rjmp	.-4      	; 0x11c <_Z4Sendc+0x2>
 120:	08 95       	ret

00000122 <_Z17ST7789_DrawSquarecccccc.part.0>:
 122:	cf 92       	push	r12
 124:	df 92       	push	r13
 126:	ef 92       	push	r14
 128:	ff 92       	push	r15
 12a:	0f 93       	push	r16
 12c:	1f 93       	push	r17
 12e:	cf 93       	push	r28
 130:	df 93       	push	r29
 132:	18 2f       	mov	r17, r24
 134:	f6 2e       	mov	r15, r22
 136:	d4 2f       	mov	r29, r20
 138:	c2 2f       	mov	r28, r18
 13a:	aa 98       	cbi	0x15, 2	; 21
 13c:	8a e2       	ldi	r24, 0x2A	; 42
 13e:	0e 94 8d 00 	call	0x11a	; 0x11a <_Z4Sendc>
 142:	aa 9a       	sbi	0x15, 2	; 21
 144:	80 e0       	ldi	r24, 0x00	; 0
 146:	0e 94 8d 00 	call	0x11a	; 0x11a <_Z4Sendc>
 14a:	81 2f       	mov	r24, r17
 14c:	0e 94 8d 00 	call	0x11a	; 0x11a <_Z4Sendc>
 150:	ce 2c       	mov	r12, r14
 152:	d1 2c       	mov	r13, r1
 154:	c6 01       	movw	r24, r12
 156:	81 0f       	add	r24, r17
 158:	91 1d       	adc	r25, r1
 15a:	01 97       	sbiw	r24, 0x01	; 1
 15c:	89 2f       	mov	r24, r25
 15e:	0e 94 8d 00 	call	0x11a	; 0x11a <_Z4Sendc>
 162:	8f ef       	ldi	r24, 0xFF	; 255
 164:	8e 0d       	add	r24, r14
 166:	81 0f       	add	r24, r17
 168:	0e 94 8d 00 	call	0x11a	; 0x11a <_Z4Sendc>
 16c:	aa 98       	cbi	0x15, 2	; 21
 16e:	8b e2       	ldi	r24, 0x2B	; 43
 170:	0e 94 8d 00 	call	0x11a	; 0x11a <_Z4Sendc>
 174:	aa 9a       	sbi	0x15, 2	; 21
 176:	80 e0       	ldi	r24, 0x00	; 0
 178:	0e 94 8d 00 	call	0x11a	; 0x11a <_Z4Sendc>
 17c:	8f 2d       	mov	r24, r15
 17e:	0e 94 8d 00 	call	0x11a	; 0x11a <_Z4Sendc>
 182:	cf 0c       	add	r12, r15
 184:	d1 1c       	adc	r13, r1
 186:	81 e0       	ldi	r24, 0x01	; 1
 188:	c8 1a       	sub	r12, r24
 18a:	d1 08       	sbc	r13, r1
 18c:	8d 2d       	mov	r24, r13
 18e:	0e 94 8d 00 	call	0x11a	; 0x11a <_Z4Sendc>
 192:	8f ef       	ldi	r24, 0xFF	; 255
 194:	8f 0d       	add	r24, r15
 196:	8e 0d       	add	r24, r14
 198:	0e 94 8d 00 	call	0x11a	; 0x11a <_Z4Sendc>
 19c:	aa 98       	cbi	0x15, 2	; 21
 19e:	8c e2       	ldi	r24, 0x2C	; 44
 1a0:	0e 94 8d 00 	call	0x11a	; 0x11a <_Z4Sendc>
 1a4:	aa 9a       	sbi	0x15, 2	; 21
 1a6:	ee 9c       	mul	r14, r14
 1a8:	70 01       	movw	r14, r0
 1aa:	11 24       	eor	r1, r1
 1ac:	2c 2f       	mov	r18, r28
 1ae:	30 e0       	ldi	r19, 0x00	; 0
 1b0:	88 e0       	ldi	r24, 0x08	; 8
 1b2:	d8 9f       	mul	r29, r24
 1b4:	e0 01       	movw	r28, r0
 1b6:	11 24       	eor	r1, r1
 1b8:	c9 01       	movw	r24, r18
 1ba:	43 e0       	ldi	r20, 0x03	; 3
 1bc:	95 95       	asr	r25
 1be:	87 95       	ror	r24
 1c0:	4a 95       	dec	r20
 1c2:	e1 f7       	brne	.-8      	; 0x1bc <_Z17ST7789_DrawSquarecccccc.part.0+0x9a>
 1c4:	c8 2b       	or	r28, r24
 1c6:	55 e0       	ldi	r21, 0x05	; 5
 1c8:	22 0f       	add	r18, r18
 1ca:	33 1f       	adc	r19, r19
 1cc:	5a 95       	dec	r21
 1ce:	e1 f7       	brne	.-8      	; 0x1c8 <_Z17ST7789_DrawSquarecccccc.part.0+0xa6>
 1d0:	02 2b       	or	r16, r18
 1d2:	c1 2c       	mov	r12, r1
 1d4:	d1 2c       	mov	r13, r1
 1d6:	ec 14       	cp	r14, r12
 1d8:	fd 04       	cpc	r15, r13
 1da:	51 f0       	breq	.+20     	; 0x1f0 <_Z17ST7789_DrawSquarecccccc.part.0+0xce>
 1dc:	8c 2f       	mov	r24, r28
 1de:	0e 94 8d 00 	call	0x11a	; 0x11a <_Z4Sendc>
 1e2:	80 2f       	mov	r24, r16
 1e4:	0e 94 8d 00 	call	0x11a	; 0x11a <_Z4Sendc>
 1e8:	8f ef       	ldi	r24, 0xFF	; 255
 1ea:	c8 1a       	sub	r12, r24
 1ec:	d8 0a       	sbc	r13, r24
 1ee:	f3 cf       	rjmp	.-26     	; 0x1d6 <_Z17ST7789_DrawSquarecccccc.part.0+0xb4>
 1f0:	df 91       	pop	r29
 1f2:	cf 91       	pop	r28
 1f4:	1f 91       	pop	r17
 1f6:	0f 91       	pop	r16
 1f8:	ff 90       	pop	r15
 1fa:	ef 90       	pop	r14
 1fc:	df 90       	pop	r13
 1fe:	cf 90       	pop	r12
 200:	08 95       	ret

00000202 <_Z8SendDatac>:
 202:	aa 9a       	sbi	0x15, 2	; 21
 204:	8f b9       	out	0x0f, r24	; 15
 206:	77 9b       	sbis	0x0e, 7	; 14
 208:	fe cf       	rjmp	.-4      	; 0x206 <_Z8SendDatac+0x4>
 20a:	08 95       	ret

0000020c <_Z11SendCommandc>:
 20c:	aa 98       	cbi	0x15, 2	; 21
 20e:	8f b9       	out	0x0f, r24	; 15
 210:	77 9b       	sbis	0x0e, 7	; 14
 212:	fe cf       	rjmp	.-4      	; 0x210 <_Z11SendCommandc+0x4>
 214:	08 95       	ret

00000216 <_Z14ST7789_InitSPIv>:
 216:	87 b3       	in	r24, 0x17	; 23
 218:	80 6b       	ori	r24, 0xB0	; 176
 21a:	87 bb       	out	0x17, r24	; 23
 21c:	88 b3       	in	r24, 0x18	; 24
 21e:	80 6f       	ori	r24, 0xF0	; 240
 220:	88 bb       	out	0x18, r24	; 24
 222:	8c e5       	ldi	r24, 0x5C	; 92
 224:	8d b9       	out	0x0d, r24	; 13
 226:	1e b8       	out	0x0e, r1	; 14
 228:	a3 9a       	sbi	0x14, 3	; 20
 22a:	ab 9a       	sbi	0x15, 3	; 21
 22c:	a2 9a       	sbi	0x14, 2	; 20
 22e:	aa 9a       	sbi	0x15, 2	; 21
 230:	08 95       	ret

00000232 <_Z17ST7789_InitST7789v>:
 232:	ab 9a       	sbi	0x15, 3	; 21
 234:	81 ee       	ldi	r24, 0xE1	; 225
 236:	94 e0       	ldi	r25, 0x04	; 4
 238:	01 97       	sbiw	r24, 0x01	; 1
 23a:	f1 f7       	brne	.-4      	; 0x238 <_Z17ST7789_InitST7789v+0x6>
 23c:	00 c0       	rjmp	.+0      	; 0x23e <_Z17ST7789_InitST7789v+0xc>
 23e:	00 00       	nop
 240:	ab 98       	cbi	0x15, 3	; 21
 242:	81 ee       	ldi	r24, 0xE1	; 225
 244:	94 e0       	ldi	r25, 0x04	; 4
 246:	01 97       	sbiw	r24, 0x01	; 1
 248:	f1 f7       	brne	.-4      	; 0x246 <_Z17ST7789_InitST7789v+0x14>
 24a:	00 c0       	rjmp	.+0      	; 0x24c <_Z17ST7789_InitST7789v+0x1a>
 24c:	00 00       	nop
 24e:	ab 9a       	sbi	0x15, 3	; 21
 250:	81 ee       	ldi	r24, 0xE1	; 225
 252:	94 e0       	ldi	r25, 0x04	; 4
 254:	01 97       	sbiw	r24, 0x01	; 1
 256:	f1 f7       	brne	.-4      	; 0x254 <_Z17ST7789_InitST7789v+0x22>
 258:	00 c0       	rjmp	.+0      	; 0x25a <_Z17ST7789_InitST7789v+0x28>
 25a:	00 00       	nop
 25c:	81 e0       	ldi	r24, 0x01	; 1
 25e:	0e 94 06 01 	call	0x20c	; 0x20c <_Z11SendCommandc>
 262:	83 ec       	ldi	r24, 0xC3	; 195
 264:	99 e0       	ldi	r25, 0x09	; 9
 266:	01 97       	sbiw	r24, 0x01	; 1
 268:	f1 f7       	brne	.-4      	; 0x266 <_Z17ST7789_InitST7789v+0x34>
 26a:	00 c0       	rjmp	.+0      	; 0x26c <_Z17ST7789_InitST7789v+0x3a>
 26c:	00 00       	nop
 26e:	81 e1       	ldi	r24, 0x11	; 17
 270:	0e 94 06 01 	call	0x20c	; 0x20c <_Z11SendCommandc>
 274:	83 ec       	ldi	r24, 0xC3	; 195
 276:	99 e0       	ldi	r25, 0x09	; 9
 278:	01 97       	sbiw	r24, 0x01	; 1
 27a:	f1 f7       	brne	.-4      	; 0x278 <_Z17ST7789_InitST7789v+0x46>
 27c:	00 c0       	rjmp	.+0      	; 0x27e <_Z17ST7789_InitST7789v+0x4c>
 27e:	00 00       	nop
 280:	8a e3       	ldi	r24, 0x3A	; 58
 282:	0e 94 06 01 	call	0x20c	; 0x20c <_Z11SendCommandc>
 286:	85 e0       	ldi	r24, 0x05	; 5
 288:	0e 94 01 01 	call	0x202	; 0x202 <_Z8SendDatac>
 28c:	83 ec       	ldi	r24, 0xC3	; 195
 28e:	99 e0       	ldi	r25, 0x09	; 9
 290:	01 97       	sbiw	r24, 0x01	; 1
 292:	f1 f7       	brne	.-4      	; 0x290 <_Z17ST7789_InitST7789v+0x5e>
 294:	00 c0       	rjmp	.+0      	; 0x296 <_Z17ST7789_InitST7789v+0x64>
 296:	00 00       	nop
 298:	86 e3       	ldi	r24, 0x36	; 54
 29a:	0e 94 06 01 	call	0x20c	; 0x20c <_Z11SendCommandc>
 29e:	80 e0       	ldi	r24, 0x00	; 0
 2a0:	0e 94 01 01 	call	0x202	; 0x202 <_Z8SendDatac>
 2a4:	83 ec       	ldi	r24, 0xC3	; 195
 2a6:	99 e0       	ldi	r25, 0x09	; 9
 2a8:	01 97       	sbiw	r24, 0x01	; 1
 2aa:	f1 f7       	brne	.-4      	; 0x2a8 <_Z17ST7789_InitST7789v+0x76>
 2ac:	00 c0       	rjmp	.+0      	; 0x2ae <_Z17ST7789_InitST7789v+0x7c>
 2ae:	00 00       	nop
 2b0:	8a e2       	ldi	r24, 0x2A	; 42
 2b2:	0e 94 06 01 	call	0x20c	; 0x20c <_Z11SendCommandc>
 2b6:	80 e0       	ldi	r24, 0x00	; 0
 2b8:	0e 94 01 01 	call	0x202	; 0x202 <_Z8SendDatac>
 2bc:	80 e0       	ldi	r24, 0x00	; 0
 2be:	0e 94 01 01 	call	0x202	; 0x202 <_Z8SendDatac>
 2c2:	80 e0       	ldi	r24, 0x00	; 0
 2c4:	0e 94 01 01 	call	0x202	; 0x202 <_Z8SendDatac>
 2c8:	80 ef       	ldi	r24, 0xF0	; 240
 2ca:	0e 94 01 01 	call	0x202	; 0x202 <_Z8SendDatac>
 2ce:	83 ec       	ldi	r24, 0xC3	; 195
 2d0:	99 e0       	ldi	r25, 0x09	; 9
 2d2:	01 97       	sbiw	r24, 0x01	; 1
 2d4:	f1 f7       	brne	.-4      	; 0x2d2 <_Z17ST7789_InitST7789v+0xa0>
 2d6:	00 c0       	rjmp	.+0      	; 0x2d8 <_Z17ST7789_InitST7789v+0xa6>
 2d8:	00 00       	nop
 2da:	8b e2       	ldi	r24, 0x2B	; 43
 2dc:	0e 94 06 01 	call	0x20c	; 0x20c <_Z11SendCommandc>
 2e0:	80 e0       	ldi	r24, 0x00	; 0
 2e2:	0e 94 01 01 	call	0x202	; 0x202 <_Z8SendDatac>
 2e6:	80 e0       	ldi	r24, 0x00	; 0
 2e8:	0e 94 01 01 	call	0x202	; 0x202 <_Z8SendDatac>
 2ec:	80 e0       	ldi	r24, 0x00	; 0
 2ee:	0e 94 01 01 	call	0x202	; 0x202 <_Z8SendDatac>
 2f2:	80 ef       	ldi	r24, 0xF0	; 240
 2f4:	0e 94 01 01 	call	0x202	; 0x202 <_Z8SendDatac>
 2f8:	83 ec       	ldi	r24, 0xC3	; 195
 2fa:	99 e0       	ldi	r25, 0x09	; 9
 2fc:	01 97       	sbiw	r24, 0x01	; 1
 2fe:	f1 f7       	brne	.-4      	; 0x2fc <_Z17ST7789_InitST7789v+0xca>
 300:	00 c0       	rjmp	.+0      	; 0x302 <_Z17ST7789_InitST7789v+0xd0>
 302:	00 00       	nop
 304:	81 e2       	ldi	r24, 0x21	; 33
 306:	0e 94 06 01 	call	0x20c	; 0x20c <_Z11SendCommandc>
 30a:	83 ec       	ldi	r24, 0xC3	; 195
 30c:	99 e0       	ldi	r25, 0x09	; 9
 30e:	01 97       	sbiw	r24, 0x01	; 1
 310:	f1 f7       	brne	.-4      	; 0x30e <_Z17ST7789_InitST7789v+0xdc>
 312:	00 c0       	rjmp	.+0      	; 0x314 <_Z17ST7789_InitST7789v+0xe2>
 314:	00 00       	nop
 316:	89 e2       	ldi	r24, 0x29	; 41
 318:	0e 94 06 01 	call	0x20c	; 0x20c <_Z11SendCommandc>
 31c:	83 ec       	ldi	r24, 0xC3	; 195
 31e:	99 e0       	ldi	r25, 0x09	; 9
 320:	01 97       	sbiw	r24, 0x01	; 1
 322:	f1 f7       	brne	.-4      	; 0x320 <_Z17ST7789_InitST7789v+0xee>
 324:	00 c0       	rjmp	.+0      	; 0x326 <_Z17ST7789_InitST7789v+0xf4>
 326:	00 00       	nop
 328:	08 95       	ret

0000032a <_Z17ST7789_DrawSquarecccccc>:
 32a:	ef 92       	push	r14
 32c:	0f 93       	push	r16
 32e:	81 3f       	cpi	r24, 0xF1	; 241
 330:	20 f4       	brcc	.+8      	; 0x33a <_Z17ST7789_DrawSquarecccccc+0x10>
 332:	61 3f       	cpi	r22, 0xF1	; 241
 334:	10 f4       	brcc	.+4      	; 0x33a <_Z17ST7789_DrawSquarecccccc+0x10>
 336:	0e 94 91 00 	call	0x122	; 0x122 <_Z17ST7789_DrawSquarecccccc.part.0>
 33a:	0f 91       	pop	r16
 33c:	ef 90       	pop	r14
 33e:	08 95       	ret

00000340 <_Z17ST7789_FillScreen6colour>:
 340:	ef 92       	push	r14
 342:	0f 93       	push	r16
 344:	46 2f       	mov	r20, r22
 346:	27 2f       	mov	r18, r23
 348:	90 ef       	ldi	r25, 0xF0	; 240
 34a:	e9 2e       	mov	r14, r25
 34c:	08 2f       	mov	r16, r24
 34e:	60 e0       	ldi	r22, 0x00	; 0
 350:	80 e0       	ldi	r24, 0x00	; 0
 352:	0e 94 91 00 	call	0x122	; 0x122 <_Z17ST7789_DrawSquarecccccc.part.0>
 356:	0f 91       	pop	r16
 358:	ef 90       	pop	r14
 35a:	08 95       	ret

0000035c <_Z16ST7789_PrintCharcPcS_ccccccc>:
 35c:	2f 92       	push	r2
 35e:	3f 92       	push	r3
 360:	4f 92       	push	r4
 362:	5f 92       	push	r5
 364:	6f 92       	push	r6
 366:	7f 92       	push	r7
 368:	8f 92       	push	r8
 36a:	9f 92       	push	r9
 36c:	af 92       	push	r10
 36e:	bf 92       	push	r11
 370:	cf 92       	push	r12
 372:	df 92       	push	r13
 374:	ef 92       	push	r14
 376:	ff 92       	push	r15
 378:	0f 93       	push	r16
 37a:	1f 93       	push	r17
 37c:	cf 93       	push	r28
 37e:	df 93       	push	r29
 380:	cd b7       	in	r28, 0x3d	; 61
 382:	de b7       	in	r29, 0x3e	; 62
 384:	27 97       	sbiw	r28, 0x07	; 7
 386:	0f b6       	in	r0, 0x3f	; 63
 388:	f8 94       	cli
 38a:	de bf       	out	0x3e, r29	; 62
 38c:	0f be       	out	0x3f, r0	; 63
 38e:	cd bf       	out	0x3d, r28	; 61
 390:	3b 01       	movw	r6, r22
 392:	2a 01       	movw	r4, r20
 394:	2c 83       	std	Y+4, r18	; 0x04
 396:	0d 83       	std	Y+5, r16	; 0x05
 398:	ee 82       	std	Y+6, r14	; 0x06
 39a:	cf 82       	std	Y+7, r12	; 0x07
 39c:	9a 2c       	mov	r9, r10
 39e:	1c 8d       	ldd	r17, Y+28	; 0x1c
 3a0:	21 2f       	mov	r18, r17
 3a2:	22 0f       	add	r18, r18
 3a4:	22 0f       	add	r18, r18
 3a6:	22 0f       	add	r18, r18
 3a8:	29 83       	std	Y+1, r18	; 0x01
 3aa:	36 e0       	ldi	r19, 0x06	; 6
 3ac:	83 9f       	mul	r24, r19
 3ae:	50 01       	movw	r10, r0
 3b0:	11 24       	eor	r1, r1
 3b2:	c1 2c       	mov	r12, r1
 3b4:	d1 2c       	mov	r13, r1
 3b6:	c5 01       	movw	r24, r10
 3b8:	8c 0d       	add	r24, r12
 3ba:	9d 1d       	adc	r25, r13
 3bc:	fc 01       	movw	r30, r24
 3be:	e3 54       	subi	r30, 0x43	; 67
 3c0:	f0 40       	sbci	r31, 0x00	; 0
 3c2:	fb 83       	std	Y+3, r31	; 0x03
 3c4:	ea 83       	std	Y+2, r30	; 0x02
 3c6:	f1 2c       	mov	r15, r1
 3c8:	87 e0       	ldi	r24, 0x07	; 7
 3ca:	28 2e       	mov	r2, r24
 3cc:	31 2c       	mov	r3, r1
 3ce:	ea 81       	ldd	r30, Y+2	; 0x02
 3d0:	fb 81       	ldd	r31, Y+3	; 0x03
 3d2:	80 81       	ld	r24, Z
 3d4:	28 2f       	mov	r18, r24
 3d6:	30 e0       	ldi	r19, 0x00	; 0
 3d8:	81 e0       	ldi	r24, 0x01	; 1
 3da:	90 e0       	ldi	r25, 0x00	; 0
 3dc:	02 2c       	mov	r0, r2
 3de:	02 c0       	rjmp	.+4      	; 0x3e4 <_Z16ST7789_PrintCharcPcS_ccccccc+0x88>
 3e0:	88 0f       	add	r24, r24
 3e2:	99 1f       	adc	r25, r25
 3e4:	0a 94       	dec	r0
 3e6:	e2 f7       	brpl	.-8      	; 0x3e0 <_Z16ST7789_PrintCharcPcS_ccccccc+0x84>
 3e8:	82 23       	and	r24, r18
 3ea:	93 23       	and	r25, r19
 3ec:	f2 01       	movw	r30, r4
 3ee:	60 81       	ld	r22, Z
 3f0:	6f 0d       	add	r22, r15
 3f2:	e1 2e       	mov	r14, r17
 3f4:	89 2b       	or	r24, r25
 3f6:	21 f0       	breq	.+8      	; 0x400 <__EEPROM_REGION_LENGTH__>
 3f8:	0e 81       	ldd	r16, Y+6	; 0x06
 3fa:	2d 81       	ldd	r18, Y+5	; 0x05
 3fc:	4c 81       	ldd	r20, Y+4	; 0x04
 3fe:	03 c0       	rjmp	.+6      	; 0x406 <__EEPROM_REGION_LENGTH__+0x6>
 400:	08 2d       	mov	r16, r8
 402:	29 2d       	mov	r18, r9
 404:	4f 81       	ldd	r20, Y+7	; 0x07
 406:	f3 01       	movw	r30, r6
 408:	80 81       	ld	r24, Z
 40a:	0e 94 95 01 	call	0x32a	; 0x32a <_Z17ST7789_DrawSquarecccccc>
 40e:	f1 e0       	ldi	r31, 0x01	; 1
 410:	2f 1a       	sub	r2, r31
 412:	31 08       	sbc	r3, r1
 414:	f1 0e       	add	r15, r17
 416:	2f ef       	ldi	r18, 0xFF	; 255
 418:	22 16       	cp	r2, r18
 41a:	32 06       	cpc	r3, r18
 41c:	c1 f6       	brne	.-80     	; 0x3ce <_Z16ST7789_PrintCharcPcS_ccccccc+0x72>
 41e:	f3 01       	movw	r30, r6
 420:	80 81       	ld	r24, Z
 422:	81 0f       	add	r24, r17
 424:	80 3f       	cpi	r24, 0xF0	; 240
 426:	38 f0       	brcs	.+14     	; 0x436 <__EEPROM_REGION_LENGTH__+0x36>
 428:	f3 01       	movw	r30, r6
 42a:	10 82       	st	Z, r1
 42c:	f2 01       	movw	r30, r4
 42e:	80 81       	ld	r24, Z
 430:	f9 81       	ldd	r31, Y+1	; 0x01
 432:	8f 0f       	add	r24, r31
 434:	f2 01       	movw	r30, r4
 436:	80 83       	st	Z, r24
 438:	f2 01       	movw	r30, r4
 43a:	80 81       	ld	r24, Z
 43c:	80 3f       	cpi	r24, 0xF0	; 240
 43e:	20 f0       	brcs	.+8      	; 0x448 <__EEPROM_REGION_LENGTH__+0x48>
 440:	f3 01       	movw	r30, r6
 442:	10 82       	st	Z, r1
 444:	f2 01       	movw	r30, r4
 446:	10 82       	st	Z, r1
 448:	ff ef       	ldi	r31, 0xFF	; 255
 44a:	cf 1a       	sub	r12, r31
 44c:	df 0a       	sbc	r13, r31
 44e:	26 e0       	ldi	r18, 0x06	; 6
 450:	c2 16       	cp	r12, r18
 452:	d1 04       	cpc	r13, r1
 454:	09 f0       	breq	.+2      	; 0x458 <__EEPROM_REGION_LENGTH__+0x58>
 456:	af cf       	rjmp	.-162    	; 0x3b6 <_Z16ST7789_PrintCharcPcS_ccccccc+0x5a>
 458:	27 96       	adiw	r28, 0x07	; 7
 45a:	0f b6       	in	r0, 0x3f	; 63
 45c:	f8 94       	cli
 45e:	de bf       	out	0x3e, r29	; 62
 460:	0f be       	out	0x3f, r0	; 63
 462:	cd bf       	out	0x3d, r28	; 61
 464:	df 91       	pop	r29
 466:	cf 91       	pop	r28
 468:	1f 91       	pop	r17
 46a:	0f 91       	pop	r16
 46c:	ff 90       	pop	r15
 46e:	ef 90       	pop	r14
 470:	df 90       	pop	r13
 472:	cf 90       	pop	r12
 474:	bf 90       	pop	r11
 476:	af 90       	pop	r10
 478:	9f 90       	pop	r9
 47a:	8f 90       	pop	r8
 47c:	7f 90       	pop	r7
 47e:	6f 90       	pop	r6
 480:	5f 90       	pop	r5
 482:	4f 90       	pop	r4
 484:	3f 90       	pop	r3
 486:	2f 90       	pop	r2
 488:	08 95       	ret

0000048a <_Z18ST7789_PrintStringPcS_S_ccccccc>:
 48a:	2f 92       	push	r2
 48c:	3f 92       	push	r3
 48e:	4f 92       	push	r4
 490:	5f 92       	push	r5
 492:	6f 92       	push	r6
 494:	7f 92       	push	r7
 496:	8f 92       	push	r8
 498:	9f 92       	push	r9
 49a:	af 92       	push	r10
 49c:	bf 92       	push	r11
 49e:	cf 92       	push	r12
 4a0:	df 92       	push	r13
 4a2:	ef 92       	push	r14
 4a4:	ff 92       	push	r15
 4a6:	0f 93       	push	r16
 4a8:	1f 93       	push	r17
 4aa:	cf 93       	push	r28
 4ac:	df 93       	push	r29
 4ae:	00 d0       	rcall	.+0      	; 0x4b0 <_Z18ST7789_PrintStringPcS_S_ccccccc+0x26>
 4b0:	cd b7       	in	r28, 0x3d	; 61
 4b2:	de b7       	in	r29, 0x3e	; 62
 4b4:	1c 01       	movw	r2, r24
 4b6:	3b 01       	movw	r6, r22
 4b8:	2a 01       	movw	r4, r20
 4ba:	29 83       	std	Y+1, r18	; 0x01
 4bc:	0a 83       	std	Y+2, r16	; 0x02
 4be:	fe 2c       	mov	r15, r14
 4c0:	dc 2c       	mov	r13, r12
 4c2:	ba 2c       	mov	r11, r10
 4c4:	98 2c       	mov	r9, r8
 4c6:	10 e0       	ldi	r17, 0x00	; 0
 4c8:	f1 01       	movw	r30, r2
 4ca:	e1 0f       	add	r30, r17
 4cc:	f1 1d       	adc	r31, r1
 4ce:	80 81       	ld	r24, Z
 4d0:	88 23       	and	r24, r24
 4d2:	79 f0       	breq	.+30     	; 0x4f2 <_Z18ST7789_PrintStringPcS_S_ccccccc+0x68>
 4d4:	9f 89       	ldd	r25, Y+23	; 0x17
 4d6:	9f 93       	push	r25
 4d8:	89 2c       	mov	r8, r9
 4da:	ab 2c       	mov	r10, r11
 4dc:	cd 2c       	mov	r12, r13
 4de:	ef 2c       	mov	r14, r15
 4e0:	0a 81       	ldd	r16, Y+2	; 0x02
 4e2:	29 81       	ldd	r18, Y+1	; 0x01
 4e4:	a2 01       	movw	r20, r4
 4e6:	b3 01       	movw	r22, r6
 4e8:	0e 94 ae 01 	call	0x35c	; 0x35c <_Z16ST7789_PrintCharcPcS_ccccccc>
 4ec:	1f 5f       	subi	r17, 0xFF	; 255
 4ee:	0f 90       	pop	r0
 4f0:	eb cf       	rjmp	.-42     	; 0x4c8 <_Z18ST7789_PrintStringPcS_S_ccccccc+0x3e>
 4f2:	0f 90       	pop	r0
 4f4:	0f 90       	pop	r0
 4f6:	df 91       	pop	r29
 4f8:	cf 91       	pop	r28
 4fa:	1f 91       	pop	r17
 4fc:	0f 91       	pop	r16
 4fe:	ff 90       	pop	r15
 500:	ef 90       	pop	r14
 502:	df 90       	pop	r13
 504:	cf 90       	pop	r12
 506:	bf 90       	pop	r11
 508:	af 90       	pop	r10
 50a:	9f 90       	pop	r9
 50c:	8f 90       	pop	r8
 50e:	7f 90       	pop	r7
 510:	6f 90       	pop	r6
 512:	5f 90       	pop	r5
 514:	4f 90       	pop	r4
 516:	3f 90       	pop	r3
 518:	2f 90       	pop	r2
 51a:	08 95       	ret

0000051c <_Z18ST7789_PrintStringPcS_S_6colourS0_c>:
 51c:	8f 92       	push	r8
 51e:	af 92       	push	r10
 520:	cf 92       	push	r12
 522:	df 92       	push	r13
 524:	ef 92       	push	r14
 526:	0f 93       	push	r16
 528:	1f 93       	push	r17
 52a:	30 2f       	mov	r19, r16
 52c:	af 92       	push	r10
 52e:	8e 2c       	mov	r8, r14
 530:	ad 2c       	mov	r10, r13
 532:	e2 2e       	mov	r14, r18
 534:	01 2f       	mov	r16, r17
 536:	23 2f       	mov	r18, r19
 538:	0e 94 45 02 	call	0x48a	; 0x48a <_Z18ST7789_PrintStringPcS_S_ccccccc>
 53c:	0f 90       	pop	r0
 53e:	1f 91       	pop	r17
 540:	0f 91       	pop	r16
 542:	ef 90       	pop	r14
 544:	df 90       	pop	r13
 546:	cf 90       	pop	r12
 548:	af 90       	pop	r10
 54a:	8f 90       	pop	r8
 54c:	08 95       	ret

0000054e <_exit>:
 54e:	f8 94       	cli

00000550 <__stop_program>:
 550:	ff cf       	rjmp	.-2      	; 0x550 <__stop_program>
