
LED_controller.elf:     file format elf32-avr

Sections:
Idx Name          Size      VMA       LMA       File off  Algn
  0 .text         0000040c  00000000  00000000  00000074  2**1
                  CONTENTS, ALLOC, LOAD, READONLY, CODE
  1 .data         00000006  00800060  0000040c  00000480  2**0
                  CONTENTS, ALLOC, LOAD, DATA
  2 .comment      00000030  00000000  00000000  00000486  2**0
                  CONTENTS, READONLY
  3 .note.gnu.avr.deviceinfo 0000003c  00000000  00000000  000004b8  2**2
                  CONTENTS, READONLY
  4 .debug_info   000004e6  00000000  00000000  000004f4  2**0
                  CONTENTS, READONLY, DEBUGGING
  5 .debug_abbrev 000004a3  00000000  00000000  000009da  2**0
                  CONTENTS, READONLY, DEBUGGING
  6 .debug_line   00000116  00000000  00000000  00000e7d  2**0
                  CONTENTS, READONLY, DEBUGGING
  7 .debug_str    00000196  00000000  00000000  00000f93  2**0
                  CONTENTS, READONLY, DEBUGGING

Disassembly of section .text:

00000000 <__vectors>:
   0:	0c 94 2a 00 	jmp	0x54	; 0x54 <__ctors_end>
   4:	0c 94 47 00 	jmp	0x8e	; 0x8e <__bad_interrupt>
   8:	0c 94 47 00 	jmp	0x8e	; 0x8e <__bad_interrupt>
   c:	0c 94 47 00 	jmp	0x8e	; 0x8e <__bad_interrupt>
  10:	0c 94 47 00 	jmp	0x8e	; 0x8e <__bad_interrupt>
  14:	0c 94 47 00 	jmp	0x8e	; 0x8e <__bad_interrupt>
  18:	0c 94 47 00 	jmp	0x8e	; 0x8e <__bad_interrupt>
  1c:	0c 94 47 00 	jmp	0x8e	; 0x8e <__bad_interrupt>
  20:	0c 94 47 00 	jmp	0x8e	; 0x8e <__bad_interrupt>
  24:	0c 94 47 00 	jmp	0x8e	; 0x8e <__bad_interrupt>
  28:	0c 94 47 00 	jmp	0x8e	; 0x8e <__bad_interrupt>
  2c:	0c 94 47 00 	jmp	0x8e	; 0x8e <__bad_interrupt>
  30:	0c 94 47 00 	jmp	0x8e	; 0x8e <__bad_interrupt>
  34:	0c 94 47 00 	jmp	0x8e	; 0x8e <__bad_interrupt>
  38:	0c 94 47 00 	jmp	0x8e	; 0x8e <__bad_interrupt>
  3c:	0c 94 47 00 	jmp	0x8e	; 0x8e <__bad_interrupt>
  40:	0c 94 47 00 	jmp	0x8e	; 0x8e <__bad_interrupt>
  44:	0c 94 47 00 	jmp	0x8e	; 0x8e <__bad_interrupt>
  48:	0c 94 47 00 	jmp	0x8e	; 0x8e <__bad_interrupt>
  4c:	0c 94 47 00 	jmp	0x8e	; 0x8e <__bad_interrupt>
  50:	0c 94 47 00 	jmp	0x8e	; 0x8e <__bad_interrupt>

00000054 <__ctors_end>:
  54:	11 24       	eor	r1, r1
  56:	1f be       	out	0x3f, r1	; 63
  58:	cf e5       	ldi	r28, 0x5F	; 95
  5a:	d8 e0       	ldi	r29, 0x08	; 8
  5c:	de bf       	out	0x3e, r29	; 62
  5e:	cd bf       	out	0x3d, r28	; 61

00000060 <__do_copy_data>:
  60:	10 e0       	ldi	r17, 0x00	; 0
  62:	a0 e6       	ldi	r26, 0x60	; 96
  64:	b0 e0       	ldi	r27, 0x00	; 0
  66:	ec e0       	ldi	r30, 0x0C	; 12
  68:	f4 e0       	ldi	r31, 0x04	; 4
  6a:	02 c0       	rjmp	.+4      	; 0x70 <__do_copy_data+0x10>
  6c:	05 90       	lpm	r0, Z+
  6e:	0d 92       	st	X+, r0
  70:	a6 36       	cpi	r26, 0x66	; 102
  72:	b1 07       	cpc	r27, r17
  74:	d9 f7       	brne	.-10     	; 0x6c <__do_copy_data+0xc>

00000076 <__do_clear_bss>:
  76:	20 e0       	ldi	r18, 0x00	; 0
  78:	a6 e6       	ldi	r26, 0x66	; 102
  7a:	b0 e0       	ldi	r27, 0x00	; 0
  7c:	01 c0       	rjmp	.+2      	; 0x80 <.do_clear_bss_start>

0000007e <.do_clear_bss_loop>:
  7e:	1d 92       	st	X+, r1

00000080 <.do_clear_bss_start>:
  80:	a6 36       	cpi	r26, 0x66	; 102
  82:	b2 07       	cpc	r27, r18
  84:	e1 f7       	brne	.-8      	; 0x7e <.do_clear_bss_loop>
  86:	0e 94 49 00 	call	0x92	; 0x92 <main>
  8a:	0c 94 04 02 	jmp	0x408	; 0x408 <_exit>

0000008e <__bad_interrupt>:
  8e:	0c 94 00 00 	jmp	0	; 0x0 <__vectors>

00000092 <main>:
  92:	2f ef       	ldi	r18, 0xFF	; 255
  94:	8f ef       	ldi	r24, 0xFF	; 255
  96:	98 e0       	ldi	r25, 0x08	; 8
  98:	21 50       	subi	r18, 0x01	; 1
  9a:	80 40       	sbci	r24, 0x00	; 0
  9c:	90 40       	sbci	r25, 0x00	; 0
  9e:	e1 f7       	brne	.-8      	; 0x98 <main+0x6>
  a0:	00 c0       	rjmp	.+0      	; 0xa2 <main+0x10>
  a2:	00 00       	nop
  a4:	0e 94 e9 00 	call	0x1d2	; 0x1d2 <_Z14ST7789_InitSPIv>
  a8:	0e 94 f7 00 	call	0x1ee	; 0x1ee <_Z17ST7789_InitST7789v>
  ac:	60 91 60 00 	lds	r22, 0x0060	; 0x800060 <__data_start>
  b0:	70 91 61 00 	lds	r23, 0x0061	; 0x800061 <__data_start+0x1>
  b4:	80 91 62 00 	lds	r24, 0x0062	; 0x800062 <__data_start+0x2>
  b8:	0e 94 f6 01 	call	0x3ec	; 0x3ec <_Z17ST7789_FillScreen6colour>
  bc:	e0 90 63 00 	lds	r14, 0x0063	; 0x800063 <_ZL3RED>
  c0:	f0 90 64 00 	lds	r15, 0x0064	; 0x800064 <_ZL3RED+0x1>
  c4:	00 91 65 00 	lds	r16, 0x0065	; 0x800065 <_ZL3RED+0x2>
  c8:	22 e3       	ldi	r18, 0x32	; 50
  ca:	42 e3       	ldi	r20, 0x32	; 50
  cc:	64 e6       	ldi	r22, 0x64	; 100
  ce:	84 e6       	ldi	r24, 0x64	; 100
  d0:	0e 94 e7 01 	call	0x3ce	; 0x3ce <_Z20ST7789_DrawRectanglecccc6colour>
  d4:	ff cf       	rjmp	.-2      	; 0xd4 <main+0x42>

000000d6 <_Z4Sendc>:
  d6:	8f b9       	out	0x0f, r24	; 15
  d8:	77 9b       	sbis	0x0e, 7	; 14
  da:	fe cf       	rjmp	.-4      	; 0xd8 <_Z4Sendc+0x2>
  dc:	08 95       	ret

000000de <_Z17ST7789_DrawSquarecccccc.part.1>:
  de:	cf 92       	push	r12
  e0:	df 92       	push	r13
  e2:	ef 92       	push	r14
  e4:	ff 92       	push	r15
  e6:	0f 93       	push	r16
  e8:	1f 93       	push	r17
  ea:	cf 93       	push	r28
  ec:	df 93       	push	r29
  ee:	18 2f       	mov	r17, r24
  f0:	f6 2e       	mov	r15, r22
  f2:	d4 2f       	mov	r29, r20
  f4:	c2 2f       	mov	r28, r18
  f6:	aa 98       	cbi	0x15, 2	; 21
  f8:	8a e2       	ldi	r24, 0x2A	; 42
  fa:	0e 94 6b 00 	call	0xd6	; 0xd6 <_Z4Sendc>
  fe:	aa 9a       	sbi	0x15, 2	; 21
 100:	80 e0       	ldi	r24, 0x00	; 0
 102:	0e 94 6b 00 	call	0xd6	; 0xd6 <_Z4Sendc>
 106:	81 2f       	mov	r24, r17
 108:	0e 94 6b 00 	call	0xd6	; 0xd6 <_Z4Sendc>
 10c:	ce 2c       	mov	r12, r14
 10e:	d1 2c       	mov	r13, r1
 110:	c6 01       	movw	r24, r12
 112:	81 0f       	add	r24, r17
 114:	91 1d       	adc	r25, r1
 116:	01 97       	sbiw	r24, 0x01	; 1
 118:	89 2f       	mov	r24, r25
 11a:	0e 94 6b 00 	call	0xd6	; 0xd6 <_Z4Sendc>
 11e:	8f ef       	ldi	r24, 0xFF	; 255
 120:	8e 0d       	add	r24, r14
 122:	81 0f       	add	r24, r17
 124:	0e 94 6b 00 	call	0xd6	; 0xd6 <_Z4Sendc>
 128:	aa 98       	cbi	0x15, 2	; 21
 12a:	8b e2       	ldi	r24, 0x2B	; 43
 12c:	0e 94 6b 00 	call	0xd6	; 0xd6 <_Z4Sendc>
 130:	aa 9a       	sbi	0x15, 2	; 21
 132:	80 e0       	ldi	r24, 0x00	; 0
 134:	0e 94 6b 00 	call	0xd6	; 0xd6 <_Z4Sendc>
 138:	8f 2d       	mov	r24, r15
 13a:	0e 94 6b 00 	call	0xd6	; 0xd6 <_Z4Sendc>
 13e:	cf 0c       	add	r12, r15
 140:	d1 1c       	adc	r13, r1
 142:	81 e0       	ldi	r24, 0x01	; 1
 144:	c8 1a       	sub	r12, r24
 146:	d1 08       	sbc	r13, r1
 148:	8d 2d       	mov	r24, r13
 14a:	0e 94 6b 00 	call	0xd6	; 0xd6 <_Z4Sendc>
 14e:	8f ef       	ldi	r24, 0xFF	; 255
 150:	8f 0d       	add	r24, r15
 152:	8e 0d       	add	r24, r14
 154:	0e 94 6b 00 	call	0xd6	; 0xd6 <_Z4Sendc>
 158:	aa 98       	cbi	0x15, 2	; 21
 15a:	8c e2       	ldi	r24, 0x2C	; 44
 15c:	0e 94 6b 00 	call	0xd6	; 0xd6 <_Z4Sendc>
 160:	aa 9a       	sbi	0x15, 2	; 21
 162:	ee 9c       	mul	r14, r14
 164:	70 01       	movw	r14, r0
 166:	11 24       	eor	r1, r1
 168:	2c 2f       	mov	r18, r28
 16a:	30 e0       	ldi	r19, 0x00	; 0
 16c:	88 e0       	ldi	r24, 0x08	; 8
 16e:	d8 9f       	mul	r29, r24
 170:	e0 01       	movw	r28, r0
 172:	11 24       	eor	r1, r1
 174:	c9 01       	movw	r24, r18
 176:	43 e0       	ldi	r20, 0x03	; 3
 178:	95 95       	asr	r25
 17a:	87 95       	ror	r24
 17c:	4a 95       	dec	r20
 17e:	e1 f7       	brne	.-8      	; 0x178 <_Z17ST7789_DrawSquarecccccc.part.1+0x9a>
 180:	c8 2b       	or	r28, r24
 182:	55 e0       	ldi	r21, 0x05	; 5
 184:	22 0f       	add	r18, r18
 186:	33 1f       	adc	r19, r19
 188:	5a 95       	dec	r21
 18a:	e1 f7       	brne	.-8      	; 0x184 <_Z17ST7789_DrawSquarecccccc.part.1+0xa6>
 18c:	02 2b       	or	r16, r18
 18e:	c1 2c       	mov	r12, r1
 190:	d1 2c       	mov	r13, r1
 192:	ec 14       	cp	r14, r12
 194:	fd 04       	cpc	r15, r13
 196:	51 f0       	breq	.+20     	; 0x1ac <_Z17ST7789_DrawSquarecccccc.part.1+0xce>
 198:	8c 2f       	mov	r24, r28
 19a:	0e 94 6b 00 	call	0xd6	; 0xd6 <_Z4Sendc>
 19e:	80 2f       	mov	r24, r16
 1a0:	0e 94 6b 00 	call	0xd6	; 0xd6 <_Z4Sendc>
 1a4:	8f ef       	ldi	r24, 0xFF	; 255
 1a6:	c8 1a       	sub	r12, r24
 1a8:	d8 0a       	sbc	r13, r24
 1aa:	f3 cf       	rjmp	.-26     	; 0x192 <_Z17ST7789_DrawSquarecccccc.part.1+0xb4>
 1ac:	df 91       	pop	r29
 1ae:	cf 91       	pop	r28
 1b0:	1f 91       	pop	r17
 1b2:	0f 91       	pop	r16
 1b4:	ff 90       	pop	r15
 1b6:	ef 90       	pop	r14
 1b8:	df 90       	pop	r13
 1ba:	cf 90       	pop	r12
 1bc:	08 95       	ret

000001be <_Z8SendDatac>:
 1be:	aa 9a       	sbi	0x15, 2	; 21
 1c0:	8f b9       	out	0x0f, r24	; 15
 1c2:	77 9b       	sbis	0x0e, 7	; 14
 1c4:	fe cf       	rjmp	.-4      	; 0x1c2 <_Z8SendDatac+0x4>
 1c6:	08 95       	ret

000001c8 <_Z11SendCommandc>:
 1c8:	aa 98       	cbi	0x15, 2	; 21
 1ca:	8f b9       	out	0x0f, r24	; 15
 1cc:	77 9b       	sbis	0x0e, 7	; 14
 1ce:	fe cf       	rjmp	.-4      	; 0x1cc <_Z11SendCommandc+0x4>
 1d0:	08 95       	ret

000001d2 <_Z14ST7789_InitSPIv>:
 1d2:	87 b3       	in	r24, 0x17	; 23
 1d4:	80 6b       	ori	r24, 0xB0	; 176
 1d6:	87 bb       	out	0x17, r24	; 23
 1d8:	88 b3       	in	r24, 0x18	; 24
 1da:	80 6f       	ori	r24, 0xF0	; 240
 1dc:	88 bb       	out	0x18, r24	; 24
 1de:	8c e5       	ldi	r24, 0x5C	; 92
 1e0:	8d b9       	out	0x0d, r24	; 13
 1e2:	1e b8       	out	0x0e, r1	; 14
 1e4:	a3 9a       	sbi	0x14, 3	; 20
 1e6:	ab 9a       	sbi	0x15, 3	; 21
 1e8:	a2 9a       	sbi	0x14, 2	; 20
 1ea:	aa 9a       	sbi	0x15, 2	; 21
 1ec:	08 95       	ret

000001ee <_Z17ST7789_InitST7789v>:
 1ee:	ab 9a       	sbi	0x15, 3	; 21
 1f0:	81 ee       	ldi	r24, 0xE1	; 225
 1f2:	94 e0       	ldi	r25, 0x04	; 4
 1f4:	01 97       	sbiw	r24, 0x01	; 1
 1f6:	f1 f7       	brne	.-4      	; 0x1f4 <_Z17ST7789_InitST7789v+0x6>
 1f8:	00 c0       	rjmp	.+0      	; 0x1fa <_Z17ST7789_InitST7789v+0xc>
 1fa:	00 00       	nop
 1fc:	ab 98       	cbi	0x15, 3	; 21
 1fe:	81 ee       	ldi	r24, 0xE1	; 225
 200:	94 e0       	ldi	r25, 0x04	; 4
 202:	01 97       	sbiw	r24, 0x01	; 1
 204:	f1 f7       	brne	.-4      	; 0x202 <_Z17ST7789_InitST7789v+0x14>
 206:	00 c0       	rjmp	.+0      	; 0x208 <_Z17ST7789_InitST7789v+0x1a>
 208:	00 00       	nop
 20a:	ab 9a       	sbi	0x15, 3	; 21
 20c:	81 ee       	ldi	r24, 0xE1	; 225
 20e:	94 e0       	ldi	r25, 0x04	; 4
 210:	01 97       	sbiw	r24, 0x01	; 1
 212:	f1 f7       	brne	.-4      	; 0x210 <_Z17ST7789_InitST7789v+0x22>
 214:	00 c0       	rjmp	.+0      	; 0x216 <_Z17ST7789_InitST7789v+0x28>
 216:	00 00       	nop
 218:	81 e0       	ldi	r24, 0x01	; 1
 21a:	0e 94 e4 00 	call	0x1c8	; 0x1c8 <_Z11SendCommandc>
 21e:	83 ec       	ldi	r24, 0xC3	; 195
 220:	99 e0       	ldi	r25, 0x09	; 9
 222:	01 97       	sbiw	r24, 0x01	; 1
 224:	f1 f7       	brne	.-4      	; 0x222 <_Z17ST7789_InitST7789v+0x34>
 226:	00 c0       	rjmp	.+0      	; 0x228 <_Z17ST7789_InitST7789v+0x3a>
 228:	00 00       	nop
 22a:	81 e1       	ldi	r24, 0x11	; 17
 22c:	0e 94 e4 00 	call	0x1c8	; 0x1c8 <_Z11SendCommandc>
 230:	83 ec       	ldi	r24, 0xC3	; 195
 232:	99 e0       	ldi	r25, 0x09	; 9
 234:	01 97       	sbiw	r24, 0x01	; 1
 236:	f1 f7       	brne	.-4      	; 0x234 <_Z17ST7789_InitST7789v+0x46>
 238:	00 c0       	rjmp	.+0      	; 0x23a <_Z17ST7789_InitST7789v+0x4c>
 23a:	00 00       	nop
 23c:	8a e3       	ldi	r24, 0x3A	; 58
 23e:	0e 94 e4 00 	call	0x1c8	; 0x1c8 <_Z11SendCommandc>
 242:	85 e0       	ldi	r24, 0x05	; 5
 244:	0e 94 df 00 	call	0x1be	; 0x1be <_Z8SendDatac>
 248:	83 ec       	ldi	r24, 0xC3	; 195
 24a:	99 e0       	ldi	r25, 0x09	; 9
 24c:	01 97       	sbiw	r24, 0x01	; 1
 24e:	f1 f7       	brne	.-4      	; 0x24c <_Z17ST7789_InitST7789v+0x5e>
 250:	00 c0       	rjmp	.+0      	; 0x252 <_Z17ST7789_InitST7789v+0x64>
 252:	00 00       	nop
 254:	86 e3       	ldi	r24, 0x36	; 54
 256:	0e 94 e4 00 	call	0x1c8	; 0x1c8 <_Z11SendCommandc>
 25a:	80 e0       	ldi	r24, 0x00	; 0
 25c:	0e 94 df 00 	call	0x1be	; 0x1be <_Z8SendDatac>
 260:	83 ec       	ldi	r24, 0xC3	; 195
 262:	99 e0       	ldi	r25, 0x09	; 9
 264:	01 97       	sbiw	r24, 0x01	; 1
 266:	f1 f7       	brne	.-4      	; 0x264 <_Z17ST7789_InitST7789v+0x76>
 268:	00 c0       	rjmp	.+0      	; 0x26a <_Z17ST7789_InitST7789v+0x7c>
 26a:	00 00       	nop
 26c:	8a e2       	ldi	r24, 0x2A	; 42
 26e:	0e 94 e4 00 	call	0x1c8	; 0x1c8 <_Z11SendCommandc>
 272:	80 e0       	ldi	r24, 0x00	; 0
 274:	0e 94 df 00 	call	0x1be	; 0x1be <_Z8SendDatac>
 278:	80 e0       	ldi	r24, 0x00	; 0
 27a:	0e 94 df 00 	call	0x1be	; 0x1be <_Z8SendDatac>
 27e:	80 e0       	ldi	r24, 0x00	; 0
 280:	0e 94 df 00 	call	0x1be	; 0x1be <_Z8SendDatac>
 284:	80 ef       	ldi	r24, 0xF0	; 240
 286:	0e 94 df 00 	call	0x1be	; 0x1be <_Z8SendDatac>
 28a:	83 ec       	ldi	r24, 0xC3	; 195
 28c:	99 e0       	ldi	r25, 0x09	; 9
 28e:	01 97       	sbiw	r24, 0x01	; 1
 290:	f1 f7       	brne	.-4      	; 0x28e <_Z17ST7789_InitST7789v+0xa0>
 292:	00 c0       	rjmp	.+0      	; 0x294 <_Z17ST7789_InitST7789v+0xa6>
 294:	00 00       	nop
 296:	8b e2       	ldi	r24, 0x2B	; 43
 298:	0e 94 e4 00 	call	0x1c8	; 0x1c8 <_Z11SendCommandc>
 29c:	80 e0       	ldi	r24, 0x00	; 0
 29e:	0e 94 df 00 	call	0x1be	; 0x1be <_Z8SendDatac>
 2a2:	80 e0       	ldi	r24, 0x00	; 0
 2a4:	0e 94 df 00 	call	0x1be	; 0x1be <_Z8SendDatac>
 2a8:	80 e0       	ldi	r24, 0x00	; 0
 2aa:	0e 94 df 00 	call	0x1be	; 0x1be <_Z8SendDatac>
 2ae:	80 ef       	ldi	r24, 0xF0	; 240
 2b0:	0e 94 df 00 	call	0x1be	; 0x1be <_Z8SendDatac>
 2b4:	83 ec       	ldi	r24, 0xC3	; 195
 2b6:	99 e0       	ldi	r25, 0x09	; 9
 2b8:	01 97       	sbiw	r24, 0x01	; 1
 2ba:	f1 f7       	brne	.-4      	; 0x2b8 <_Z17ST7789_InitST7789v+0xca>
 2bc:	00 c0       	rjmp	.+0      	; 0x2be <_Z17ST7789_InitST7789v+0xd0>
 2be:	00 00       	nop
 2c0:	81 e2       	ldi	r24, 0x21	; 33
 2c2:	0e 94 e4 00 	call	0x1c8	; 0x1c8 <_Z11SendCommandc>
 2c6:	83 ec       	ldi	r24, 0xC3	; 195
 2c8:	99 e0       	ldi	r25, 0x09	; 9
 2ca:	01 97       	sbiw	r24, 0x01	; 1
 2cc:	f1 f7       	brne	.-4      	; 0x2ca <_Z17ST7789_InitST7789v+0xdc>
 2ce:	00 c0       	rjmp	.+0      	; 0x2d0 <_Z17ST7789_InitST7789v+0xe2>
 2d0:	00 00       	nop
 2d2:	89 e2       	ldi	r24, 0x29	; 41
 2d4:	0e 94 e4 00 	call	0x1c8	; 0x1c8 <_Z11SendCommandc>
 2d8:	83 ec       	ldi	r24, 0xC3	; 195
 2da:	99 e0       	ldi	r25, 0x09	; 9
 2dc:	01 97       	sbiw	r24, 0x01	; 1
 2de:	f1 f7       	brne	.-4      	; 0x2dc <_Z17ST7789_InitST7789v+0xee>
 2e0:	00 c0       	rjmp	.+0      	; 0x2e2 <_Z17ST7789_InitST7789v+0xf4>
 2e2:	00 00       	nop
 2e4:	08 95       	ret

000002e6 <_Z20ST7789_DrawRectangleccccccc>:
 2e6:	cf 92       	push	r12
 2e8:	df 92       	push	r13
 2ea:	ef 92       	push	r14
 2ec:	ff 92       	push	r15
 2ee:	0f 93       	push	r16
 2f0:	1f 93       	push	r17
 2f2:	cf 93       	push	r28
 2f4:	df 93       	push	r29
 2f6:	81 3f       	cpi	r24, 0xF1	; 241
 2f8:	08 f0       	brcs	.+2      	; 0x2fc <_Z20ST7789_DrawRectangleccccccc+0x16>
 2fa:	60 c0       	rjmp	.+192    	; 0x3bc <_Z20ST7789_DrawRectangleccccccc+0xd6>
 2fc:	61 3f       	cpi	r22, 0xF1	; 241
 2fe:	08 f0       	brcs	.+2      	; 0x302 <_Z20ST7789_DrawRectangleccccccc+0x1c>
 300:	5d c0       	rjmp	.+186    	; 0x3bc <_Z20ST7789_DrawRectangleccccccc+0xd6>
 302:	d2 2e       	mov	r13, r18
 304:	c4 2f       	mov	r28, r20
 306:	d6 2f       	mov	r29, r22
 308:	18 2f       	mov	r17, r24
 30a:	aa 98       	cbi	0x15, 2	; 21
 30c:	8a e2       	ldi	r24, 0x2A	; 42
 30e:	0e 94 6b 00 	call	0xd6	; 0xd6 <_Z4Sendc>
 312:	aa 9a       	sbi	0x15, 2	; 21
 314:	80 e0       	ldi	r24, 0x00	; 0
 316:	0e 94 6b 00 	call	0xd6	; 0xd6 <_Z4Sendc>
 31a:	81 2f       	mov	r24, r17
 31c:	0e 94 6b 00 	call	0xd6	; 0xd6 <_Z4Sendc>
 320:	8d 2d       	mov	r24, r13
 322:	90 e0       	ldi	r25, 0x00	; 0
 324:	81 0f       	add	r24, r17
 326:	91 1d       	adc	r25, r1
 328:	01 97       	sbiw	r24, 0x01	; 1
 32a:	89 2f       	mov	r24, r25
 32c:	0e 94 6b 00 	call	0xd6	; 0xd6 <_Z4Sendc>
 330:	8f ef       	ldi	r24, 0xFF	; 255
 332:	8d 0d       	add	r24, r13
 334:	81 0f       	add	r24, r17
 336:	0e 94 6b 00 	call	0xd6	; 0xd6 <_Z4Sendc>
 33a:	aa 98       	cbi	0x15, 2	; 21
 33c:	8b e2       	ldi	r24, 0x2B	; 43
 33e:	0e 94 6b 00 	call	0xd6	; 0xd6 <_Z4Sendc>
 342:	aa 9a       	sbi	0x15, 2	; 21
 344:	80 e0       	ldi	r24, 0x00	; 0
 346:	0e 94 6b 00 	call	0xd6	; 0xd6 <_Z4Sendc>
 34a:	8d 2f       	mov	r24, r29
 34c:	0e 94 6b 00 	call	0xd6	; 0xd6 <_Z4Sendc>
 350:	8c 2f       	mov	r24, r28
 352:	90 e0       	ldi	r25, 0x00	; 0
 354:	8d 0f       	add	r24, r29
 356:	91 1d       	adc	r25, r1
 358:	01 97       	sbiw	r24, 0x01	; 1
 35a:	89 2f       	mov	r24, r25
 35c:	0e 94 6b 00 	call	0xd6	; 0xd6 <_Z4Sendc>
 360:	8f ef       	ldi	r24, 0xFF	; 255
 362:	8c 0f       	add	r24, r28
 364:	8d 0f       	add	r24, r29
 366:	0e 94 6b 00 	call	0xd6	; 0xd6 <_Z4Sendc>
 36a:	aa 98       	cbi	0x15, 2	; 21
 36c:	8c e2       	ldi	r24, 0x2C	; 44
 36e:	0e 94 6b 00 	call	0xd6	; 0xd6 <_Z4Sendc>
 372:	aa 9a       	sbi	0x15, 2	; 21
 374:	dc 9e       	mul	r13, r28
 376:	e0 01       	movw	r28, r0
 378:	11 24       	eor	r1, r1
 37a:	f1 2c       	mov	r15, r1
 37c:	88 e0       	ldi	r24, 0x08	; 8
 37e:	08 9f       	mul	r16, r24
 380:	80 01       	movw	r16, r0
 382:	11 24       	eor	r1, r1
 384:	c7 01       	movw	r24, r14
 386:	23 e0       	ldi	r18, 0x03	; 3
 388:	95 95       	asr	r25
 38a:	87 95       	ror	r24
 38c:	2a 95       	dec	r18
 38e:	e1 f7       	brne	.-8      	; 0x388 <_Z20ST7789_DrawRectangleccccccc+0xa2>
 390:	08 2b       	or	r16, r24
 392:	35 e0       	ldi	r19, 0x05	; 5
 394:	ee 0c       	add	r14, r14
 396:	ff 1c       	adc	r15, r15
 398:	3a 95       	dec	r19
 39a:	e1 f7       	brne	.-8      	; 0x394 <_Z20ST7789_DrawRectangleccccccc+0xae>
 39c:	ec 28       	or	r14, r12
 39e:	c1 2c       	mov	r12, r1
 3a0:	d1 2c       	mov	r13, r1
 3a2:	cc 15       	cp	r28, r12
 3a4:	dd 05       	cpc	r29, r13
 3a6:	51 f0       	breq	.+20     	; 0x3bc <_Z20ST7789_DrawRectangleccccccc+0xd6>
 3a8:	80 2f       	mov	r24, r16
 3aa:	0e 94 6b 00 	call	0xd6	; 0xd6 <_Z4Sendc>
 3ae:	8e 2d       	mov	r24, r14
 3b0:	0e 94 6b 00 	call	0xd6	; 0xd6 <_Z4Sendc>
 3b4:	8f ef       	ldi	r24, 0xFF	; 255
 3b6:	c8 1a       	sub	r12, r24
 3b8:	d8 0a       	sbc	r13, r24
 3ba:	f3 cf       	rjmp	.-26     	; 0x3a2 <_Z20ST7789_DrawRectangleccccccc+0xbc>
 3bc:	df 91       	pop	r29
 3be:	cf 91       	pop	r28
 3c0:	1f 91       	pop	r17
 3c2:	0f 91       	pop	r16
 3c4:	ff 90       	pop	r15
 3c6:	ef 90       	pop	r14
 3c8:	df 90       	pop	r13
 3ca:	cf 90       	pop	r12
 3cc:	08 95       	ret

000003ce <_Z20ST7789_DrawRectanglecccc6colour>:
 3ce:	cf 92       	push	r12
 3d0:	ef 92       	push	r14
 3d2:	ff 92       	push	r15
 3d4:	0f 93       	push	r16
 3d6:	9e 2d       	mov	r25, r14
 3d8:	c0 2e       	mov	r12, r16
 3da:	ef 2c       	mov	r14, r15
 3dc:	09 2f       	mov	r16, r25
 3de:	0e 94 73 01 	call	0x2e6	; 0x2e6 <_Z20ST7789_DrawRectangleccccccc>
 3e2:	0f 91       	pop	r16
 3e4:	ff 90       	pop	r15
 3e6:	ef 90       	pop	r14
 3e8:	cf 90       	pop	r12
 3ea:	08 95       	ret

000003ec <_Z17ST7789_FillScreen6colour>:
 3ec:	ef 92       	push	r14
 3ee:	0f 93       	push	r16
 3f0:	46 2f       	mov	r20, r22
 3f2:	27 2f       	mov	r18, r23
 3f4:	90 ef       	ldi	r25, 0xF0	; 240
 3f6:	e9 2e       	mov	r14, r25
 3f8:	08 2f       	mov	r16, r24
 3fa:	60 e0       	ldi	r22, 0x00	; 0
 3fc:	80 e0       	ldi	r24, 0x00	; 0
 3fe:	0e 94 6f 00 	call	0xde	; 0xde <_Z17ST7789_DrawSquarecccccc.part.1>
 402:	0f 91       	pop	r16
 404:	ef 90       	pop	r14
 406:	08 95       	ret

00000408 <_exit>:
 408:	f8 94       	cli

0000040a <__stop_program>:
 40a:	ff cf       	rjmp	.-2      	; 0x40a <__stop_program>
